--
-- PostgreSQL database dump
--

SET statement_timeout = 0;
SET lock_timeout = 0;
SET client_encoding = 'UTF8';
SET standard_conforming_strings = on;
SET check_function_bodies = false;
SET client_min_messages = warning;

--
-- Name: plpgsql; Type: EXTENSION; Schema: -; Owner: 
--

CREATE EXTENSION IF NOT EXISTS plpgsql WITH SCHEMA pg_catalog;


--
-- Name: EXTENSION plpgsql; Type: COMMENT; Schema: -; Owner: 
--

COMMENT ON EXTENSION plpgsql IS 'PL/pgSQL procedural language';


SET search_path = public, pg_catalog;

SET default_tablespace = '';

SET default_with_oids = false;

--
-- Name: family; Type: TABLE; Schema: public; Owner: dad; Tablespace: 
--

CREATE TABLE family (
    family_key character varying(20),
    id integer NOT NULL,
    notes character varying DEFAULT '0'::character varying NOT NULL,
    female_plant_id integer DEFAULT 1 NOT NULL,
    male_plant_id integer DEFAULT 1 NOT NULL,
    seed_notes character varying DEFAULT '0'::character varying NOT NULL,
    form_fnmwu character(1) DEFAULT 'U'::bpchar NOT NULL,
    is_plus character(1) DEFAULT 'U'::bpchar NOT NULL,
    is_root character varying DEFAULT '0'::character varying NOT NULL,
    seeds_in_storage numeric DEFAULT (-1) NOT NULL,
    ploidy_n integer DEFAULT (-1) NOT NULL,
    seed_germ_percent numeric DEFAULT ((-1))::numeric NOT NULL,
    seed_germ_date date DEFAULT '1111-11-11'::date NOT NULL,
    cross_date date DEFAULT '1111-11-11'::date NOT NULL,
    id_taxa integer NOT NULL,
    web_photos character varying DEFAULT '0'::character varying NOT NULL,
    web_url character varying DEFAULT '0'::character varying NOT NULL,
    CONSTRAINT family_form_fnmwu_check CHECK ((form_fnmwu = ANY (ARRAY['U'::bpchar, 'F'::bpchar, 'N'::bpchar, 'M'::bpchar, 'W'::bpchar]))),
    CONSTRAINT family_is_plus_check CHECK ((is_plus = ANY (ARRAY['N'::bpchar, 'Y'::bpchar, 'U'::bpchar]))),
    CONSTRAINT family_seed_germ_percent_check CHECK ((seed_germ_percent < (1)::numeric))
);


ALTER TABLE public.family OWNER TO dad;

--
-- Name: plant; Type: TABLE; Schema: public; Owner: dad; Tablespace: 
--

CREATE TABLE plant (
    plant_key character varying(20),
    id integer NOT NULL,
    notes character varying DEFAULT '0'::character varying NOT NULL,
    sex_mfbu character(1) DEFAULT 'U'::bpchar NOT NULL,
    published_botanical_name character varying DEFAULT '0'::character varying NOT NULL,
    common_name character varying DEFAULT '0'::character varying NOT NULL,
    alternate_name character varying DEFAULT '0'::character varying NOT NULL,
    aquired_from character varying DEFAULT '0'::character varying NOT NULL,
    female_external_parent character varying DEFAULT '0'::character varying NOT NULL,
    male_external_parent character varying DEFAULT '0'::character varying NOT NULL,
    form_fnmwu character(1) DEFAULT 'U'::bpchar NOT NULL,
    is_plus character(1) DEFAULT 'U'::bpchar NOT NULL,
    is_cultivar character(1) DEFAULT 'U'::bpchar NOT NULL,
    is_variety character(1) DEFAULT 'U'::bpchar NOT NULL,
    is_from_wild character(1) DEFAULT 'U'::bpchar NOT NULL,
    ploidy_n integer DEFAULT 0 NOT NULL,
    date_aquired date DEFAULT '1111-11-11'::date NOT NULL,
    id_taxa integer NOT NULL,
    id_family integer NOT NULL,
    web_photos character varying DEFAULT '0'::character varying NOT NULL,
    web_url character varying DEFAULT '0'::character varying NOT NULL,
    CONSTRAINT plant_form_fnmwu_check CHECK ((form_fnmwu = ANY (ARRAY['U'::bpchar, 'F'::bpchar, 'N'::bpchar, 'M'::bpchar, 'W'::bpchar]))),
    CONSTRAINT plant_is_cultivar_check CHECK ((is_cultivar = ANY (ARRAY['N'::bpchar, 'Y'::bpchar, 'U'::bpchar]))),
    CONSTRAINT plant_is_from_wild_check CHECK ((is_from_wild = ANY (ARRAY['N'::bpchar, 'Y'::bpchar, 'U'::bpchar]))),
    CONSTRAINT plant_is_plus_check CHECK ((is_plus = ANY (ARRAY['N'::bpchar, 'Y'::bpchar, 'U'::bpchar]))),
    CONSTRAINT plant_is_variety_check CHECK ((is_variety = ANY (ARRAY['N'::bpchar, 'Y'::bpchar, 'U'::bpchar]))),
    CONSTRAINT plant_sex_mfbu_check CHECK ((sex_mfbu = ANY (ARRAY['U'::bpchar, 'M'::bpchar, 'F'::bpchar, 'B'::bpchar])))
);


ALTER TABLE public.plant OWNER TO dad;

--
-- Name: taxa; Type: TABLE; Schema: public; Owner: dad; Tablespace: 
--

CREATE TABLE taxa (
    taxa_key character varying(20),
    id integer NOT NULL,
    notes character varying DEFAULT '0'::character varying NOT NULL,
    species character varying DEFAULT '0'::character varying NOT NULL,
    species_hybrid character varying DEFAULT '0'::character varying NOT NULL,
    common_name character varying DEFAULT '0'::character varying NOT NULL,
    binomial_name character varying DEFAULT '0'::character varying NOT NULL,
    kingdom character varying DEFAULT '0'::character varying NOT NULL,
    family character varying DEFAULT '0'::character varying NOT NULL,
    genus character varying DEFAULT '0'::character varying NOT NULL,
    web_photos character varying DEFAULT '0'::character varying NOT NULL,
    web_url character varying DEFAULT '0'::character varying NOT NULL,
    CONSTRAINT taxa_check CHECK ((((species)::text = '0'::text) OR ((species_hybrid)::text = '0'::text)))
);


ALTER TABLE public.taxa OWNER TO dad;

--
-- Name: avw_family; Type: VIEW; Schema: public; Owner: dad
--

CREATE VIEW avw_family AS
 SELECT f.family_key,
    f.id,
    f.notes,
    p1.plant_key AS female_parent,
    p2.plant_key AS male_parent,
    f.seed_notes,
    f.form_fnmwu,
    f.is_plus,
    f.is_root,
    f.seeds_in_storage,
    f.ploidy_n,
    f.seed_germ_percent,
    f.seed_germ_date,
    f.cross_date,
    t.taxa_key,
    f.web_photos,
    f.web_url
   FROM family f,
    taxa t,
    plant p1,
    plant p2
  WHERE (((f.id_taxa = t.id) AND (f.female_plant_id = p1.id)) AND (f.male_plant_id = p2.id));


ALTER TABLE public.avw_family OWNER TO dad;

--
-- Name: field_trial; Type: TABLE; Schema: public; Owner: dad; Tablespace: 
--

CREATE TABLE field_trial (
    field_trial_key character varying(50) DEFAULT '0'::character varying NOT NULL,
    id integer NOT NULL,
    notes character varying DEFAULT '0'::character varying NOT NULL,
    notes2 character varying DEFAULT '0'::character varying NOT NULL,
    notes3 character varying DEFAULT '0'::character varying NOT NULL,
    live_quantity numeric DEFAULT ((-1))::numeric NOT NULL,
    is_plus_ynu character(1) DEFAULT '0'::bpchar,
    live_dbh_cm numeric DEFAULT ((-1))::numeric NOT NULL,
    height_cm numeric DEFAULT ((-1))::numeric NOT NULL,
    leaf_score integer DEFAULT (-1) NOT NULL,
    canker_score integer DEFAULT (-1) NOT NULL,
    tree_spacing_ft character(4) DEFAULT 'U'::bpchar NOT NULL,
    id_test_spec integer NOT NULL,
    row_nbr numeric DEFAULT ((-1))::numeric NOT NULL,
    column_nbr numeric DEFAULT ((-1))::numeric NOT NULL,
    replication_nbr integer DEFAULT (-1) NOT NULL,
    plot_nbr integer DEFAULT (-1) NOT NULL,
    block_nbr integer DEFAULT (-1) NOT NULL,
    CONSTRAINT field_trial_canker_score_check CHECK ((canker_score < 6)),
    CONSTRAINT field_trial_is_plus_ynu_check CHECK ((is_plus_ynu = ANY (ARRAY['Y'::bpchar, 'N'::bpchar, 'U'::bpchar, '0'::bpchar]))),
    CONSTRAINT field_trial_leaf_score_check CHECK ((leaf_score < 6)),
    CONSTRAINT field_trial_tree_spacing_ft_check CHECK ((tree_spacing_ft = ANY (ARRAY['U'::bpchar, 'NA'::bpchar, 'MIX'::bpchar, '4x4'::bpchar, '4x6'::bpchar, '8x7'::bpchar, '8x8'::bpchar, '9x9'::bpchar, '8x10'::bpchar])))
);


ALTER TABLE public.field_trial OWNER TO dad;

--
-- Name: test_spec; Type: TABLE; Schema: public; Owner: dad; Tablespace: 
--

CREATE TABLE test_spec (
    test_spec_key character varying(50) NOT NULL,
    id integer NOT NULL,
    notes character varying DEFAULT '0'::character varying NOT NULL,
    activity_type character varying(5) DEFAULT '0'::character varying NOT NULL,
    test_type character varying(20) DEFAULT '0'::character varying NOT NULL,
    stock_type character(6) DEFAULT 'U'::bpchar NOT NULL,
    stock_length_cm numeric DEFAULT ((-1))::numeric NOT NULL,
    stock_collar_dia_mm numeric DEFAULT ((-1))::numeric NOT NULL,
    research_hypothesis character varying DEFAULT '0'::character varying NOT NULL,
    web_protocol character varying DEFAULT '0'::character varying NOT NULL,
    web_url character varying DEFAULT '0'::character varying NOT NULL,
    web_photos character varying DEFAULT '0'::character varying NOT NULL,
    test_start_date date DEFAULT '1111-11-11'::date NOT NULL,
    id_site integer NOT NULL,
    CONSTRAINT test_spec_activity_type_check CHECK (((activity_type)::text = ANY (ARRAY[('0'::character varying)::text, ('TRIAL'::character varying)::text, ('EVENT'::character varying)::text]))),
    CONSTRAINT test_spec_stock_type_check CHECK ((stock_type = ANY (ARRAY['U'::bpchar, 'NA'::bpchar, 'MIX'::bpchar, 'WHIP'::bpchar, 'WASP'::bpchar, 'DC'::bpchar, 'MS'::bpchar, 'SEL'::bpchar, '1-0'::bpchar, '1-1'::bpchar, '1-2'::bpchar]))),
    CONSTRAINT test_spec_test_type_check CHECK (((test_type)::text = ANY (ARRAY[('0'::character varying)::text, ('nursery'::character varying)::text, ('breeding'::character varying)::text, ('propagation'::character varying)::text, ('archive-planting'::character varying)::text, ('family-trial'::character varying)::text, ('clonal-trial'::character varying)::text])))
);


ALTER TABLE public.test_spec OWNER TO dad;

--
-- Name: avw_field_trial; Type: VIEW; Schema: public; Owner: dad
--

CREATE VIEW avw_field_trial AS
 SELECT ft.field_trial_key,
    ft.id,
    ft.notes,
    ft.notes2,
    ft.notes3,
    ft.live_quantity,
    ft.is_plus_ynu,
    ft.live_dbh_cm,
    ft.height_cm,
    ft.leaf_score,
    ft.canker_score,
    ts.test_type,
    ts.stock_type,
    ts.stock_length_cm,
    ts.stock_collar_dia_mm,
    ft.tree_spacing_ft,
    ts.test_spec_key,
    ft.row_nbr,
    ft.column_nbr,
    ft.replication_nbr,
    ft.plot_nbr,
    ft.block_nbr
   FROM field_trial ft,
    test_spec ts
  WHERE (ft.id_test_spec = ts.id);


ALTER TABLE public.avw_field_trial OWNER TO dad;

--
-- Name: journal; Type: TABLE; Schema: public; Owner: dad; Tablespace: 
--

CREATE TABLE journal (
    journal_key character varying(50) DEFAULT '0'::character varying NOT NULL,
    id integer NOT NULL,
    notes character varying DEFAULT '0'::character varying NOT NULL,
    author character varying(50) DEFAULT '0'::character varying NOT NULL,
    id_plant integer NOT NULL,
    id_family integer NOT NULL,
    id_test_spec integer NOT NULL,
    id_site integer NOT NULL,
    date date DEFAULT '1111-11-11'::date NOT NULL,
    web_url character varying DEFAULT '0'::character varying NOT NULL
);


ALTER TABLE public.journal OWNER TO dad;

--
-- Name: site; Type: TABLE; Schema: public; Owner: dad; Tablespace: 
--

CREATE TABLE site (
    site_key character varying(50) NOT NULL,
    id integer NOT NULL,
    location_code character varying(5) NOT NULL,
    name_long character varying DEFAULT '0'::character varying NOT NULL,
    notes character varying DEFAULT '0'::character varying NOT NULL,
    address character varying DEFAULT '0'::character varying NOT NULL,
    loc_lat character varying DEFAULT '0'::character varying NOT NULL,
    loc_long character varying DEFAULT '0'::character varying NOT NULL,
    elevation_ft numeric DEFAULT (0)::numeric NOT NULL,
    aspen_site_index character varying DEFAULT '0'::character varying NOT NULL,
    usda_soil_texture character varying DEFAULT '0'::character varying NOT NULL,
    drainage_class_usda character varying(3) DEFAULT 'U'::character varying NOT NULL,
    mean_annual_precip_in numeric DEFAULT (0)::numeric NOT NULL,
    mean_annual_temp_f numeric DEFAULT (0)::numeric NOT NULL,
    frost_free_period_days numeric DEFAULT (0)::numeric NOT NULL,
    depth_to_water_table_in numeric DEFAULT (0)::numeric NOT NULL,
    usda_map_url character varying DEFAULT '0'::character varying NOT NULL,
    web_url character varying DEFAULT '0'::character varying NOT NULL,
    web_photos character varying DEFAULT '0'::character varying NOT NULL,
    contact character varying DEFAULT '0'::character varying NOT NULL,
    CONSTRAINT site_drainage_class_usda_check CHECK (((drainage_class_usda)::text = ANY (ARRAY[('U'::character varying)::text, ('VPD'::character varying)::text, ('PD'::character varying)::text, ('SPD'::character varying)::text, ('MWD'::character varying)::text, ('WD'::character varying)::text, ('SED'::character varying)::text, ('ED'::character varying)::text])))
);


ALTER TABLE public.site OWNER TO dad;

--
-- Name: avw_journal; Type: VIEW; Schema: public; Owner: dad
--

CREATE VIEW avw_journal AS
 SELECT j.journal_key,
    j.id,
    j.notes,
    j.author,
    p.plant_key,
    f.family_key,
    ts.test_spec_key,
    s.site_key,
    j.date,
    j.web_url
   FROM journal j,
    site s,
    plant p,
    family f,
    test_spec ts
  WHERE ((((j.id_test_spec = ts.id) AND (j.id_site = s.id)) AND (j.id_plant = p.id)) AND (j.id_family = f.id));


ALTER TABLE public.avw_journal OWNER TO dad;

--
-- Name: avw_plant; Type: VIEW; Schema: public; Owner: dad
--

CREATE VIEW avw_plant AS
 SELECT p.plant_key,
    p.id,
    p.notes,
    p.sex_mfbu,
    p.published_botanical_name,
    p.common_name,
    p.alternate_name,
    p.aquired_from,
    p.female_external_parent,
    p.male_external_parent,
    p.form_fnmwu,
    p.is_plus,
    p.is_cultivar,
    p.is_variety,
    p.is_from_wild,
    p.ploidy_n,
    p.date_aquired,
    t.taxa_key,
    f.family_key,
    p.web_photos,
    p.web_url
   FROM plant p,
    taxa t,
    family f
  WHERE ((p.id_taxa = t.id) AND (p.id_family = f.id))
  ORDER BY p.id;


ALTER TABLE public.avw_plant OWNER TO dad;

--
-- Name: avw_site; Type: VIEW; Schema: public; Owner: dad
--

CREATE VIEW avw_site AS
 SELECT site.site_key,
    site.id,
    site.location_code,
    site.name_long,
    site.notes,
    site.address,
    site.loc_lat,
    site.loc_long,
    site.elevation_ft,
    site.aspen_site_index,
    site.usda_soil_texture,
    site.drainage_class_usda,
    site.mean_annual_precip_in,
    site.mean_annual_temp_f,
    site.frost_free_period_days,
    site.depth_to_water_table_in,
    site.usda_map_url,
    site.web_url,
    site.web_photos,
    site.contact
   FROM site
  ORDER BY site.id;


ALTER TABLE public.avw_site OWNER TO dad;

--
-- Name: avw_taxa; Type: VIEW; Schema: public; Owner: dad
--

CREATE VIEW avw_taxa AS
 SELECT taxa.taxa_key,
    taxa.id,
    taxa.notes,
    taxa.species,
    taxa.species_hybrid,
    taxa.common_name,
    taxa.binomial_name,
    taxa.kingdom,
    taxa.family,
    taxa.genus,
    taxa.web_photos,
    taxa.web_url
   FROM taxa
  ORDER BY taxa.id;


ALTER TABLE public.avw_taxa OWNER TO dad;

--
-- Name: test_detail; Type: TABLE; Schema: public; Owner: dad; Tablespace: 
--

CREATE TABLE test_detail (
    test_detail_key character varying(50) DEFAULT '0'::character varying NOT NULL,
    id integer NOT NULL,
    notes character varying DEFAULT '0'::character varying NOT NULL,
    notes2 character varying DEFAULT '0'::character varying NOT NULL,
    notes3 character varying DEFAULT '0'::character varying NOT NULL,
    start_quantity numeric DEFAULT ((-1))::numeric NOT NULL,
    end_quantity numeric DEFAULT ((-1))::numeric NOT NULL,
    this_start_date date DEFAULT '1111-11-11'::date NOT NULL,
    score_date date DEFAULT '1111-11-11'::date NOT NULL,
    stock_type character(6) DEFAULT 'U'::bpchar NOT NULL,
    stock_length_cm numeric DEFAULT ((-1))::numeric NOT NULL,
    stock_dia_mm numeric DEFAULT ((-1))::numeric NOT NULL,
    is_plus_ynu character(1) DEFAULT '0'::bpchar,
    collar_median_dia_mm numeric DEFAULT ((-1))::numeric NOT NULL,
    collar_1_1_median_dia numeric DEFAULT ((-1))::numeric NOT NULL,
    stool_collar_median_dia_mm numeric DEFAULT ((-1))::numeric NOT NULL,
    field_cuttings_ft numeric DEFAULT ((-1))::numeric NOT NULL,
    height_cm numeric DEFAULT ((-1))::numeric NOT NULL,
    leaf_score integer DEFAULT (-1) NOT NULL,
    id_plant integer NOT NULL,
    id_family integer NOT NULL,
    id_test_spec integer NOT NULL,
    row_nbr numeric DEFAULT ((-1))::numeric NOT NULL,
    column_nbr numeric DEFAULT ((-1))::numeric NOT NULL,
    replication_nbr integer DEFAULT (-1) NOT NULL,
    plot_nbr integer DEFAULT (-1) NOT NULL,
    block_nbr integer DEFAULT (-1) NOT NULL,
    CONSTRAINT test_detail_is_plus_ynu_check CHECK ((is_plus_ynu = ANY (ARRAY['Y'::bpchar, 'N'::bpchar, 'U'::bpchar, '0'::bpchar]))),
    CONSTRAINT test_detail_leaf_score_check CHECK ((leaf_score < 6)),
    CONSTRAINT test_detail_stock_type_check CHECK ((stock_type = ANY (ARRAY['U'::bpchar, 'ASP'::bpchar, 'SASP'::bpchar, 'WASP'::bpchar, 'SCP'::bpchar, 'DC'::bpchar, 'ODC'::bpchar, 'FDC'::bpchar, 'MS'::bpchar, 'RS'::bpchar, 'SE'::bpchar, 'SEL'::bpchar, '1-0'::bpchar, '1-1'::bpchar, '1-2'::bpchar])))
);


ALTER TABLE public.test_detail OWNER TO dad;

--
-- Name: avw_test_detail; Type: VIEW; Schema: public; Owner: dad
--

CREATE VIEW avw_test_detail AS
 SELECT td.test_detail_key,
    td.id,
    td.notes,
    td.notes2,
    td.notes3,
    td.start_quantity,
    td.end_quantity,
    td.this_start_date,
    td.score_date,
    td.stock_type,
    td.stock_length_cm,
    td.stock_dia_mm,
    td.is_plus_ynu,
    td.collar_median_dia_mm,
    td.stool_collar_median_dia_mm,
    td.field_cuttings_ft,
    td.height_cm,
    td.leaf_score,
    p.plant_key,
    f.family_key,
    ts.test_spec_key,
    td.row_nbr,
    td.column_nbr,
    td.replication_nbr,
    td.plot_nbr,
    td.block_nbr
   FROM test_detail td,
    test_spec ts,
    family f,
    plant p
  WHERE (((td.id_test_spec = ts.id) AND (td.id_plant = p.id)) AND (td.id_family = f.id));


ALTER TABLE public.avw_test_detail OWNER TO dad;

--
-- Name: avw_test_spec; Type: VIEW; Schema: public; Owner: dad
--

CREATE VIEW avw_test_spec AS
 SELECT ts.test_spec_key,
    ts.id,
    ts.notes,
    ts.activity_type,
    ts.test_type,
    ts.stock_type,
    ts.stock_length_cm,
    ts.stock_collar_dia_mm,
    ts.research_hypothesis,
    ts.web_protocol,
    ts.web_url,
    ts.web_photos,
    ts.test_start_date,
    s.site_key
   FROM test_spec ts,
    site s
  WHERE (ts.id_site = s.id);


ALTER TABLE public.avw_test_spec OWNER TO dad;

--
-- Name: family_id_seq; Type: SEQUENCE; Schema: public; Owner: dad
--

CREATE SEQUENCE family_id_seq
    START WITH 1
    INCREMENT BY 1
    NO MINVALUE
    NO MAXVALUE
    CACHE 1;


ALTER TABLE public.family_id_seq OWNER TO dad;

--
-- Name: family_id_seq; Type: SEQUENCE OWNED BY; Schema: public; Owner: dad
--

ALTER SEQUENCE family_id_seq OWNED BY family.id;


--
-- Name: field_trial_id_seq; Type: SEQUENCE; Schema: public; Owner: dad
--

CREATE SEQUENCE field_trial_id_seq
    START WITH 1
    INCREMENT BY 1
    NO MINVALUE
    NO MAXVALUE
    CACHE 1;


ALTER TABLE public.field_trial_id_seq OWNER TO dad;

--
-- Name: field_trial_id_seq; Type: SEQUENCE OWNED BY; Schema: public; Owner: dad
--

ALTER SEQUENCE field_trial_id_seq OWNED BY field_trial.id;


--
-- Name: journal_id_seq; Type: SEQUENCE; Schema: public; Owner: dad
--

CREATE SEQUENCE journal_id_seq
    START WITH 1
    INCREMENT BY 1
    NO MINVALUE
    NO MAXVALUE
    CACHE 1;


ALTER TABLE public.journal_id_seq OWNER TO dad;

--
-- Name: journal_id_seq; Type: SEQUENCE OWNED BY; Schema: public; Owner: dad
--

ALTER SEQUENCE journal_id_seq OWNED BY journal.id;


--
-- Name: pedigree; Type: TABLE; Schema: public; Owner: dad; Tablespace: 
--

CREATE TABLE pedigree (
    id integer NOT NULL,
    pedigree_key character varying NOT NULL,
    path character varying NOT NULL
);


ALTER TABLE public.pedigree OWNER TO dad;

--
-- Name: pedigree_id_seq; Type: SEQUENCE; Schema: public; Owner: dad
--

CREATE SEQUENCE pedigree_id_seq
    START WITH 1
    INCREMENT BY 1
    NO MINVALUE
    NO MAXVALUE
    CACHE 1;


ALTER TABLE public.pedigree_id_seq OWNER TO dad;

--
-- Name: pedigree_id_seq; Type: SEQUENCE OWNED BY; Schema: public; Owner: dad
--

ALTER SEQUENCE pedigree_id_seq OWNED BY pedigree.id;


--
-- Name: plant_id_seq; Type: SEQUENCE; Schema: public; Owner: dad
--

CREATE SEQUENCE plant_id_seq
    START WITH 1
    INCREMENT BY 1
    NO MINVALUE
    NO MAXVALUE
    CACHE 1;


ALTER TABLE public.plant_id_seq OWNER TO dad;

--
-- Name: plant_id_seq; Type: SEQUENCE OWNED BY; Schema: public; Owner: dad
--

ALTER SEQUENCE plant_id_seq OWNED BY plant.id;


--
-- Name: site_id_seq; Type: SEQUENCE; Schema: public; Owner: dad
--

CREATE SEQUENCE site_id_seq
    START WITH 1
    INCREMENT BY 1
    NO MINVALUE
    NO MAXVALUE
    CACHE 1;


ALTER TABLE public.site_id_seq OWNER TO dad;

--
-- Name: site_id_seq; Type: SEQUENCE OWNED BY; Schema: public; Owner: dad
--

ALTER SEQUENCE site_id_seq OWNED BY site.id;


--
-- Name: taxa_id_seq; Type: SEQUENCE; Schema: public; Owner: dad
--

CREATE SEQUENCE taxa_id_seq
    START WITH 1
    INCREMENT BY 1
    NO MINVALUE
    NO MAXVALUE
    CACHE 1;


ALTER TABLE public.taxa_id_seq OWNER TO dad;

--
-- Name: taxa_id_seq; Type: SEQUENCE OWNED BY; Schema: public; Owner: dad
--

ALTER SEQUENCE taxa_id_seq OWNED BY taxa.id;


--
-- Name: test_detail_id_seq; Type: SEQUENCE; Schema: public; Owner: dad
--

CREATE SEQUENCE test_detail_id_seq
    START WITH 1
    INCREMENT BY 1
    NO MINVALUE
    NO MAXVALUE
    CACHE 1;


ALTER TABLE public.test_detail_id_seq OWNER TO dad;

--
-- Name: test_detail_id_seq; Type: SEQUENCE OWNED BY; Schema: public; Owner: dad
--

ALTER SEQUENCE test_detail_id_seq OWNED BY test_detail.id;


--
-- Name: test_spec_id_seq; Type: SEQUENCE; Schema: public; Owner: dad
--

CREATE SEQUENCE test_spec_id_seq
    START WITH 1
    INCREMENT BY 1
    NO MINVALUE
    NO MAXVALUE
    CACHE 1;


ALTER TABLE public.test_spec_id_seq OWNER TO dad;

--
-- Name: test_spec_id_seq; Type: SEQUENCE OWNED BY; Schema: public; Owner: dad
--

ALTER SEQUENCE test_spec_id_seq OWNED BY test_spec.id;


--
-- Name: u07m_2013; Type: TABLE; Schema: public; Owner: dad; Tablespace: 
--

CREATE TABLE u07m_2013 (
    id integer NOT NULL,
    dbh numeric NOT NULL,
    dbh_rank integer NOT NULL,
    name character varying NOT NULL,
    area_index numeric NOT NULL,
    sum_dbh_ratio2_cd numeric NOT NULL,
    sdbh_x_cavg numeric NOT NULL
);


ALTER TABLE public.u07m_2013 OWNER TO dad;

--
-- Name: u07m_2013_id_seq; Type: SEQUENCE; Schema: public; Owner: dad
--

CREATE SEQUENCE u07m_2013_id_seq
    START WITH 1
    INCREMENT BY 1
    NO MINVALUE
    NO MAXVALUE
    CACHE 1;


ALTER TABLE public.u07m_2013_id_seq OWNER TO dad;

--
-- Name: u07m_2013_id_seq; Type: SEQUENCE OWNED BY; Schema: public; Owner: dad
--

ALTER SEQUENCE u07m_2013_id_seq OWNED BY u07m_2013.id;


--
-- Name: va1_master_test_detail; Type: VIEW; Schema: public; Owner: dad
--

CREATE VIEW va1_master_test_detail AS
 SELECT td.test_detail_key,
    td.id,
    td.notes,
    td.notes2,
    td.notes3,
    td.stock_type,
    td.start_quantity,
    td.end_quantity,
    td.height_cm,
    td.stock_length_cm,
    td.collar_median_dia_mm,
    td.stool_collar_median_dia_mm,
    td.field_cuttings_ft,
    trunc((td.end_quantity / td.start_quantity), 2) AS survival_rate,
    (trunc((td.end_quantity / td.start_quantity), 2) * td.collar_median_dia_mm) AS vigor_survival,
    (trunc((td.end_quantity / td.start_quantity), 2) * td.stool_collar_median_dia_mm) AS stool_vigor_survival,
    td.is_plus_ynu,
        CASE
            WHEN (td.is_plus_ynu = 'Y'::bpchar) THEN 1
            ELSE 0
        END AS is_plus_tree,
    ts.test_spec_key,
    ts.test_type,
    td.row_nbr,
    td.column_nbr,
    td.replication_nbr,
    date_part('isoyear'::text, td.this_start_date) AS year
   FROM test_detail td,
    test_spec ts
  WHERE ((lower((td.notes)::text) !~~ lower('%willow%'::text)) AND (td.id_test_spec = ts.id))
  ORDER BY (trunc((td.end_quantity / td.start_quantity), 2) * td.collar_median_dia_mm) DESC;


ALTER TABLE public.va1_master_test_detail OWNER TO dad;

--
-- Name: va2_nursery_stocktype_test_detail; Type: VIEW; Schema: public; Owner: dad
--

CREATE VIEW va2_nursery_stocktype_test_detail AS
 SELECT va1_master_test_detail.test_detail_key,
    va1_master_test_detail.stock_type,
    count(va1_master_test_detail.replication_nbr) AS nbr_of_replications,
    sum(va1_master_test_detail.start_quantity) AS sum_of_start_qty,
    sum(va1_master_test_detail.end_quantity) AS sum_of_end_qty,
    sum(va1_master_test_detail.is_plus_tree) AS sum_of_plus_trees,
    count(DISTINCT va1_master_test_detail.year) AS nbr_of_years,
    trunc(avg(va1_master_test_detail.survival_rate), 2) AS avg_survival_rate,
    trunc(avg(va1_master_test_detail.height_cm), 2) AS avg_heigth_cm,
    trunc(avg(va1_master_test_detail.collar_median_dia_mm), 2) AS avg_collar_median_dia_mm,
    trunc(avg(va1_master_test_detail.stool_collar_median_dia_mm), 2) AS avg_stool_collar_mm,
    sum(va1_master_test_detail.field_cuttings_ft) AS sum_of_field_cuttings_ft,
    trunc(avg(va1_master_test_detail.field_cuttings_ft), 2) AS avg_field_cuttings_ft,
    trunc(avg(va1_master_test_detail.stool_vigor_survival), 2) AS avg_stool_vigor_survival,
        CASE
            WHEN (trunc(avg(va1_master_test_detail.vigor_survival), 2) > (0)::numeric) THEN trunc(avg(va1_master_test_detail.vigor_survival), 2)
            ELSE (0)::numeric
        END AS avg_vigor_survival,
    (trunc(avg(va1_master_test_detail.vigor_survival), 2) + (sum(va1_master_test_detail.is_plus_tree))::numeric) AS vigorsurvival_plus_plustrees,
    (trunc(avg(va1_master_test_detail.stool_vigor_survival), 2) + trunc(avg(va1_master_test_detail.field_cuttings_ft), 2)) AS stoolvs_plus_fcuttings,
    (trunc(avg(va1_master_test_detail.vigor_survival), 2) + trunc(avg(va1_master_test_detail.field_cuttings_ft), 2)) AS vigorsurvival_plus_fcuttings
   FROM va1_master_test_detail
  WHERE ((va1_master_test_detail.test_type)::text = 'nursery'::text)
  GROUP BY va1_master_test_detail.test_detail_key, va1_master_test_detail.stock_type
  ORDER BY (trunc(avg(va1_master_test_detail.vigor_survival), 2) + trunc(avg(va1_master_test_detail.field_cuttings_ft), 2)) DESC;


ALTER TABLE public.va2_nursery_stocktype_test_detail OWNER TO dad;

--
-- Name: va3_nursery_summary_test_detail; Type: VIEW; Schema: public; Owner: dad
--

CREATE VIEW va3_nursery_summary_test_detail AS
 SELECT va1_master_test_detail.test_detail_key,
    count(va1_master_test_detail.replication_nbr) AS nbr_of_replications,
    count(DISTINCT va1_master_test_detail.stock_type) AS nbr_of_stock_types,
    count(DISTINCT va1_master_test_detail.year) AS nbr_of_years,
    sum(va1_master_test_detail.start_quantity) AS sum_of_start_qty,
    sum(va1_master_test_detail.end_quantity) AS sum_of_end_qty,
    sum(va1_master_test_detail.is_plus_tree) AS sum_of_plus_trees,
    trunc(avg(va1_master_test_detail.survival_rate), 2) AS avg_survival_rate,
    trunc(avg(va1_master_test_detail.height_cm), 2) AS avg_heigth_cm,
    trunc(avg(va1_master_test_detail.collar_median_dia_mm), 2) AS avg_collar_median_dia_mm,
    trunc(avg(va1_master_test_detail.stool_collar_median_dia_mm), 2) AS avg_stool_collar_mm,
    sum(va1_master_test_detail.field_cuttings_ft) AS sum_of_field_cuttings_ft,
    trunc(avg(va1_master_test_detail.field_cuttings_ft), 2) AS avg_field_cuttings_ft,
    trunc(avg(va1_master_test_detail.stool_vigor_survival), 2) AS avg_stool_vigor_survival,
        CASE
            WHEN (trunc(avg(va1_master_test_detail.vigor_survival), 2) > (0)::numeric) THEN trunc(avg(va1_master_test_detail.vigor_survival), 2)
            ELSE (0)::numeric
        END AS avg_vigor_survival,
    (trunc(avg(va1_master_test_detail.vigor_survival), 2) + (sum(va1_master_test_detail.is_plus_tree))::numeric) AS vigorsurvival_plus_plustrees,
    (trunc(avg(va1_master_test_detail.stool_vigor_survival), 2) + trunc(avg(va1_master_test_detail.field_cuttings_ft), 2)) AS stoolvs_plus_fcuttings,
    (trunc(avg(va1_master_test_detail.vigor_survival), 2) + trunc(avg(va1_master_test_detail.field_cuttings_ft), 2)) AS vigorsurvival_plus_fcuttings
   FROM va1_master_test_detail
  WHERE ((va1_master_test_detail.test_type)::text = 'nursery'::text)
  GROUP BY va1_master_test_detail.test_detail_key
  ORDER BY (trunc(avg(va1_master_test_detail.vigor_survival), 2) + trunc(avg(va1_master_test_detail.field_cuttings_ft), 2)) DESC;


ALTER TABLE public.va3_nursery_summary_test_detail OWNER TO dad;

--
-- Name: vw_2016_1_nursery; Type: VIEW; Schema: public; Owner: dad
--

CREATE VIEW vw_2016_1_nursery AS
 SELECT td.test_detail_key,
    td.id,
    td.notes,
    td.notes2 AS stock_2017,
    td.notes3 AS rank_class,
    td.stock_type,
    td.start_quantity,
    td.end_quantity,
    td.field_cuttings_ft,
    td.collar_median_dia_mm,
    td.stool_collar_median_dia_mm,
    trunc((td.end_quantity / td.start_quantity), 2) AS survival_rate,
    (trunc((td.end_quantity / td.start_quantity), 2) * td.collar_median_dia_mm) AS vigor_survival,
    (trunc((td.end_quantity / td.start_quantity), 2) * td.stool_collar_median_dia_mm) AS stool_vigor_survival,
    td.is_plus_ynu,
        CASE
            WHEN (td.is_plus_ynu = 'Y'::bpchar) THEN 1
            ELSE 0
        END AS is_plus_tree,
    td.row_nbr,
    td.column_nbr,
    td.replication_nbr
   FROM test_detail td,
    test_spec ts
  WHERE (((lower((td.notes)::text) !~~ lower('%willow%'::text)) AND (td.id_test_spec = ts.id)) AND ((ts.test_spec_key)::text = '2016-bell-nursery'::text))
  ORDER BY (trunc((td.end_quantity / td.start_quantity), 2) * td.collar_median_dia_mm) DESC;


ALTER TABLE public.vw_2016_1_nursery OWNER TO dad;

--
-- Name: vw_2016_2_nursery_key_stock_summary; Type: VIEW; Schema: public; Owner: dad
--

CREATE VIEW vw_2016_2_nursery_key_stock_summary AS
 SELECT DISTINCT vw_2016_1_nursery.test_detail_key,
    vw_2016_1_nursery.stock_type,
    min(vw_2016_1_nursery.id) AS id_order,
    min((vw_2016_1_nursery.rank_class)::text) AS rank_class,
        CASE
            WHEN (min((vw_2016_1_nursery.rank_class)::text) ~~ '%~%'::text) THEN 'Primary - Elite'::text
            WHEN (min((vw_2016_1_nursery.rank_class)::text) ~~ '%#%'::text) THEN 'Secondary - Archive'::text
            WHEN (min((vw_2016_1_nursery.rank_class)::text) ~~ '%@%'::text) THEN 'Tertiary - Parent'::text
            WHEN (min((vw_2016_1_nursery.rank_class)::text) ~~ '%?%'::text) THEN 'Families - Re-test'::text
            ELSE 'Discard'::text
        END AS selection_type,
    min((vw_2016_1_nursery.stock_2017)::text) AS stock_2017,
    count(vw_2016_1_nursery.replication_nbr) AS nbr_of_replications,
    sum(vw_2016_1_nursery.start_quantity) AS sum_of_start_qty,
    sum(vw_2016_1_nursery.end_quantity) AS sum_of_end_qty,
    sum(vw_2016_1_nursery.field_cuttings_ft) AS sum_field_cuttings,
    sum(vw_2016_1_nursery.is_plus_tree) AS sum_of_plus_trees,
    trunc(avg(vw_2016_1_nursery.survival_rate), 2) AS avg_survival_rate,
    trunc(avg(vw_2016_1_nursery.collar_median_dia_mm), 2) AS avg_collar_median_dia_mm,
    trunc(avg(vw_2016_1_nursery.stool_collar_median_dia_mm), 2) AS avg_stool_collar_mm,
    trunc(((avg(vw_2016_1_nursery.stool_vigor_survival) + avg(vw_2016_1_nursery.vigor_survival)) + (avg(vw_2016_1_nursery.field_cuttings_ft) * ((count(vw_2016_1_nursery.replication_nbr))::numeric * 0.1))), 2) AS stools_cut_fcut_reps,
    trunc((avg(vw_2016_1_nursery.vigor_survival) + (avg(vw_2016_1_nursery.field_cuttings_ft) * ((count(vw_2016_1_nursery.replication_nbr))::numeric * 0.1))), 2) AS cut_fcut_reps
   FROM vw_2016_1_nursery
  GROUP BY vw_2016_1_nursery.test_detail_key, vw_2016_1_nursery.stock_type
  ORDER BY trunc((avg(vw_2016_1_nursery.vigor_survival) + (avg(vw_2016_1_nursery.field_cuttings_ft) * ((count(vw_2016_1_nursery.replication_nbr))::numeric * 0.1))), 2) DESC;


ALTER TABLE public.vw_2016_2_nursery_key_stock_summary OWNER TO dad;

--
-- Name: vw_2016_3_nursery_stock_summary; Type: VIEW; Schema: public; Owner: dad
--

CREATE VIEW vw_2016_3_nursery_stock_summary AS
 SELECT vw_2016_2_nursery_key_stock_summary.stock_type,
    count(vw_2016_2_nursery_key_stock_summary.stock_type) AS stock_type_count,
    sum(vw_2016_2_nursery_key_stock_summary.sum_of_start_qty) AS planted_trees,
    sum(vw_2016_2_nursery_key_stock_summary.sum_of_end_qty) AS available_trees,
    sum(vw_2016_2_nursery_key_stock_summary.sum_field_cuttings) AS field_grade_cuttings,
    sum(vw_2016_2_nursery_key_stock_summary.sum_of_plus_trees) AS plus_trees,
    trunc(avg(vw_2016_2_nursery_key_stock_summary.avg_survival_rate), 2) AS avg_survival_rate,
        CASE
            WHEN (trunc(avg(vw_2016_2_nursery_key_stock_summary.avg_stool_collar_mm), 2) > (0)::numeric) THEN trunc(avg(vw_2016_2_nursery_key_stock_summary.avg_stool_collar_mm), 2)
            ELSE NULL::numeric
        END AS avg_stool_collar_median_dia_mm,
        CASE
            WHEN (trunc(avg(vw_2016_2_nursery_key_stock_summary.avg_collar_median_dia_mm), 2) > (0)::numeric) THEN trunc(avg(vw_2016_2_nursery_key_stock_summary.avg_collar_median_dia_mm), 2)
            ELSE NULL::numeric
        END AS avg_1_0_collar_median_dia_mm
   FROM vw_2016_2_nursery_key_stock_summary
  GROUP BY vw_2016_2_nursery_key_stock_summary.stock_type
  ORDER BY count(vw_2016_2_nursery_key_stock_summary.stock_type) DESC;


ALTER TABLE public.vw_2016_3_nursery_stock_summary OWNER TO dad;

--
-- Name: vw_2016_4_nursery_action_stock_summary; Type: VIEW; Schema: public; Owner: dad
--

CREATE VIEW vw_2016_4_nursery_action_stock_summary AS
 SELECT vw_2016_2_nursery_key_stock_summary.selection_type,
    vw_2016_2_nursery_key_stock_summary.stock_type,
    count(vw_2016_2_nursery_key_stock_summary.stock_type) AS stock_type_count,
    sum(vw_2016_2_nursery_key_stock_summary.sum_of_start_qty) AS planted_trees,
    sum(vw_2016_2_nursery_key_stock_summary.sum_of_end_qty) AS available_trees,
    sum(vw_2016_2_nursery_key_stock_summary.sum_field_cuttings) AS field_grade_cuttings,
    sum(vw_2016_2_nursery_key_stock_summary.sum_of_plus_trees) AS plus_trees,
    trunc(avg(vw_2016_2_nursery_key_stock_summary.avg_survival_rate), 2) AS avg_survival_rate,
        CASE
            WHEN (trunc(avg(vw_2016_2_nursery_key_stock_summary.avg_stool_collar_mm), 2) > (0)::numeric) THEN trunc(avg(vw_2016_2_nursery_key_stock_summary.avg_stool_collar_mm), 2)
            ELSE NULL::numeric
        END AS avg_stool_collar_median_dia_mm,
        CASE
            WHEN (trunc(avg(vw_2016_2_nursery_key_stock_summary.avg_collar_median_dia_mm), 2) > (0)::numeric) THEN trunc(avg(vw_2016_2_nursery_key_stock_summary.avg_collar_median_dia_mm), 2)
            ELSE NULL::numeric
        END AS avg_1_0_collar_median_dia_mm
   FROM vw_2016_2_nursery_key_stock_summary
  GROUP BY vw_2016_2_nursery_key_stock_summary.selection_type, vw_2016_2_nursery_key_stock_summary.stock_type
  ORDER BY vw_2016_2_nursery_key_stock_summary.selection_type DESC;


ALTER TABLE public.vw_2016_4_nursery_action_stock_summary OWNER TO dad;

--
-- Name: vw_2016_5_field_trial_summary; Type: VIEW; Schema: public; Owner: dad
--

CREATE VIEW vw_2016_5_field_trial_summary AS
 SELECT ft1.field_trial_key,
    sum(ft1.live_quantity) AS archived_trees
   FROM field_trial ft1
  WHERE (ft1.id_test_spec = 25)
  GROUP BY ft1.field_trial_key;


ALTER TABLE public.vw_2016_5_field_trial_summary OWNER TO dad;

--
-- Name: vw_2016_6_nursery_field_summary; Type: VIEW; Schema: public; Owner: dad
--

CREATE VIEW vw_2016_6_nursery_field_summary AS
 SELECT ss.test_detail_key,
    ss.stock_type,
    ss.id_order,
    ss.rank_class,
    ss.selection_type,
    ss.nbr_of_replications,
    ss.sum_of_start_qty,
    ss.sum_of_end_qty,
    ss.sum_field_cuttings,
    ss.sum_of_plus_trees,
    ss.avg_survival_rate,
    ss.avg_collar_median_dia_mm,
    ss.avg_stool_collar_mm,
    ss.stools_cut_fcut_reps,
    ss.cut_fcut_reps,
        CASE
            WHEN (ss.stock_type = 'MS'::bpchar) THEN dense_rank() OVER (ORDER BY ss.stools_cut_fcut_reps DESC)
            ELSE ((-1))::bigint
        END AS stool_rank,
        CASE
            WHEN (ss.stock_type = 'DC'::bpchar) THEN dense_rank() OVER (ORDER BY ss.cut_fcut_reps DESC)
            ELSE ((-1))::bigint
        END AS dc_rank,
        CASE
            WHEN (ft.archived_trees IS NULL) THEN (0)::numeric
            ELSE ft.archived_trees
        END AS archived_trees,
    regexp_replace(ss.rank_class, '^.*class='::text, ''::text) AS family_class,
        CASE
            WHEN (ss.stock_2017 = '0'::text) THEN '0'::text
            ELSE split_part(ss.stock_2017, ','::text, 1)
        END AS bell_cuttings_17,
        CASE
            WHEN (ss.stock_2017 = '0'::text) THEN '0'::text
            ELSE split_part(ss.stock_2017, ','::text, 2)
        END AS purdue_cuttings_17,
        CASE
            WHEN (ss.stock_2017 = '0'::text) THEN '0'::text
            ELSE split_part(ss.stock_2017, ','::text, 3)
        END AS dot_trees_17,
        CASE
            WHEN (ss.stock_2017 = '0'::text) THEN '0'::text
            ELSE split_part(ss.stock_2017, ','::text, 4)
        END AS misc_lg_trees_17,
        CASE
            WHEN (ss.stock_2017 = '0'::text) THEN '0'::text
            ELSE split_part(ss.stock_2017, ','::text, 5)
        END AS misc_sm_trees_17
   FROM (vw_2016_2_nursery_key_stock_summary ss
     LEFT JOIN ( SELECT vw_2016_5_field_trial_summary.field_trial_key,
            vw_2016_5_field_trial_summary.archived_trees
           FROM vw_2016_5_field_trial_summary) ft ON (((ss.test_detail_key)::text = (ft.field_trial_key)::text)))
  ORDER BY ss.cut_fcut_reps DESC;


ALTER TABLE public.vw_2016_6_nursery_field_summary OWNER TO dad;

--
-- Name: vw_2017_stock; Type: VIEW; Schema: public; Owner: dad
--

CREATE VIEW vw_2017_stock AS
 SELECT vw_2016_6_nursery_field_summary.test_detail_key,
    vw_2016_6_nursery_field_summary.rank_class,
    vw_2016_6_nursery_field_summary.selection_type,
    vw_2016_6_nursery_field_summary.nbr_of_replications,
    vw_2016_6_nursery_field_summary.sum_field_cuttings,
    vw_2016_6_nursery_field_summary.sum_of_plus_trees,
    vw_2016_6_nursery_field_summary.avg_survival_rate,
    vw_2016_6_nursery_field_summary.archived_trees,
    vw_2016_6_nursery_field_summary.dc_rank,
    vw_2016_6_nursery_field_summary.family_class,
    vw_2016_6_nursery_field_summary.bell_cuttings_17,
    vw_2016_6_nursery_field_summary.purdue_cuttings_17,
    vw_2016_6_nursery_field_summary.dot_trees_17,
    vw_2016_6_nursery_field_summary.misc_lg_trees_17,
    vw_2016_6_nursery_field_summary.misc_sm_trees_17
   FROM vw_2016_6_nursery_field_summary
  WHERE ((vw_2016_6_nursery_field_summary.stock_type = ANY (ARRAY['DC'::bpchar, 'FDC'::bpchar, 'SEL'::bpchar])) AND (vw_2016_6_nursery_field_summary.rank_class <> '0'::text))
  ORDER BY vw_2016_6_nursery_field_summary.dc_rank;


ALTER TABLE public.vw_2017_stock OWNER TO dad;

--
-- Name: vw_2017_stock_summary; Type: VIEW; Schema: public; Owner: dad
--

CREATE VIEW vw_2017_stock_summary AS
 SELECT vw_2017_stock.selection_type,
    count(vw_2017_stock.test_detail_key) AS key_count,
    trunc(avg(vw_2017_stock.nbr_of_replications), 2) AS avg_replications,
    trunc(avg(vw_2017_stock.sum_field_cuttings), 2) AS avg_field_cuttings,
    trunc(avg(vw_2017_stock.avg_survival_rate), 2) AS avg_survival_rate,
    sum(vw_2017_stock.archived_trees) AS sum_archived_trees,
    sum((vw_2017_stock.bell_cuttings_17)::integer) AS sum_bell_cuttings_17,
    sum((vw_2017_stock.purdue_cuttings_17)::integer) AS purdue_cuttings_17,
    sum((vw_2017_stock.dot_trees_17)::integer) AS dot_trees_17,
    sum((vw_2017_stock.misc_lg_trees_17)::integer) AS misc_lg_trees_17,
    sum((vw_2017_stock.misc_sm_trees_17)::integer) AS misc_sm_trees_17
   FROM vw_2017_stock
  GROUP BY vw_2017_stock.selection_type
  ORDER BY sum(vw_2017_stock.archived_trees) DESC;


ALTER TABLE public.vw_2017_stock_summary OWNER TO dad;

--
-- Name: vw_u07m_2013; Type: VIEW; Schema: public; Owner: dad
--

CREATE VIEW vw_u07m_2013 AS
 SELECT u07m_2013.name,
    count(
        CASE
            WHEN (u07m_2013.dbh > (0)::numeric) THEN u07m_2013.dbh
            ELSE NULL::numeric
        END) AS count_live_trees,
    round(avg(u07m_2013.dbh_rank), 2) AS avg_dbh_rank,
    round(avg(u07m_2013.area_index), 2) AS avg_area_index,
    round(avg(u07m_2013.sum_dbh_ratio2_cd), 2) AS avg_dbh_ratio2_cd,
    round(avg(u07m_2013.sdbh_x_cavg), 2) AS avg_sdbh_x_cavg,
    round(stddev(u07m_2013.dbh_rank), 2) AS stdev_dbh_rank,
    round(stddev(u07m_2013.area_index), 2) AS stdev_area_index,
    round(stddev(u07m_2013.sum_dbh_ratio2_cd), 2) AS stev_dbh_ratio2_cd,
    round(stddev(u07m_2013.sdbh_x_cavg), 2) AS stdev_sdbh_x_cavg
   FROM u07m_2013
  GROUP BY u07m_2013.name
  ORDER BY avg(u07m_2013.sdbh_x_cavg) DESC;


ALTER TABLE public.vw_u07m_2013 OWNER TO dad;

--
-- Name: id; Type: DEFAULT; Schema: public; Owner: dad
--

ALTER TABLE ONLY family ALTER COLUMN id SET DEFAULT nextval('family_id_seq'::regclass);


--
-- Name: id; Type: DEFAULT; Schema: public; Owner: dad
--

ALTER TABLE ONLY field_trial ALTER COLUMN id SET DEFAULT nextval('field_trial_id_seq'::regclass);


--
-- Name: id; Type: DEFAULT; Schema: public; Owner: dad
--

ALTER TABLE ONLY journal ALTER COLUMN id SET DEFAULT nextval('journal_id_seq'::regclass);


--
-- Name: id; Type: DEFAULT; Schema: public; Owner: dad
--

ALTER TABLE ONLY pedigree ALTER COLUMN id SET DEFAULT nextval('pedigree_id_seq'::regclass);


--
-- Name: id; Type: DEFAULT; Schema: public; Owner: dad
--

ALTER TABLE ONLY plant ALTER COLUMN id SET DEFAULT nextval('plant_id_seq'::regclass);


--
-- Name: id; Type: DEFAULT; Schema: public; Owner: dad
--

ALTER TABLE ONLY site ALTER COLUMN id SET DEFAULT nextval('site_id_seq'::regclass);


--
-- Name: id; Type: DEFAULT; Schema: public; Owner: dad
--

ALTER TABLE ONLY taxa ALTER COLUMN id SET DEFAULT nextval('taxa_id_seq'::regclass);


--
-- Name: id; Type: DEFAULT; Schema: public; Owner: dad
--

ALTER TABLE ONLY test_detail ALTER COLUMN id SET DEFAULT nextval('test_detail_id_seq'::regclass);


--
-- Name: id; Type: DEFAULT; Schema: public; Owner: dad
--

ALTER TABLE ONLY test_spec ALTER COLUMN id SET DEFAULT nextval('test_spec_id_seq'::regclass);


--
-- Name: id; Type: DEFAULT; Schema: public; Owner: dad
--

ALTER TABLE ONLY u07m_2013 ALTER COLUMN id SET DEFAULT nextval('u07m_2013_id_seq'::regclass);


--
-- Data for Name: family; Type: TABLE DATA; Schema: public; Owner: dad
--

COPY family (family_key, id, notes, female_plant_id, male_plant_id, seed_notes, form_fnmwu, is_plus, is_root, seeds_in_storage, ploidy_n, seed_germ_percent, seed_germ_date, cross_date, id_taxa, web_photos, web_url) FROM stdin;
TBD	1	To Be Determined	1	1	0	U	U	0	-1	-1	-1	1111-11-11	1111-11-11	2	0	0
NA	2	Does Not Apply	1	1	0	U	U	0	-1	-1	-1	1111-11-11	1111-11-11	2	0	0
17XGA04	33	Female is sibling to GG101.  Male is sibling to AA4101. Reciprocal is 18xAG04.	48	35	0	U	N	0	0	2	-1	1111-11-11	2004-04-01	7	0	http://bit.ly/1NbSOtz
18XAG04	34	Female is sibling to AA4102 .  Male is sibling to GG102.  Reciprocal is 17xGA04.	34	49	0	U	N	0	0	2	-1	1111-11-11	2004-04-01	6	0	http://bit.ly/1NbSOtz
21XAAG91	58	0	41	56	0	U	N	0	0	2	-1	1111-11-11	1991-04-01	2	0	http://bit.ly/1NbSOtz
53XAA92	102	0	27	24	0	U	N	0	0	2	-1	1111-11-11	1992-04-01	3	0	http://bit.ly/1NbSOtz
68XAA93	120	Fall-09 Observed a nice specimen at RNE on SW end.  It is a 3 bole tree with no observed BLD in 09.  Should be an interesting clone, since it has no A502 and 14 males was known for its size	27	14	0	U	N	0	0	2	-1	1111-11-11	1993-04-01	3	0	http://bit.ly/1NbSOtz
69XAA93	121	FAILED - no seedlings	27	13	0	U	N	0	0	2	-1	1111-11-11	1993-04-01	3	0	http://bit.ly/1NbSOtz
70XAA93	123	Fall-09 Observed a nice single bole border specimen at RNE on SW end.  No observed BLD in 09.  Should be an interesting clone, since it has no A502 and the 15 male parent was selected from an Italian plantation so it may have good rooting...	27	15	0	U	N	0	0	2	-1	1111-11-11	1993-04-01	3	0	http://bit.ly/1NbSOtz
71XAA93	124	FAILED - no seedlings	27	16	0	U	N	0	0	2	-1	1111-11-11	1993-04-01	3	0	http://bit.ly/1NbSOtz
72XAA93	125	FAILED - no seedlings	27	17	0	U	N	0	0	2	-1	1111-11-11	1993-04-01	3	0	http://bit.ly/1NbSOtz
73XAA93	126	FAILED - no seedlings	27	19	0	U	N	0	0	2	-1	1111-11-11	1993-04-01	3	0	http://bit.ly/1NbSOtz
76XAA02	129	1-0 stock seems vigorous in nursery.  About 50% should be fastigate. Male parent is (a502 x 3). Rooting: 2003 - 26 of 68 (38%) rooted 100%, Tag Results: Red=5, Yellow=21, Black=12	11	33	0	U	N	0	0	2	-1	1111-11-11	2002-04-01	3	0	http://bit.ly/1NbSOtz
77XAA02	130	1-0 stock seems vigorous in nursery. About 50% should be fastigate. Female parent is (4 x Bolleana). Female is not a good rooter (0/40 in 04) Rooting: 2003-18 of 45(40%) rooted 100% Rooting Tag Results: Red=2, Yellow=16, Black=5  	34	33	0	U	N	0	0	2	-1	1111-11-11	2002-04-01	3	0	http://bit.ly/1NbSOtz
78XAA02	131	FYI: this should not be an AA cross. Female is from the family 20xAAG91 (A266 x AG 56 (ortet is @ RNE - 8th tree from south - dead in 04), male is good rooter but weak.  18 seedlings survived, only 9 were plantable.  This family showed a lot of variation.  	43	33	Flowers fertilized on 3-16-02 and seed of poor quality harvested on 4-14-02.  Planted seed on 4-17-02 in a 1/2 flat and planted in nursery on 6-01-02. Only 18 seedlings survived and 9 were useable, tallest was 3 inches, a LOT of seedling variation.  	U	N	0	0	2	-1	1111-11-11	2002-04-01	3	0	http://bit.ly/1NbSOtz
79XAA03	132	Males is from the family of 4 x Bolleana.  Flowers were fertilized 4/9/03, Seeds harvested 4/25/03.  14 trees vigorous, uniform trees survived.  Same cross as 83xAA04.	11	35	0	U	N	0	0	2	-1	1111-11-11	2003-04-01	3	0	http://bit.ly/1NbSOtz
80XAA04	137	Female parent has good vigor, poor form and rooting.	46	35	0	U	N	0	0	2	-1	1111-11-11	2004-04-01	3	0	http://bit.ly/1NbSOtz
81XAA04	138	Female parent has good vigor, poor rooting, and poor form.	41	35	0	U	N	0	0	2	-1	1111-11-11	2004-04-01	3	0	http://bit.ly/1NbSOtz
82XAA04	139	Female parent has good vigor, good form, poor rooting.	44	35	0	U	Y	0	0	2	-1	1111-11-11	2004-04-01	3	0	http://bit.ly/1NbSOtz
83XAA04	140	Female parent has fair vigor, form and rooting.  Nine year field trials in Northern MI show good vigor and rooting.	11	35	0	U	Y	0	0	2	-1	1111-11-11	2004-04-01	3	0	http://bit.ly/1NbSOtz
84XAA04	141	Female parent has good vigor, some rooting potential, and poor form.	47	35	0	U	Y	0	0	2	-1	1111-11-11	2004-04-01	3	0	http://bit.ly/1NbSOtz
85XAA04	142	Inbred cross. Both parents have great form, fair vigor. Male has some rooting.	34	35	0	U	N	0	0	2	-1	1111-11-11	2004-04-01	3	0	http://bit.ly/1NbSOtz
92XAA10	152	Fair flower set, may have fertilized too early, or pollen issues. There was some rooting via PIP for the male, 133. Priority set at seed harvest is Medium, since progeny may have fair form, vigor, durability but poor rooting.	138	133	0	U	N	0	0	2	0.77	2010-06-02	2010-04-01	3	0	http://bit.ly/1NbSOtz
89XAA10	153	OK flower set, 138 had huge flowers, may need to fert when longer than 1/2.  Priority set at seed harvest is Medium, since progeny may have fair form, vigor, durability but poor rooting.	138	8	0	U	N	0	0	2	0.71	2010-06-02	2010-04-01	3	0	http://bit.ly/1NbSOtz
91XAA10	154	Fair flower set, poorest for this female.  Priority set at seed harvest is High, since progeny may have vigorous individuals with fair form, durability but poor rooting.	138	19	0	U	N	0	0	2	0.43	2010-06-02	2010-04-01	3	0	http://bit.ly/1NbSOtz
98XAA10	155	Priority set at seed harvest set at High since progeny may have vigorous, good rooting individuals with fair form and durability. 	141	144	0	U	N	0	0	2	0.34	2010-06-02	2010-04-01	3	0	http://bit.ly/1NbSOtz
101XAA10	156	Priority set at seed harvest set at High since progeny may have vigorous, durable individuals but with poor form and rooting. 	141	19	0	U	N	0	0	2	0.07	2010-06-02	2010-04-01	3	0	http://bit.ly/1NbSOtz
99XAA10	157	Priority set at seed harvest set at Medium, since progeny may have fair formed, vigorous and rooting individuals 	141	35	0	U	N	0	0	2	0.5	2010-06-02	2010-04-01	3	0	http://bit.ly/1NbSOtz
100XAA10	158	Pollinated 6 flowers from top to bottom with the minimal pollen collected from 2 male catkins (4 produced seed).  Planted a 1/2 flat on 4/11 as the branch died early and flowers started rotting.  About 1/3 of the seed was small. Priority set at seed harvest set at High since progeny may have vigorous, good rooting individuals with fair form and durability.   Expect rooting to be better than 98xA4 family.	141	143	0	U	N	0	0	2	0.28	2010-06-02	2010-04-01	3	0	http://bit.ly/1NbSOtz
97XAA10	159	Set priority at seed harvest to High since progeny may have vigorous, well formed and durable individuals but with poor rooting.	142	19	0	U	N	0	0	2	0.53	2010-06-02	2010-04-01	3	0	http://bit.ly/1NbSOtz
96XAA10	160	Set priority at seed harvest to Medium since progeny may have fair formed, durable and vigorous individuals, but with with poor rooting.	142	133	0	U	N	0	0	2	0.39	2010-06-02	2010-04-01	3	0	http://bit.ly/1NbSOtz
94XAA10	161	Set priority at seed harvest to Medium since progeny may have fair formed, durable and vigorous individuals, but with with poor rooting.	142	8	0	U	N	0	0	2	0.71	2010-06-02	2010-04-01	3	0	http://bit.ly/1NbSOtz
95XAA10	162	Set priority at seed harvest to Medium since progeny may have fair formed, durable and vigorous individuals, but with with poor rooting.	140	133	0	U	N	0	0	2	0.28	2010-06-02	2010-04-01	3	0	http://bit.ly/1NbSOtz
88XAA10	163	Set priority at seed harvest to Medium since progeny may have fair formed, durable and vigorous individuals, but with with poor rooting.	140	8	0	U	N	0	0	2	0.89	2010-06-02	2010-04-01	3	0	http://bit.ly/1NbSOtz
87XAA10	164	Set priority at seed harvest to Medium, since progeny may have fair formed individuals with unknown vigor and durability... Note that both parents of this cross share the same well formed and poor rooting female parent, 4.	140	35	0	U	N	0	0	2	0.21	2010-06-02	2010-04-01	3	0	http://bit.ly/1NbSOtz
90XAA10	165	Priority set at seed harvest to High since progeny may have vigorous, durable individuals but with fair form and poor rooting. 	140	19	0	U	N	0	0	2	0.86	2010-06-02	2010-04-01	3	0	http://bit.ly/1NbSOtz
93XAA10	166	This cross has same parents as 83xAA04. Produced about 20,000 seeds.   Priority set at seed harvest set at High since progeny may have vigorous, good rooting individuals with fair form and durability. See MSU field results for their U07m site.	11	35	0	U	Y	0	0	2	0.71	2010-06-02	2010-04-01	3	0	http://bit.ly/1NbSOtz
102XAA10	168	Set priority at seed harvest to Medium since progeny may have vigorous, durable individuals but with poor form and rooting.	134	19	0	U	N	0	0	2	0.05	2010-06-02	2010-04-01	3	0	http://bit.ly/1NbSOtz
104XAA10	169	Set priority at seed harvest to High since progeny may have vigorous, durable individuals with fair form and rooting.	134	144	0	U	N	0	0	2	0.45	2010-06-02	2010-04-01	3	0	http://bit.ly/1NbSOtz
103XAA10	170	Set priority at seed harvest to High since progeny may have vigorous, durable individuals with fair form and poor rooting.	139	19	0	U	N	0	0	2	0.51	2010-06-02	2010-04-01	3	0	http://bit.ly/1NbSOtz
1XBW	171	Renamed from 1XCAGW. Collected Wind pollinated branches of CAG204 on 4/23/11, McGovern planted seed in 2012.  It appeared that these flowers were receptive quite early, perhaps earlier than native P. grandidentata.  My guess is that the males are tremuloides and maybe nearby 3xAA materials.   Collected from 3 branches, 1 had 2 catkins with 500 counted seeds.  The others had 5 catkins each.  I think each branch could support 4 catkins.   Observed from 174 seedlings that about 70% were P. Alba types and 30% were aspen types.	66	163	Fair to good, very heavy seed set for OP.	U	U	0	1000	2	-1	1111-11-11	2011-05-14	2	0	http://bit.ly/1NbSOtz
1XAW	172	Collected Wind pollinated branches of 83AA310 on 4/23/11.  It appeared that these flowers were receptive later than CAG204, perhaps the same as native P. grandidentata. 	162	163	poor	U	U	0	0	2	0.5	1111-11-11	1111-11-11	2	0	http://bit.ly/1NbSOtz
2xB	173	A double hybrid that may exploit the vigor and durability of C173 and the straight form, vigor and durability of AG15.  Seed collected from 4/3/12 to 4/5/12.  Originally named 2xCAG12 changed on 9/30/14 to conform to new naming convention.	179	26	C173 had Fair to good seed set but seed had to be manually pulled.   I sampled 188 seeds planted on 4/4 and counted 120 viable seedlings.  Estimated germination after 4 days is 64%. 	U	U	Y	500	2	0.64	2012-04-05	2012-03-03	13	0	http://bit.ly/1NbSOtz
5xRB	203	Parents: 9AG105 x CAG177, Progeny Expectations: VDRF, Priority: High.  9AG105 is bisexual, compare to reciprocal 9xBR.	200	65	fair 	U	U	U	300	2	0.35	2014-06-02	2014-05-12	2	TBD	http://bit.ly/1NbSOtz
2XGW	175	Collected Wind pollinated branches 1 week before pollination - 5/4/13.  Nice formed female but likely not too many male bigtooths for full pollination. 	201	163	Poor bigtooth germination - perhaps related to the sparse seedset of the catkins (few of males in the area).	U	U	0	500	2	0.1	2013-06-01	2013-05-04	2	0	http://bit.ly/1NbSOtz
3XGW	176	Collected Wind pollinated branches 1 week before pollination - 5/4/13.  Nice formed female but likely not too many male bigtooths for full pollination. 	202	163	Poor bigtooth germination - perhaps related to the sparse seedset of the catkins (few of males in the area).  All seedlings failed in 2013 via short 288 cell flats at Bell.	U	U	0	500	2	0.05	2013-06-01	2013-05-24	2	0	http://bit.ly/1NbSOtz
5XGW	177	Collected Wind pollinated branches - After pollination and fully ripe on 5/24/13.  The area had lots of male bigtooths.	203	163	Best bigtooth germination - perhaps related to the full seedset of the catkins (lots of males in the area).	U	U	0	2000	2	0.9	2013-06-01	2013-05-24	2	0	http://bit.ly/1NbSOtz
2xRR	178	While most progeny seedlings have intermediate alba/aspen stem/leaf traits, a significant portion have more aspen traits. This seedlot had 63% germination, the smallest of all 2013 crosses.	199	61	Seedlings had a 48/100 useable count - ranking sixth out of the 6 crosses.  They started very slow!	U	U	0	500	2	0.63	2013-05-10	2013-04-28	2	0	http://bit.ly/1NbSOtz
22xAR	179	Both parents are vigorous and well formed. Most progeny seedlings have intermediate leaf shapes. Seedlings had leaf spots at Rakers.	204	61	Seedlings had a 61/100 useable count - ranking fith out of the 6 crosses.	U	U	0	500	2	0.77	2013-05-10	2013-05-07	2	0	http://bit.ly/1NbSOtz
105xAA	182	Progeny seedlings have alba leaf traits.  	204	19	Seedlings had a 65/100 useable count - ranking third out of the 6 crosses.	U	U	0	500	2	0.7	2013-05-10	2013-05-07	3	0	http://bit.ly/1NbSOtz
106xAA	183	Parents: 83AA565 x NFA, Progeny expectations: VDRF, Priority: High. 83AA565 may have VRF, and flowered at 5yrs.	205	19	Fair	U	U	0	1000	2	0.33	2014-06-02	2014-05-12	3	TBD	http://bit.ly/1NbSOtz
107xAA	184	Parents: 30AA5MF x 80AA3MF, Progeny expectations: VDRF, Priority: H.  The female flowers were small and weak - bad branches?	141	182	Good. 2014 batch had small green seeds.	U	U	U	400	2	0.61	2014-06-02	2014-05-12	3	TBD	http://bit.ly/1NbSOtz
13xGB	188	Parents: gg102 x CAG177, Progeny expectations: VDRF, Priority: Med.  Compare with the U07m GAs with gg102 that did poorly.	48	65	fair	U	U	U	500	2	0.31	2014-06-02	2014-05-12	2	TBD	http://bit.ly/1NbSOtz
15xB	190	Parents: C173 x 9AG105, Progeny expectations: VDRF, Priority: Med. Compare to 3xRR, 9xBr, 5xRB	179	200	good	U	U	U	1200	2	0.24	2014-06-02	2014-05-12	15	TBD	http://bit.ly/1NbSOtz
16xAB	191	Parents: 83AA565 x CAG177, Progeny expectations: VDRF, Priority: High. 83AA565 may have VRF, and flowered at 5yrs.	205	65	fair	U	U	U	700	2	0.35	2014-06-02	2014-05-12	2	TBD	http://bit.ly/1NbSOtz
17xB	192	Parents: Plaza x 4AE1, Progeny expectations: VDRF, Priority: High.  This B is unrelated to CAG204 or CAG177. Planted 10 seedlings from Rakers.	207	213	very poor, did not seem viable. 	U	U	U	0	2	0.09	2014-06-02	2014-05-12	15	TBD	http://bit.ly/1NbSOtz
1xBAR	195	Parents: CAG204 x AAG2001, Progeny expectations: VDR, Priority: High.  AAG2001 is a vigorous & variable hybrid with Crandon and A266 parentage.	66	42	poor	U	U	U	0	2	0	2014-06-02	2014-05-12	2	TBD	http://bit.ly/1NbSOtz
20xBS	196	Parents: CAG204 x 4TG1, Progeny expectations: VDRF, Priority: High.  4TG1 is the best McGovern smithii 	66	214	good	U	U	U	200	2	0.87	2014-06-02	2014-05-12	2	TBD	http://bit.ly/1NbSOtz
21xBA	197	Parents: CAG204 x 80AA3MF, Progeny expectations: VDRF, Priority: High.  80AA3MF is vigorous but a poor rooter	66	182	poor	U	U	U	0	2	0.27	2014-06-02	2014-05-12	2	TBD	http://bit.ly/1NbSOtz
23xBA	199	Parents: CAG204 x 82AA3, Progeny expectations: VDRF, Priority: High.  82AA3 is a plus tree male alba from MBP GR site.  14 of the 130 seedlings (9%) have a pronounced curly stem tip habit. 	66	208	fair	U	U	U	1100	2	0.61	2014-06-02	2014-05-12	2	TBD	http://bit.ly/1NbSOtz
3xRR	200	Parents: Plaza x 9AG105, Progeny expectations: VDRF, Priority: High. How will RR families compare to B families?	207	200	fair	U	U	U	0	2	0.1	2014-06-02	2014-05-12	2	TBD	http://bit.ly/1NbSOtz
4xGW	201	Parents: gg102 x Wind, Progeny Expectations: ?.  Priority: High. Seed produced late in 2013, but did not send to Rakers until 2014.  Most are GA types (from RNE), from 2013. Compare to U07m low performing GA/AGs. 	48	163	poor	U	U	U	300	2	0.34	2014-06-02	2013-05-24	2	TBD	http://bit.ly/1NbSOtz
8xBG	206	Parents: CAG204 x gg101, Progeny Expectations: VDRF, Priority: Med.  Compare to AGs with gg101 that did poorly in U07M 	66	49	fair	U	U	U	1200	2	0.37	2014-06-02	2014-05-12	2	TBD	http://bit.ly/1NbSOtz
9xBR	207	Parents: CAG204 x 9AG105, Progeny Expectations: VDRF, Priority: High.  9AG105 is bisexual, compare to 5xRB	66	200	fair 	U	U	U	0	2	0.04	2014-06-02	2014-05-12	2	TBD	http://bit.ly/1NbSOtz
1xARG	208	The female is a vigorous performer at CSSE and Minnesota at age 11. The GG12 male is a well formed, highly figured wild P. Grandidentata ~40 year old tree near SE Grand Rapids. This cross should help show how fertile the AAG backcross is to native bigtooth. Progeny is expected to be highly variable with poor seed viability and some clones may have figured wood.  Progeny Expectations=G	43	220	The fertilized aag2002 flowers were sparce but appeared healthy with healthy/full ovaries. Started fertilized flowers at 1/2 inch.	U	U	U	200	2	0.05	2016-05-16	2016-04-18	2	https://drive.google.com/open?id=0B7-SwoTVeWFaV2lsbXdkQkVRN0U	http://bit.ly/1NbSOtz
2xARW	209	The female is a vigorous performer at CSSE and Minnesota at age 11 and the male is the Wind. The open pollinated branches were harvested on 4/19 after the catkins were fertilized. This cross should help show how fertile the AAG backcross is to native area native aspens and other plantation aspens at the CSSE site. Progeny is expected to be highly variable with poor seed viability.  Progeny Expectations=None	43	163	The fertilized aag2002 flowers were very sparce (more than 1xARG) with much less ovaries. Seven 4-5 foot branches were harvested and the catkins were thinned down to about 40 before seed was harvested. About 200 seeds were collected on 5/4/16	U	U	U	200	2	0.06	2016-05-16	2016-05-03	2	https://drive.google.com/open?id=0B7-SwoTVeWFaV2lsbXdkQkVRN0U	http://bit.ly/1NbSOtz
6xGG	210	The female is a vigorous performing bigtooth 1xGG ortet at RNE at age 24 and used in many crosses. The GG12 male is a well formed, highly figured wild P. Grandidentata ~40 year old tree near SE Grand Rapids. This GG cross may produce highly figured native selections. Perhaps the progeny could be mated with other figured GG selections having different figure to produce a variety of different figure patterns.  Progeny Expectations=FG	48	220	The fertilized gg102 flowers were dense and appeared healthy/full ovaries. Started fertilizing flowers at 1/2 inch long, noted a range of receptivity both on each flower and on the branches. Best time to start fertilizing may be when flower is 1 inch long.	U	U	U	2000	2	0.48	2016-05-16	2016-04-17	2	https://drive.google.com/open?id=0B7-SwoTVeWFaV2lsbXdkQkVRN0U	http://bit.ly/1NbSOtz
25xR	212	The female is a vigorous, well formed ortet at CSSE at age 11, perhaps the best 83x on that site. The GG12 male is a well formed, highly figured wild P. Grandidentata ~40 year old tree near SE Grand Rapids. This AG cross may produce vigorous, good rooting figured aspen selections, which could also make better rooting progeny when mated with a P. Canescens (eg. C173). It is the highest priority 2016 cross.  Progeny Expectations=VDRFG	162	220	The fertilized 83aa301 flowers were dense and appeared healthy/full ovaries. Started fertilizing flowers at 1/2 inch.	U	U	U	2000	2	0.68	2016-04-17	2016-04-17	2	https://drive.google.com/open?id=0B7-SwoTVeWFaV2lsbXdkQkVRN0U	http://bit.ly/1NbSOtz
24xR	211	The female is a vigorous performer at CSSE at age 11. The GG12 male is a well formed, highly figured wild P. Grandidentata ~40 year old tree near SE Grand Rapids. This AG cross may produce vigorous but poor rooting progeny.   Progeny Expectations=VFG	221	220	The fertilized 82aa4 flowers were somewhat sparce but weak with weak/small ovaries. Perhaps flowers were fertilzed too early (@ 1/2 inch) but should be ~1 inch. About 45 seeds were produced from this cross.	U	U	Y	0	2	0.01	2016-04-19	2016-04-19	2	https://drive.google.com/open?id=0B7-SwoTVeWFaV2lsbXdkQkVRN0U	http://bit.ly/1NbSOtz
7xBT	205	Parents: CAG204 x ST11, Progeny Expectations: VDRF, Priority: Med.  Compare to BG families.	66	209	good	U	U	Y	200	2	0.88	2014-06-02	2014-05-12	2	TBD	http://bit.ly/1NbSOtz
6xBA	204	Parents: CAG204 x NFA, Progeny Expectations: VDR, Priority: Med. NFA is vigorous but in many crosses	66	19	fair	U	U	Y	300	2	0.41	2014-06-02	2014-05-12	2	TBD	http://bit.ly/1NbSOtz
4xRR	202	Parents: Plaza x AGRR1, Progeny Expectations: VDRFG, Priority: High.  How will RR families compare to B families?	207	61	poor	U	U	Y	600	2	0.06	2014-06-02	2014-05-12	2	TBD	http://bit.ly/1NbSOtz
22xBG	198	Parents: CAG204 x G4, Progeny expectations: VDRF, Priority: Med. G4 has good form, many flowers.	66	210	good	U	U	Y	800	2	0.76	2014-06-02	2014-05-12	2	TBD	http://bit.ly/1NbSOtz
19xGB	194	Parents: G5 x CAG177, Progeny expectations: VDRFG, Priority: High. G5 may have  Figured Wood.	211	65	poor	U	U	Y	0	2	0.33	2014-06-02	2014-05-12	2	TBD	http://bit.ly/1NbSOtz
18xBG	193	Parents: CAG204 x G6, Progeny expectations: VDRFG, Priority: High.  G6 has Figured Wood from UP Michigan.	66	212	good	U	U	Y	1300	2	0.38	2014-06-02	2014-05-12	2	TBD	http://bit.ly/1NbSOtz
14xB	189	Parents: C173 x AGRR1, Progeny expectations: VDRFG, Priority: High. AGRR1 has low figured wood but good veneer peeling qualities.	179	61	good	U	U	Y	500	2	0.63	2014-06-02	2014-05-12	15	TBD	http://bit.ly/1NbSOtz
12xRB	187	Parents: Plaza x CAG177. Progeny expectations: VDRF. Priority: Med. Compare to 3xRR.	207	65	fair	U	U	Y	300	2	0.8	2014-06-02	2014-05-12	2	TBD	http://bit.ly/1NbSOtz
11xAB	186	Parents: A266 x CAG177, A266 female is vigorous, CAG177 male has good form/rooting.  Progeny expectations: VDR, Priority: High.	9	65	fair 	U	U	Y	0	2	0.67	2014-06-02	2014-05-12	2	TBD	http://bit.ly/1NbSOtz
10xBR	185	Parents: CAG204 x AGRR1, Progeny expectations: VDRFG, Priority: High, (may have figured progeny). 	66	61	Fair. Seed not sent to Rakers in 2014,since its the same cross as 5xCAGR.	U	U	Y	200	2	0	2014-06-02	2014-05-12	2	TBD	http://bit.ly/1NbSOtz
5xCAGR	181	Progeny seedlings have itnermediate alba/aspen leaf traits.  	66	61	Seedlings had a 81/100 useable count - ranking second out of the 6 crosses.	U	U	Y	500	2	0.85	2013-05-10	2013-04-21	2	0	http://bit.ly/1NbSOtz
44XAA92	92	The Male Tevere2 pollen is from Italy and needs to be added...	9	1	0	U	N	Y	0	2	-1	1111-11-11	1992-04-01	3	0	http://bit.ly/1NbSOtz
43XAA92	91	0	9	24	0	U	N	Y	0	2	-1	1111-11-11	1992-04-01	3	0	http://bit.ly/1NbSOtz
4xACAG	180	The male parent CAG177 was thought to be sterile but this cross proves it is fertile.  Progeny seedlings show intermediate leaf traits, good vigor and uniformity.  	11	65	Seedlings had a 64/100 useable count - ranking fourth out of the 6 crosses.	U	U	Y	500	2	0.7	2013-05-10	2013-04-13	2	0	http://bit.ly/1NbSOtz
1XAE91	38	0	9	73	0	U	N	Y	0	2	-1	1111-11-11	1991-04-01	9	0	http://bit.ly/1NbSOtz
3XCAGC	174	Progeny seedlings exhibit intermediate leaf and tomentose characteristics, but may have more CAG204 wider leaves than 5xCAGR.	66	63	Seedlings had a 87/100 useable count - ranking first out of the 6 crosses. 3xCAGC seedlings had the best 2013 seedling quality at Rakers. 	U	U	Y	500	2	0.92	2013-05-10	2013-04-14	2	0	http://bit.ly/1NbSOtz
86XAA10	167	Priority set at seed harvest set at High since progeny may have vigorous, individuals with fair form, rooting and durability.	11	19	0	U	N	Y	0	2	0.78	2010-06-02	2010-04-01	3	0	http://bit.ly/1NbSOtz
2XAAE06	151	The male is Grober and is for Purdue only	11	1	0	U	N	Y	0	2	-1	1111-11-11	2006-04-01	2	0	http://bit.ly/1NbSOtz
1XAAE05	150	The male is Grober and is for Purdue only	11	1	0	U	N	Y	0	2	-1	1111-11-11	2005-04-01	2	0	http://bit.ly/1NbSOtz
9XTG93	149	0	149	60	0	U	N	Y	0	2	-1	1111-11-11	1993-04-01	5	0	http://bit.ly/1NbSOtz
9XAGA91	148	0	57	7	0	U	N	Y	0	2	-1	1111-11-11	1991-04-01	2	0	http://bit.ly/1NbSOtz
9XAG91	147	22 trees planted at RNE (well drained, fertile site) in 1992.  These are biased trees since 2 nearby rows are dead?  Trees show variation for vigor, form and annual BLD infection.  Scored the 21 surviving trees for BLD (0-3 0=none, 3=high).   One tree (#3 from South) did not have any BLD in 4 scored years: 2002, 2004, 2005, 2009. However this tree scored a 1 in 1996. Noted 2 zero BLD 9xAG91 trees in 2002, 4 zero BLD trees in 2009.	30	50	0	U	N	Y	0	2	-1	1111-11-11	1991-04-01	6	0	http://bit.ly/1NbSOtz
9XAA90	146	Ranked #2 at MSU Escanaba at age 10 (6.3 dia)	9	5	0	U	N	Y	0	2	-1	1111-11-11	1990-04-01	3	0	http://bit.ly/1NbSOtz
8XAGA91	145	One tree planted at RNE, which has excellent form, but bld too (2009).	57	64	0	U	N	Y	0	2	-1	1111-11-11	1991-04-01	2	0	http://bit.ly/1NbSOtz
8XAG91	144	2 different color seed batches were noticed. Seed batch collected on 4/10/91 was red colored. Batch collected on 4/14/91 was white colored. Concerned if batch was mixed with 21xaa9??  	11	60	0	U	N	Y	0	2	-1	1111-11-11	1991-04-01	6	0	http://bit.ly/1NbSOtz
8XAA90	143	Notes indicate good performance at ISU on 8/5/99. Ranked #18 at MSU (5 dia) but is same cross as 32xaa91(#2 rank) and both of these crosses did the same at PMG's RNE site. 	9	7	0	U	N	Y	0	2	-1	1111-11-11	1990-04-01	3	0	http://bit.ly/1NbSOtz
7XTG93	136	0	74	60	0	U	N	Y	0	2	-1	1111-11-11	1993-04-01	5	0	http://bit.ly/1NbSOtz
7XGA91	135	0	51	23	0	U	N	Y	0	2	-1	1111-11-11	1991-04-01	7	0	http://bit.ly/1NbSOtz
7XAGA91	134	0	57	21	0	U	N	Y	0	2	-1	1111-11-11	1991-04-01	2	0	http://bit.ly/1NbSOtz
7XAA90	133	A lot of seed was produced.  This family did quite well at 10 yrs at MSU's Escanaba site (#2 rank @ 6.3 avg dia)	9	8	0	U	N	Y	0	2	-1	1111-11-11	1990-04-01	3	0	http://bit.ly/1NbSOtz
75XAA95	128	Sent seed to Fred Eales of Wyoming.	9	23	0	U	N	Y	0	2	-1	1111-11-11	1993-04-01	3	0	http://bit.ly/1NbSOtz
74XAA95	127	Sent seed to Fred Eales of Wyoming.	25	23	0	U	N	Y	0	2	-1	1111-11-11	1993-04-01	3	0	http://bit.ly/1NbSOtz
6XAA89	122	1 seed survived. Planted at CSSE. Poor form fair vigor.	9	5	0	U	N	Y	0	2	-1	1111-11-11	1989-04-01	3	0	http://bit.ly/1NbSOtz
67XAA93	119	FAILED - no seedlings	11	19	0	U	N	Y	0	2	-1	1111-11-11	1993-04-01	3	0	http://bit.ly/1NbSOtz
66XAA93	118	0	11	18	0	U	N	Y	0	2	-1	1111-11-11	1993-04-01	3	0	http://bit.ly/1NbSOtz
65XAA93	117	0	11	17	0	U	N	Y	0	2	-1	1111-11-11	1993-04-01	3	0	http://bit.ly/1NbSOtz
64XAA93	116	FAILED - no seedlings	11	16	0	U	N	Y	0	2	-1	1111-11-11	1993-04-01	3	0	http://bit.ly/1NbSOtz
63XAA93	115	0	11	15	0	U	N	Y	0	2	-1	1111-11-11	1993-04-01	3	0	http://bit.ly/1NbSOtz
62XAA93	114	8/31/09: Found one really nice tree at RNE (2009). Quite vigorous, reasonable form.  No observed BLD.	11	13	0	U	N	Y	0	2	-1	1111-11-11	1993-04-01	3	0	http://bit.ly/1NbSOtz
61XAA93	113	0	11	14	0	U	N	Y	0	2	-1	1111-11-11	1993-04-01	3	0	http://bit.ly/1NbSOtz
60XAA93	112	0	9	19	0	U	N	Y	0	2	-1	1111-11-11	1993-04-01	3	0	http://bit.ly/1NbSOtz
5XTG93	111	0	67	60	0	U	N	Y	0	2	-1	1111-11-11	1993-04-01	5	0	http://bit.ly/1NbSOtz
5XAE91	110	0	30	73	0	U	N	Y	0	2	-1	1111-11-11	1991-04-01	9	0	http://bit.ly/1NbSOtz
5XAA89	109	This family has interesting traits, vigorous, variability.  2 selections are aa510, aa511 that have some rootability. Does not appear to be durable.	11	23	0	U	N	Y	0	2	-1	1111-11-11	1989-04-01	3	0	http://bit.ly/1NbSOtz
59XAA93	108	0	9	18	0	U	N	Y	0	2	-1	1111-11-11	1993-04-01	3	0	http://bit.ly/1NbSOtz
58XAA93	107	The Male Pollen is from Itally.	9	17	0	U	N	Y	0	2	-1	1111-11-11	1993-04-01	3	0	http://bit.ly/1NbSOtz
57XAA93	106	The Male Pollen is from Itally.	9	16	0	U	N	Y	0	2	-1	1111-11-11	1993-04-01	3	0	http://bit.ly/1NbSOtz
56XAA93	105	The Male Pollen is from Itally.	9	15	0	U	N	Y	0	2	-1	1111-11-11	1993-04-01	3	0	http://bit.ly/1NbSOtz
55XAA93	104	FAILED - no seedlings	9	13	0	U	N	Y	0	2	-1	1111-11-11	1993-04-01	3	0	http://bit.ly/1NbSOtz
54XAA93	103	The Male Pollen is from Itally.	9	14	0	U	N	Y	0	2	-1	1111-11-11	1993-04-01	3	0	http://bit.ly/1NbSOtz
50XAA92	101	0	29	24	0	U	N	Y	0	2	-1	1111-11-11	1992-04-01	3	0	http://bit.ly/1NbSOtz
4XTG91	100	Trees planted at RNE (12), SLSE (7), Vogel Center in 1992 and 64 grown at DNR.  This cross attempted to replicate the #1 MSU P. smithii cross at Water Quality.  Produced 200+- seeds of good viability.  One selection planted in 1992 at MSUs UP site grew very well and does not have heavy BLD like most P smithii. 	67	50	0	U	N	Y	0	2	-1	1111-11-11	1991-04-01	5	0	http://bit.ly/1NbSOtz
4XAGA90	99	Female is arenaAG by the GR Stadium Arena on NE side.	1	5	0	U	N	Y	0	2	-1	1111-11-11	1990-04-01	2	0	http://bit.ly/1NbSOtz
4XAG90	98	0	20	52	0	U	N	Y	0	2	-1	1111-11-11	1990-04-01	6	0	http://bit.ly/1NbSOtz
4XAE91	97	0	4	73	0	U	N	Y	0	2	-1	1111-11-11	1991-04-01	9	0	http://bit.ly/1NbSOtz
4XAA89	96	Female parent is 316 from Canada. Planted 11 at CS and HCRest area.  8/22/09: Runts at CS, at least 2 good ones at HCR, will test for rooting.	1	23	0	U	N	Y	0	2	-1	1111-11-11	1989-04-01	3	0	http://bit.ly/1NbSOtz
47XAA92	95	0	12	24	0	U	N	Y	0	2	-1	1111-11-11	1992-04-01	3	0	http://bit.ly/1NbSOtz
46XAA92	94	Same as 1xaa85, 2xaa88, 75xaa95	9	23	0	U	N	Y	0	2	-1	1111-11-11	1992-04-01	3	0	http://bit.ly/1NbSOtz
45XAA92	93	The Male Tanaro pollen is from Italy and needs to be added	9	1	0	U	N	Y	0	2	-1	1111-11-11	1992-04-01	3	0	http://bit.ly/1NbSOtz
1XAGC91	41	0	56	64	0	U	N	Y	0	2	-1	1111-11-11	1991-04-01	2	0	http://bit.ly/1NbSOtz
42XAA91	90	Open pollinated seed from one selected tree from the Serbia region of Yugoslavia.  I received a huge amount of seed (~15,000) 	2	2	0	U	N	Y	0	2	-1	1111-11-11	1991-04-01	3	0	http://bit.ly/1NbSOtz
1XAC91	37	0	4	64	0	U	N	Y	0	2	-1	1111-11-11	1991-04-01	2	0	http://bit.ly/1NbSOtz
41XAA91	88	A very diverse, heterozygous population.  50/50 wide/fastigate. Fastigate trees weak, wide trees have good form/vigor.  Ranked #18 at MSU's Escanaba site at age 10 (5.0). Male is fastigate Bolleana.  PMG planted 75 at RNE.  2 have very good form.	4	3	0	U	Y	Y	0	2	-1	1111-11-11	1991-04-01	3	0	http://bit.ly/1NbSOtz
40XAA91	87	Ranked #8 at MSU's Escanaba site at age 10 (5.9).	4	6	0	U	N	Y	0	2	-1	1111-11-11	1991-04-01	3	0	http://bit.ly/1NbSOtz
3XTG90	86	0	69	53	0	U	N	Y	0	2	-1	1111-11-11	1990-04-01	5	0	http://bit.ly/1NbSOtz
3XAGA90	85	0	56	7	0	U	N	Y	0	2	-1	1111-11-11	1990-04-01	2	0	http://bit.ly/1NbSOtz
3XAG90	84	0	29	52	0	U	N	Y	0	2	-1	1111-11-11	1990-04-01	6	0	http://bit.ly/1NbSOtz
3XAA89	83	Planted 6 at Cedar Springs & 131. Frequent dieback for several years perhaps frost injury related.  Later it resprouted, trees grew dense, tall and straight.	4	23	0	U	N	Y	0	2	-1	1111-11-11	1989-04-01	3	0	http://bit.ly/1NbSOtz
39XAA91	82	0	30	10	0	U	N	Y	0	2	-1	1111-11-11	1991-04-01	3	0	http://bit.ly/1NbSOtz
36XAA91	81	Only 11 trees survived.  All  planted at PMG's RNE site.  An interesting, variable family.	11	21	0	U	N	Y	0	2	-1	1111-11-11	1991-04-01	3	0	http://bit.ly/1NbSOtz
35XAA91	80	Ranked #11 at MSU's Escanaba site at age 10 (5.6).	30	23	0	U	N	Y	0	2	-1	1111-11-11	1991-04-01	3	0	http://bit.ly/1NbSOtz
33XAA91	79	Ranked #30 at MSU's Escanaba site at age 10 (4.6). Same as 3xaa89	4	23	0	U	N	Y	0	2	-1	1111-11-11	1991-04-01	3	0	http://bit.ly/1NbSOtz
32XAA91	78	Ranked #2 at MSU's Escanaba site at age 10 (6.3). 	9	7	0	U	N	Y	0	2	-1	1111-11-11	1991-04-01	3	0	http://bit.ly/1NbSOtz
31XAA91	77	Ranked #14 at MSU's Escanaba site at age 10 (5.3). 	9	64	0	U	N	Y	0	2	-1	1111-11-11	1991-04-01	3	0	http://bit.ly/1NbSOtz
30XAA91	76	Ranked #2 at MSU's Escanaba site at age 10 (6.3) with very consistent performance across all reps.  Trees are vigorous, have poor form & possible rooting potential.  47 selection 10% rooting (4/40) in 2004.	30	6	0	U	N	Y	0	2	-1	1111-11-11	1991-04-01	3	0	http://bit.ly/1NbSOtz
2XTG90	75	0	67	52	0	U	N	Y	0	2	-1	1111-11-11	1990-04-01	5	0	http://bit.ly/1NbSOtz
2XT4E04	74	The male is a tetraploid from Michigan Tree Improvement Center.	45	40	0	U	N	Y	0	3	-1	1111-11-11	2004-04-01	2	0	http://bit.ly/1NbSOtz
2XGT91	73	0	51	68	0	U	N	Y	0	2	-1	1111-11-11	1991-04-01	4	0	http://bit.ly/1NbSOtz
2XGAG91	72	The m1bt male needs to be added as a clone	59	1	0	U	N	Y	0	2	-1	1111-11-11	1991-04-01	2	0	http://bit.ly/1NbSOtz
2XGAE91	71	0	59	73	0	U	N	Y	0	2	-1	1111-11-11	1991-04-01	2	0	http://bit.ly/1NbSOtz
2XGA88	70	Female parent is seitsmabt (8 and Knapp St)	1	23	0	U	N	Y	0	2	-1	1111-11-11	1988-04-01	7	0	http://bit.ly/1NbSOtz
2XAGA90	69	0	56	5	0	U	N	Y	0	2	-1	1111-11-11	1990-04-01	2	0	http://bit.ly/1NbSOtz
2XAG90	68	0	9	52	0	U	N	Y	0	2	-1	1111-11-11	1990-04-01	6	0	http://bit.ly/1NbSOtz
2XAAG88	67	0	9	60	0	U	N	Y	0	2	-1	1111-11-11	1988-04-01	2	0	http://bit.ly/1NbSOtz
2XAA88	66	Vigorous, poor form.  Listed in annual report 1989-90 Hall, Hart, McNabb as #2 rated for growth.	9	23	0	U	N	Y	0	2	-1	1111-11-11	1988-04-01	3	0	http://bit.ly/1NbSOtz
29XAA91	65	0	9	10	0	U	N	Y	0	2	-1	1111-11-11	1991-04-01	3	0	http://bit.ly/1NbSOtz
28XAA91	64	3 is Bolleana, 1/2 of progeny will be fastigate.	9	3	0	U	N	Y	0	2	-1	1111-11-11	1991-04-01	3	0	http://bit.ly/1NbSOtz
27XAA91	63	0	4	7	0	U	N	Y	0	2	-1	1111-11-11	1991-04-01	3	0	http://bit.ly/1NbSOtz
26XAA91	62	0	30	3	0	U	N	Y	0	2	-1	1111-11-11	1991-04-01	3	0	http://bit.ly/1NbSOtz
25XAA91	61	0	9	28	0	U	N	Y	0	2	-1	1111-11-11	1991-04-01	3	0	http://bit.ly/1NbSOtz
23XAA91	60	Ranked #7 at MSU's Escanaba site at age 10 (6.2).  11/1/03 Observations at RNE: Big tree, bad form, no BLD. Still had leaves on (late leaf drop).	30	7	0	U	N	Y	0	2	-1	1111-11-11	1991-04-01	3	0	http://bit.ly/1NbSOtz
22XAA91	59	Ranked #10 at MSU's Escanaba site at age 10 (5.8)	11	7	0	U	N	Y	0	2	-1	1111-11-11	1991-04-01	3	0	http://bit.ly/1NbSOtz
21XAA91	57	Male is fastigate Bolleana.  Progeny is 1/2 fastigate. Some of these seedlings have fairly good rooting (AA2101). 	11	3	0	U	N	Y	0	2	-1	1111-11-11	1991-04-01	3	0	http://bit.ly/1NbSOtz
20XAAG91	56	Some individuals are quite vigourous - made 3 selections.  Made crosses with these selections which were very dificult. Very few survivors, mostly runts?  Trees planted at DNR (45), ISU (38), MSU (32?), MBP (15 at RNE, 8 at SLSE).   Two selections at RNE (eg AAG2001) and one at SLSE (AAG2002)	9	56	0	U	N	Y	0	2	-1	1111-11-11	1991-04-01	2	0	http://bit.ly/1NbSOtz
20XAA91	55	Ranked #14 at MSU's Escanaba site at age 10 (5.3)	9	21	0	U	N	Y	0	2	-1	1111-11-11	1991-04-01	3	0	http://bit.ly/1NbSOtz
1XTT91	54	0	67	68	0	U	N	Y	0	2	-1	1111-11-11	1991-04-01	2	0	http://bit.ly/1NbSOtz
1XTG90	53	0	67	53	0	U	N	Y	0	2	-1	1111-11-11	1990-04-01	5	0	http://bit.ly/1NbSOtz
1XTE04	52	The male, TA483 is from Michigan Tree Improvement Center.	45	1	0	U	N	Y	0	2	-1	1111-11-11	2004-04-01	2	0	http://bit.ly/1NbSOtz
1XT4E04	51	The male is a tetraploid from Michigan Tree Improvement Center.	75	40	0	U	N	Y	0	3	-1	1111-11-11	2004-04-01	2	0	http://bit.ly/1NbSOtz
1XGT90	50	This is actually a backcross to bigtooth since st3 is likely a P.smithii	54	70	0	U	N	Y	0	2	-1	1111-11-11	1990-04-01	4	0	http://bit.ly/1NbSOtz
1XGG91	49	Produced about 3000 seeds. Rakers grew  the seedlings. Sent about 700 seeds to Yugoslavia. DNR grew about 700 trees. The seedlings were so small they had to plant them as 1-1 stock. PMG planted 32 at RNE. 	51	50	0	U	N	Y	0	2	-1	1111-11-11	1991-04-01	2	0	http://bit.ly/1NbSOtz
1XGE91	48	Nice vigorous trees.  Some have no BLD signs. 	51	73	0	U	N	Y	0	2	-1	1111-11-11	1991-04-01	2	0	http://bit.ly/1NbSOtz
1XGAG91	47	0	51	60	0	U	N	Y	0	2	-1	1111-11-11	1991-04-01	2	0	http://bit.ly/1NbSOtz
1XGAAG91	46	0	59	60	0	U	N	Y	0	2	-1	1111-11-11	1991-04-01	2	0	http://bit.ly/1NbSOtz
1XGA84	45	Female is a bigtooth from Jerry Seitsma's Orchard (Knapp/8 in GR,MI) Poor rooter, fair vigor, form?  	1	23	0	U	N	Y	0	2	-1	1111-11-11	1984-04-01	7	0	http://bit.ly/1NbSOtz
1XEE91	44	Nice vigorous trees.  All 14 are dead at RRNE at age 12. Seemed to spread from South to North.	72	73	0	U	N	Y	0	2	-1	1111-11-11	1991-04-01	2	0	http://bit.ly/1NbSOtz
1XAT90	43	This is misnamed.  The male parent is a wild P. smithii.  Should be 1xatg90.  	7	70	0	U	N	Y	0	2	-1	1111-11-11	1990-04-01	9	0	http://bit.ly/1NbSOtz
1XAGE91	42	0	57	73	0	U	N	Y	0	2	-1	1111-11-11	1991-04-01	2	0	http://bit.ly/1NbSOtz
1XAGA88	40	0	57	23	0	U	N	Y	0	2	-1	1111-11-11	1988-04-01	2	0	http://bit.ly/1NbSOtz
1XAG88	39	0	9	52	0	U	N	Y	0	2	-1	1111-11-11	1988-04-01	6	0	http://bit.ly/1NbSOtz
1XAAG88	36	0	9	56	0	U	N	Y	0	2	-1	1111-11-11	1988-04-01	2	0	http://bit.ly/1NbSOtz
19XAAG91	35	0	30	60	0	U	N	Y	0	2	-1	1111-11-11	1991-04-01	2	0	http://bit.ly/1NbSOtz
17XAAG91	32	0	4	60	0	U	N	Y	0	2	-1	1111-11-11	1991-04-01	2	0	http://bit.ly/1NbSOtz
17XAA91	31	0	4	21	0	U	N	Y	0	2	-1	1111-11-11	1991-04-01	3	0	http://bit.ly/1NbSOtz
16XAG93	30	0	11	55	0	U	N	Y	0	2	-1	1111-11-11	1991-04-01	6	0	http://bit.ly/1NbSOtz
16XAAG91	29	0	11	60	0	U	N	Y	0	2	-1	1111-11-11	1991-04-01	2	0	http://bit.ly/1NbSOtz
16XAA91	28	0	4	10	0	U	N	Y	0	2	-1	1111-11-11	1991-04-01	3	0	http://bit.ly/1NbSOtz
15XTG93	27	0	152	60	0	U	N	Y	0	2	-1	1111-11-11	1993-04-01	5	0	http://bit.ly/1NbSOtz
15XAGA91	26	0	57	23	0	U	N	Y	0	2	-1	1111-11-11	1991-04-01	2	0	http://bit.ly/1NbSOtz
15XAG91	25	Performed well at FBIC	4	50	0	U	Y	Y	0	2	-1	1111-11-11	1991-04-01	6	0	http://bit.ly/1NbSOtz
15XAA90	24	30 seedlings grown at ISU. 24 planted at MSU in 1992.	20	7	0	U	N	Y	0	2	-1	1111-11-11	1990-04-01	3	0	http://bit.ly/1NbSOtz
14XTG93	23	0	151	55	0	U	N	Y	0	2	-1	1111-11-11	1993-04-01	5	0	http://bit.ly/1NbSOtz
14XGAA91	22	0	59	23	0	U	N	Y	0	2	-1	1111-11-11	1991-04-01	2	0	http://bit.ly/1NbSOtz
14XAG91	21	Male parent is m1bt - Need to research that parent	4	1	0	U	N	Y	0	2	-1	1111-11-11	1991-04-01	6	0	http://bit.ly/1NbSOtz
14XAA90	20	17 seedlings grown at ISU. 12 planted at PMG's RNE in 1992.	20	5	0	U	N	Y	0	2	-1	1111-11-11	1990-04-01	3	0	http://bit.ly/1NbSOtz
13XTG93	19	0	151	60	0	U	N	Y	0	2	-1	1111-11-11	1993-04-01	5	0	http://bit.ly/1NbSOtz
13XGAG91	18	0	59	60	0	U	N	Y	0	2	-1	1111-11-11	1991-04-01	2	0	http://bit.ly/1NbSOtz
13XAG91	17	Male parent is btshelby - Need to research that parent	4	1	0	U	N	Y	0	2	-1	1111-11-11	1991-04-01	6	0	http://bit.ly/1NbSOtz
13XAA90	16	Ranked 30th at MSU's Escanaba 10 growth @ 4.6	29	7	0	U	N	Y	0	2	-1	1111-11-11	1990-04-01	3	0	http://bit.ly/1NbSOtz
12XTG93	15	0	150	55	0	U	N	Y	0	2	-1	1111-11-11	1993-04-01	5	0	http://bit.ly/1NbSOtz
12XGAA91	14	0	59	7	0	U	N	Y	0	2	-1	1111-11-11	1991-04-01	2	0	http://bit.ly/1NbSOtz
12XAG91	13	0	9	60	0	U	N	Y	0	2	-1	1111-11-11	1991-04-01	6	0	http://bit.ly/1NbSOtz
12XAA90	12	Good performance at ISU noted on 8/5/99.  May have rooting potential.	29	8	0	U	N	Y	0	2	-1	1111-11-11	1990-04-01	3	0	http://bit.ly/1NbSOtz
11XTG93	11	0	150	60	0	U	N	Y	0	2	-1	1111-11-11	1993-04-01	5	0	http://bit.ly/1NbSOtz
11XAAG91	10	f83aa107	9	60	0	U	N	Y	0	2	-1	1111-11-11	1991-04-01	2	0	http://bit.ly/1NbSOtz
11XAA90	9	All seed failed.	39	7	0	U	N	Y	0	2	-1	1111-11-11	1990-04-01	3	0	http://bit.ly/1NbSOtz
10XTG93	8	0	149	50	0	U	N	Y	0	2	-1	1111-11-11	1993-04-01	5	0	http://bit.ly/1NbSOtz
10XGA91	7	0	51	21	0	U	N	Y	0	2	-1	1111-11-11	1991-04-01	7	0	http://bit.ly/1NbSOtz
2XA4E05	6	Poor seed set, perhaps pollinated too early (2/9/05) Harvested about 200 seeds on 3/6/05.  All of these trees had a chlorotic leaf condition that may be serious...	9	40	0	U	N	Y	0	3	-1	1111-11-11	2005-04-01	2	0	http://bit.ly/1NbSOtz
1XA4E05	5	Poor seed set, perhaps pollinated too early (2/9/05) planted 130 seeds  indoors on 3/5/05.  Performed a PIP test.  All but 1 rooted.  The #8 test tree had weak rooting on 2 cuttings.  All of these trees had a chlorotic leaf condition that may be serious...  Observed poor performance/survivabity at CSSE and most have a root crown fungus issue	11	40	0	U	N	Y	0	3	-1	1111-11-11	2005-04-01	9	0	http://bit.ly/1NbSOtz
10XAA91	4	Only 4 seedlings from ISU were grown and planted at PMG's RNE	39	5	0	U	N	Y	0	2	-1	1111-11-11	1990-04-01	3	0	http://bit.ly/1NbSOtz
1XAA85	3	About 15 seedlings produced. ISU had good observations with this family. A 1992 female selection 27 had good form/vigor but lots of branch canker typical of some albas.	9	23	0	W	N	Y	0	2	-1	1111-11-11	1111-11-11	3	0	http://bit.ly/1NbSOtz
\.


--
-- Name: family_id_seq; Type: SEQUENCE SET; Schema: public; Owner: dad
--

SELECT pg_catalog.setval('family_id_seq', 1, false);


--
-- Data for Name: field_trial; Type: TABLE DATA; Schema: public; Owner: dad
--

COPY field_trial (field_trial_key, id, notes, notes2, notes3, live_quantity, is_plus_ynu, live_dbh_cm, height_cm, leaf_score, canker_score, tree_spacing_ft, id_test_spec, row_nbr, column_nbr, replication_nbr, plot_nbr, block_nbr) FROM stdin;
TBD	-1	Dummy record used for id_prev_test_detail null values	1	0	-1	0	-1	-1	-1	-1	U   	2	-1	-1	-1	-1	-1
TBD	1	To Be Determined	1	0	-1	0	-1	-1	-1	-1	U   	2	-1	-1	-1	-1	-1
NA	2	Does Not Apply	2	0	-1	0	-1	-1	-1	-1	U   	2	-1	-1	-1	-1	-1
gg8	4	Notes - PostNE - WEST Edge (Rows WtoE)  Planted with JRM (1.25/gallon).  aka clone E4	0	0	1	U	1	-1	-1	-1	4x6 	25	1	1	-1	1	1
4gw10	5	Planted with JRM (1.25/gallon)	0	0	1	U	1	-1	-1	-1	4x6 	25	1	2	-1	1	1
2bg7	6	Planted with JRM (1.25/gallon)	0	0	1	U	1	-1	-1	-1	4x6 	25	1	3	-1	1	1
16ab2	7	Planted with JRM (1.25/gallon)	0	0	1	U	1	-1	-1	-1	4x6 	25	1	4	-1	1	1
4gw13	8	Planted with JRM (1.25/gallon)	0	0	1	U	1	-1	-1	-1	4x6 	25	1	5	-1	1	1
20bs7	9	Planted with JRM (1.25/gallon)	0	0	1	U	1	-1	-1	-1	4x6 	25	1	6	-1	1	1
20bs3	10	Planted with JRM (1.25/gallon)	0	0	1	U	1	-1	-1	-1	4x6 	25	1	7	-1	1	1
16ab3	11	Planted with JRM (1.25/gallon)	0	0	1	U	1	-1	-1	-1	4x6 	25	1	8	-1	1	1
4acag7	12	Planted with JRM (1.25/gallon)	0	0	1	U	1	-1	-1	-1	4x6 	25	1	9	-1	1	1
80aa3mf	13	Planted with JRM (1.25/gallon)	0	0	1	U	1	-1	-1	-1	4x6 	25	1	10	-1	1	1
80aa3mf	14	Planted with JRM (1.25/gallon)	Thin later	0	1	U	1	-1	-1	-1	4x6 	25	1	11	-1	1	1
89aa1	15	No JRM	0	0	1	U	1	-1	-1	-1	4x6 	25	1	12	-1	1	1
89aa1	16	No JRM	Thin later	0	1	U	1	-1	-1	-1	4x6 	25	1	13	-1	1	1
2b22	17	No JRM	0	0	1	U	1	-1	-1	-1	4x6 	25	1	14	-1	1	1
2b25	18	No JRM	0	0	1	U	1	-1	-1	-1	4x6 	25	1	15	-1	1	1
dn34	19	No JRM	0	0	1	U	1	-1	-1	-1	4x6 	25	1	16	-1	1	1
dn34	20	No JRM	Thin later	0	1	U	1	-1	-1	-1	4x6 	25	1	17	-1	1	1
dn34	21	No JRM	0	0	1	U	1	-1	-1	-1	4x6 	25	1	18	-1	1	1
dn34	22	No JRM	Thin later	0	1	U	1	-1	-1	-1	4x6 	25	1	19	-1	1	1
dn34	23	No JRM	0	0	1	U	1	-1	-1	-1	4x6 	25	1	20	-1	1	1
1bw6	24	No JRM	0	0	1	U	1	-1	-1	-1	4x6 	25	1	21	-1	1	1
1bw6	25	No JRM	0	0	1	U	1	-1	-1	-1	4x6 	25	1	22	-1	1	1
105aa5	26	No JRM	0	0	1	U	1	-1	-1	-1	4x6 	25	1	23	-1	1	1
105aa5	27	No JRM	Thin later	0	1	U	1	-1	-1	-1	4x6 	25	1	24	-1	1	1
1bw1	28	Planted with JRM (1.25/gallon)	0	0	1	U	1	-1	-1	-1	4x6 	25	1	25	-1	1	1
20bs1	29	Planted with JRM (1.25/gallon)	0	0	1	U	1	-1	-1	-1	4x6 	25	1	26	-1	1	1
1bw1	30	Planted with JRM (1.25/gallon)	0	0	1	U	1	-1	-1	-1	4x6 	25	1	27	-1	1	1
97aa11	31	Planted with JRM (1.25/gallon)	Thin later	0	1	U	1	-1	-1	-1	4x6 	25	1	28	-1	1	1
3cagc3	32	Planted with JRM (1.25/gallon)	0	0	1	U	1	-1	-1	-1	4x6 	25	1	29	-1	1	1
4acag9	33	Planted with JRM (1.25/gallon)	0	0	1	U	1	-1	-1	-1	4x6 	25	1	30	-1	1	1
4acag9	34	Planted with JRM (1.25/gallon)	0	0	1	U	1	-1	-1	-1	4x6 	25	1	31	-1	1	1
92aa11	35	Planted with JRM (1.25/gallon)	Thin later	0	1	U	1	-1	-1	-1	4x6 	25	1	32	-1	1	1
92aa11	36	Planted with JRM (1.25/gallon)	0	0	1	U	1	-1	-1	-1	4x6 	25	1	33	-1	1	1
2b6	37	Planted with JRM (1.25/gallon)	Thin later	0	1	U	1	-1	-1	-1	4x6 	25	1	34	-1	1	1
2b6	38	Planted with JRM (1.25/gallon)	Thin later	0	1	U	1	-1	-1	-1	4x6 	25	1	35	-1	1	1
4acag4	39	Planted with JRM (1.25/gallon)	0	0	1	U	1	-1	-1	-1	4x6 	25	1	36	-1	1	1
4acag4	40	Planted with JRM (1.25/gallon)	0	0	1	U	1	-1	-1	-1	4x6 	25	1	37	-1	1	1
101aa11	41	Planted with JRM (1.25/gallon)	Thin later	0	1	U	1	-1	-1	-1	4x6 	25	1	38	-1	1	1
101aa11	42	Planted with JRM (1.25/gallon)	0	0	1	U	1	-1	-1	-1	4x6 	25	1	39	-1	1	1
101aa11	43	Planted with JRM (1.25/gallon)	Thin later	0	1	U	1	-1	-1	-1	4x6 	25	1	40	-1	1	1
2b4	44	Planted with JRM (1.25/gallon)	0	0	1	U	1	-1	-1	-1	4x6 	25	1	41	-1	1	1
2b64	45	Planted with JRM (1.25/gallon)	0	0	1	U	1	-1	-1	-1	4x6 	25	1	42	-1	1	1
2b50	46	Planted with JRM (1.25/gallon)	0	0	1	U	1	-1	-1	-1	4x6 	25	1	43	-1	1	1
2b62	47	Planted with JRM (1.25/gallon)	0	0	1	U	1	-1	-1	-1	4x6 	25	1	44	-1	1	1
c173	48	Planted with JRM (1.25/gallon)	0	0	1	U	1	-1	-1	-1	4x6 	25	1	45	-1	1	1
c173	49	Planted with JRM (1.25/gallon)	Thin later	0	1	U	1	-1	-1	-1	4x6 	25	1	46	-1	1	1
c173	50	Planted with JRM (1.25/gallon)	0	0	1	U	1	-1	-1	-1	4x6 	25	1	47	-1	1	1
98aa11	51	Planted with JRM (1.25/gallon), Whip with 1 inch roots	Thin later	0	1	U	1	-1	-1	-1	4x6 	25	1	48	-1	1	1
98aa11	52	Planted with JRM (1.25/gallon), Whip with 1 inch roots	0	0	1	U	1	-1	-1	-1	4x6 	25	1	49	-1	1	1
98aa11	53	Planted with JRM (1.25/gallon), Whip with 1 inch roots	Thin later	0	1	U	1	-1	-1	-1	4x6 	25	1	50	-1	1	1
101aa11	54	Planted with JRM (1.25/gallon), Whip with 1 inch roots	Thin later	0	1	U	1	-1	-1	-1	4x6 	25	1	51	-1	1	1
101aa11	55	Planted with JRM (1.25/gallon), Whip with 1 inch roots	0	0	1	U	1	-1	-1	-1	4x6 	25	1	52	-1	1	1
101aa11	56	Planted with JRM (1.25/gallon), Whip with 1 inch roots	Thin later	0	1	U	1	-1	-1	-1	4x6 	25	1	53	-1	1	1
105aa3	57	Planted with JRM (1.25/gallon), Whip with 1 inch roots	0	0	1	U	1	-1	-1	-1	4x6 	25	1	54	-1	1	1
16ab7	58	Planted with JRM (1.25/gallon), Whip with 1 inch roots	0	0	1	U	1	-1	-1	-1	4x6 	25	1	55	-1	1	1
105aa5	59	Planted with JRM (1.25/gallon), Whip with 1 inch roots	0	0	1	U	1	-1	-1	-1	4x6 	25	1	56	-1	1	1
4gw11	60	Planted with JRM (1.25/gallon)	0	0	1	U	1	-1	-1	-1	4x6 	25	2	1	-1	2	1
2b73	61	Planted with JRM (1.25/gallon)	0	0	1	U	1	-1	-1	-1	4x6 	25	2	2	-1	2	1
4gw12	62	Planted with JRM (1.25/gallon)	0	0	1	U	1	-1	-1	-1	4x6 	25	2	3	-1	2	1
2b68	63	Planted with JRM (1.25/gallon)	0	0	1	U	1	-1	-1	-1	4x6 	25	2	4	-1	2	1
16ab4	64	Planted with JRM (1.25/gallon)	0	0	1	U	1	-1	-1	-1	4x6 	25	2	5	-1	2	1
16ab8	65	Planted with JRM (1.25/gallon)	0	0	1	U	1	-1	-1	-1	4x6 	25	2	6	-1	2	1
20bs9	66	Planted with JRM (1.25/gallon)	0	0	1	U	1	-1	-1	-1	4x6 	25	2	7	-1	2	1
16ab1	67	Planted with JRM (1.25/gallon)	0	0	1	U	1	-1	-1	-1	4x6 	25	2	8	-1	2	1
98aa11	68	Planted with JRM (1.25/gallon)	Thin later	0	1	U	1	-1	-1	-1	4x6 	25	2	9	-1	2	1
98aa11	69	Planted with JRM (1.25/gallon)	0	0	1	U	1	-1	-1	-1	4x6 	25	2	10	-1	2	1
98aa11	70	Planted with JRM (1.25/gallon)	Thin later	0	1	U	1	-1	-1	-1	4x6 	25	2	11	-1	2	1
98aa11	71	Planted with JRM (1.25/gallon)	Thin later	0	1	U	1	-1	-1	-1	4x6 	25	2	12	-1	2	1
2b29	72	No JRM - May have figured wood	0	0	1	U	1	-1	-1	-1	4x6 	25	2	13	-1	2	1
97aa11	73	No JRM	0	0	1	U	1	-1	-1	-1	4x6 	25	2	14	-1	2	1
zoss	74	No JRM	0	0	1	U	1	-1	-1	-1	4x6 	25	2	15	-1	2	1
2b6	75	No JRM	0	0	1	U	1	-1	-1	-1	4x6 	25	2	16	-1	2	1
100aa12	76	No JRM	0	0	1	U	1	-1	-1	-1	4x6 	25	2	17	-1	2	1
95aa11	77	No JRM	0	0	1	U	1	-1	-1	-1	4x6 	25	2	18	-1	2	1
95aa11	78	No JRM	Thin later	0	1	U	1	-1	-1	-1	4x6 	25	2	19	-1	2	1
105aa3	79	No JRM - whips with small roots	Thin later	0	1	U	1	-1	-1	-1	4x6 	25	2	20	-1	2	1
105aa3	80	No JRM - whips with small roots	0	0	1	U	1	-1	-1	-1	4x6 	25	2	21	-1	2	1
14b7	81	No JRM	0	0	1	U	1	-1	-1	-1	4x6 	25	2	22	-1	2	1
105aa3	82	No JRM	Thin later	0	1	U	1	-1	-1	-1	4x6 	25	2	23	-1	2	1
105aa3	83	No JRM	0	0	1	U	1	-1	-1	-1	4x6 	25	2	24	-1	2	1
zoss	84	No JRM	Thin later	0	1	U	1	-1	-1	-1	4x6 	25	2	25	-1	2	1
zoss	85	No JRM	0	0	1	U	1	-1	-1	-1	4x6 	25	2	26	-1	2	1
2b3	86	100% 2b3 has JRM	0	0	1	U	1	-1	-1	-1	4x6 	25	2	27	-1	2	1
2b3	87	Lost tag, verify. Has JRM	Thin later	0	1	U	1	-1	-1	-1	4x6 	25	2	28	-1	2	1
2b3	88	Lost tag, verify. Has JRM	0	0	1	U	1	-1	-1	-1	4x6 	25	2	29	-1	2	1
2b25	89	Planted with JRM (1.25/gallon)	0	0	1	U	1	-1	-1	-1	4x6 	25	2	30	-1	2	1
2b25	90	Planted with JRM (1.25/gallon)	Thin later	0	1	U	1	-1	-1	-1	4x6 	25	2	31	-1	2	1
100aa11	91	Planted with JRM (1.25/gallon)	0	0	1	U	1	-1	-1	-1	4x6 	25	2	32	-1	2	1
100aa11	92	Planted with JRM (1.25/gallon)	Thin later	0	1	U	1	-1	-1	-1	4x6 	25	2	33	-1	2	1
100aa11	93	Planted with JRM (1.25/gallon)	0	0	1	U	1	-1	-1	-1	4x6 	25	2	34	-1	2	1
100aa12	94	Planted with JRM (1.25/gallon)	Thin later	0	1	U	1	-1	-1	-1	4x6 	25	2	35	-1	2	1
100aa12	95	Planted with JRM (1.25/gallon)	0	0	1	U	1	-1	-1	-1	4x6 	25	2	36	-1	2	1
97aa12	96	Planted with JRM (1.25/gallon)	Thin later	0	1	U	1	-1	-1	-1	4x6 	25	2	37	-1	2	1
97aa12	97	Planted with JRM (1.25/gallon)	Thin later	0	1	U	1	-1	-1	-1	4x6 	25	2	38	-1	2	1
2b71	98	Planted with JRM (1.25/gallon)	0	0	1	U	1	-1	-1	-1	4x6 	25	2	39	-1	2	1
2b22	99	Planted with JRM (1.25/gallon)	0	0	1	U	1	-1	-1	-1	4x6 	25	2	40	-1	2	1
2b22	100	Planted with JRM (1.25/gallon)	Thin later	0	1	U	1	-1	-1	-1	4x6 	25	2	41	-1	2	1
2b22	101	Planted with JRM (1.25/gallon)	0	0	1	U	1	-1	-1	-1	4x6 	25	2	42	-1	2	1
cag204	102	Planted with JRM (1.25/gallon)	0	0	1	U	1	-1	-1	-1	4x6 	25	2	43	-1	2	1
2b21	103	Planted with JRM (1.25/gallon)	0	0	1	U	1	-1	-1	-1	4x6 	25	2	44	-1	2	1
2b21	104	Planted with JRM (1.25/gallon)	Thin later	0	1	U	1	-1	-1	-1	4x6 	25	2	45	-1	2	1
2b6	105	Planted with JRM (1.25/gallon), Whip with 1 inch roots	0	0	1	U	1	-1	-1	-1	4x6 	25	2	46	-1	2	1
2b6	106	Planted with JRM (1.25/gallon), Whip with 1 inch roots	Thin later	0	1	U	1	-1	-1	-1	4x6 	25	2	47	-1	2	1
2b6	107	Planted with JRM (1.25/gallon), Whip with 1 inch roots	0	0	1	U	1	-1	-1	-1	4x6 	25	2	48	-1	2	1
2b25	108	whip - 1 inch roots	0	0	1	U	1	-1	-1	-1	4x6 	25	2	49	-1	2	1
2b3	109	Planted with JRM (1.25/gallon), has good roots	0	0	1	U	1	-1	-1	-1	4x6 	25	2	50	-1	2	1
2b3	110	Planted with JRM (1.25/gallon), has good roots	Thin later	0	1	U	1	-1	-1	-1	4x6 	25	2	51	-1	2	1
2b3	111	Planted with JRM (1.25/gallon), has good roots	0	0	1	U	1	-1	-1	-1	4x6 	25	2	52	-1	2	1
2b21	112	Planted with JRM (1.25/gallon), Whip with 1 inch roots	0	0	1	U	1	-1	-1	-1	4x6 	25	2	53	-1	2	1
2b21	113	Planted with JRM (1.25/gallon), Whip with 1 inch roots	Thin later	0	1	U	1	-1	-1	-1	4x6 	25	2	54	-1	2	1
2b21	114	Planted with JRM (1.25/gallon), Whip with 1 inch roots	0	0	1	U	1	-1	-1	-1	4x6 	25	2	55	-1	2	1
2b21	115	Planted with JRM (1.25/gallon), Whip with 1 inch roots	0	0	1	U	1	-1	-1	-1	4x6 	25	2	55	-1	2	1
gg8	116	Notes - PostNE - WEST Edge (Rows WtoE) Planted with JRM (1.25/gallon).  aka clone E4	Start 2016 Measure	Dead	0	U	0	-1	-1	-1	4x6 	26	1	1	-1	1	1
4gw10	117	Planted with JRM (1.25/gallon)	0	0	1	U	2	-1	-1	-1	4x6 	26	1	2	-1	1	1
2bg7	118	Planted with JRM (1.25/gallon)	0	0	1	U	2.1	-1	-1	-1	4x6 	26	1	3	-1	1	1
16ab2	119	Planted with JRM (1.25/gallon)	0	0	1	U	2.4	-1	-1	-1	4x6 	26	1	4	-1	1	1
4gw13	120	Planted with JRM (1.25/gallon)	0	0	1	U	2.2	-1	-1	-1	4x6 	26	1	5	-1	1	1
20bs7	121	Planted with JRM (1.25/gallon)	0	0	1	U	1.9	-1	-1	-1	4x6 	26	1	6	-1	1	1
20bs3	122	Planted with JRM (1.25/gallon)	0	0	1	U	2.6	-1	-1	-1	4x6 	26	1	7	-1	1	1
16ab3	123	Planted with JRM (1.25/gallon)	0	0	1	U	2.6	-1	-1	-1	4x6 	26	1	8	-1	1	1
4acag7	124	Planted with JRM (1.25/gallon)	0	0	1	U	2.3	-1	-1	-1	4x6 	26	1	9	-1	1	1
80aa3mf	125	Planted with JRM (1.25/gallon)	0	0	1	U	2.8	-1	-1	-1	4x6 	26	1	10	-1	1	1
80aa3mf	126	Planted with JRM (1.25/gallon)	Thin later	0	1	U	2.9	-1	-1	-1	4x6 	26	1	11	-1	1	1
89aa1	127	No JRM	0	0	1	U	2.1	-1	-1	-1	4x6 	26	1	12	-1	1	1
89aa1	128	No JRM	Thin later	0	1	U	2.3	-1	-1	-1	4x6 	26	1	13	-1	1	1
2b22	129	No JRM	0	0	1	U	2	-1	-1	-1	4x6 	26	1	14	-1	1	1
2b25	130	No JRM	0	0	1	U	1.8	-1	-1	-1	4x6 	26	1	15	-1	1	1
dn34	131	No JRM	2017 get whips	0	1	U	2.9	-1	-1	-1	4x6 	26	1	16	-1	1	1
dn34	132	No JRM	2017 get whips, thin later	0	1	U	2.7	-1	-1	-1	4x6 	26	1	17	-1	1	1
dn34	133	No JRM	2017 get whips	0	1	U	2.7	-1	-1	-1	4x6 	26	1	18	-1	1	1
dn34	134	No JRM	2017 get whips, thin later	Deer broke stem	1	U	1.8	-1	-1	-1	4x6 	26	1	19	-1	1	1
dn34	135	No JRM	2017 get whips	0	1	U	2.6	-1	-1	-1	4x6 	26	1	20	-1	1	1
1bw6	136	No JRM	0	0	1	U	2.8	-1	-1	-1	4x6 	26	1	21	-1	1	1
1bw6	137	No JRM	0	0	1	U	2.1	-1	-1	-1	4x6 	26	1	22	-1	1	1
105aa5	138	No JRM	0	0	1	U	2.3	-1	-1	-1	4x6 	26	1	23	-1	1	1
105aa5	139	No JRM	Thin later	0	1	U	2	-1	-1	-1	4x6 	26	1	24	-1	1	1
1bw1	140	Planted with JRM (1.25/gallon)	2017 get whips	0	1	U	1.6	-1	-1	-1	4x6 	26	1	25	-1	1	1
20bs1	141	Planted with JRM (1.25/gallon)	2017 get whips	0	1	U	3.4	-1	-1	-1	4x6 	26	1	26	-1	1	1
1bw1	142	Planted with JRM (1.25/gallon)	0	0	1	U	1.6	-1	-1	-1	4x6 	26	1	27	-1	1	1
97aa11	143	Planted with JRM (1.25/gallon)	Thin later	0	1	U	2.2	-1	-1	-1	4x6 	26	1	28	-1	1	1
3cagc3	144	Planted with JRM (1.25/gallon)	0	0	1	U	2.9	-1	-1	-1	4x6 	26	1	29	-1	1	1
4acag9	145	Planted with JRM (1.25/gallon)	0	0	1	U	3.2	-1	-1	-1	4x6 	26	1	30	-1	1	1
4acag9	146	Planted with JRM (1.25/gallon)	0	0	1	U	2.8	-1	-1	-1	4x6 	26	1	31	-1	1	1
92aa11	147	Planted with JRM (1.25/gallon)	Thin later	0	1	U	2.5	-1	-1	-1	4x6 	26	1	32	-1	1	1
92aa11	148	Planted with JRM (1.25/gallon)	0	0	1	U	2.4	-1	-1	-1	4x6 	26	1	33	-1	1	1
2b6	149	Planted with JRM (1.25/gallon)	2017 get whips, thin later	0	1	U	1.7	-1	-1	-1	4x6 	26	1	34	-1	1	1
2b6	150	Planted with JRM (1.25/gallon)	2017 get whips, thin later	0	1	U	1.4	-1	-1	-1	4x6 	26	1	35	-1	1	1
4acag4	151	Planted with JRM (1.25/gallon)	0	0	1	U	2	-1	-1	-1	4x6 	26	1	36	-1	1	1
4acag4	152	Planted with JRM (1.25/gallon)	0	0	1	U	2	-1	-1	-1	4x6 	26	1	37	-1	1	1
101aa11	153	Planted with JRM (1.25/gallon)	Thin later	0	1	U	2.4	-1	-1	-1	4x6 	26	1	38	-1	1	1
101aa11	154	Planted with JRM (1.25/gallon)	0	0	1	U	2.5	-1	-1	-1	4x6 	26	1	39	-1	1	1
101aa11	155	Planted with JRM (1.25/gallon)	Thin later	0	1	U	2.7	-1	-1	-1	4x6 	26	1	40	-1	1	1
2b4	156	Planted with JRM (1.25/gallon)	0	0	1	U	2.5	-1	-1	-1	4x6 	26	1	41	-1	1	1
2b64	157	Planted with JRM (1.25/gallon)	0	0	1	U	2.6	-1	-1	-1	4x6 	26	1	42	-1	1	1
2b50	158	Planted with JRM (1.25/gallon)	0	0	1	U	2	-1	-1	-1	4x6 	26	1	43	-1	1	1
2b62	159	Planted with JRM (1.25/gallon)	0	0	1	U	1.7	-1	-1	-1	4x6 	26	1	44	-1	1	1
c173	160	Planted with JRM (1.25/gallon)	2017 get whips	0	1	U	2.7	-1	-1	-1	4x6 	26	1	45	-1	1	1
c173	161	Planted with JRM (1.25/gallon)	2017 get whips, thin later	0	1	U	2	-1	-1	-1	4x6 	26	1	46	-1	1	1
c173	162	Planted with JRM (1.25/gallon)	2017 get whips	0	1	U	2.3	-1	-1	-1	4x6 	26	1	47	-1	1	1
98aa11	163	Planted with JRM (1.25/gallon), Whip with 1 inch roots	Thin later	0	1	U	1.6	-1	-1	-1	4x6 	26	1	48	-1	1	1
98aa11	164	Planted with JRM (1.25/gallon), Whip with 1 inch roots	0	0	1	U	1.4	-1	-1	-1	4x6 	26	1	49	-1	1	1
98aa11	165	Planted with JRM (1.25/gallon), Whip with 1 inch roots	Thin later	0	1	U	1.6	-1	-1	-1	4x6 	26	1	50	-1	1	1
101aa11	166	Planted with JRM (1.25/gallon), Whip with 1 inch roots	Thin later	0	1	U	2.2	-1	-1	-1	4x6 	26	1	51	-1	1	1
101aa11	167	Planted with JRM (1.25/gallon), Whip with 1 inch roots	0	0	1	U	1.7	-1	-1	-1	4x6 	26	1	52	-1	1	1
101aa11	168	Planted with JRM (1.25/gallon), Whip with 1 inch roots	Thin later	0	1	U	1.8	-1	-1	-1	4x6 	26	1	53	-1	1	1
105aa3	169	Planted with JRM (1.25/gallon), Whip with 1 inch roots	0	0	1	U	1.7	-1	-1	-1	4x6 	26	1	54	-1	1	1
16ab7	170	Planted with JRM (1.25/gallon), Whip with 1 inch roots	0	0	1	U	2.1	-1	-1	-1	4x6 	26	1	55	-1	1	1
105aa5	171	Planted with JRM (1.25/gallon), Whip with 1 inch roots	0	0	1	U	1.6	-1	-1	-1	4x6 	26	1	56	-1	1	1
4gw11	172	Planted with JRM (1.25/gallon)	0	0	1	U	2.3	-1	-1	-1	4x6 	26	2	1	-1	2	1
2b73	173	Planted with JRM (1.25/gallon)	0	0	1	U	2	-1	-1	-1	4x6 	26	2	2	-1	2	1
4gw12	174	Planted with JRM (1.25/gallon)	0	0	1	U	2.2	-1	-1	-1	4x6 	26	2	3	-1	2	1
2b68	175	Planted with JRM (1.25/gallon)	0	0	1	U	1.9	-1	-1	-1	4x6 	26	2	4	-1	2	1
16ab4	176	Planted with JRM (1.25/gallon)	0	0	1	U	2.2	-1	-1	-1	4x6 	26	2	5	-1	2	1
16ab8	177	Planted with JRM (1.25/gallon)	0	0	1	U	2.4	-1	-1	-1	4x6 	26	2	6	-1	2	1
20bs9	178	Planted with JRM (1.25/gallon)	0	0	1	U	3.6	-1	-1	-1	4x6 	26	2	7	-1	2	1
16ab1	179	Planted with JRM (1.25/gallon)	0	0	1	U	2.7	-1	-1	-1	4x6 	26	2	8	-1	2	1
98aa11	180	Planted with JRM (1.25/gallon)	Thin later	0	1	U	2.7	-1	-1	-1	4x6 	26	2	9	-1	2	1
98aa11	181	Planted with JRM (1.25/gallon)	0	0	1	U	2.9	-1	-1	-1	4x6 	26	2	10	-1	2	1
98aa11	182	Planted with JRM (1.25/gallon)	Thin later	0	1	U	2.6	-1	-1	-1	4x6 	26	2	11	-1	2	1
98aa11	183	Planted with JRM (1.25/gallon)	Thin later	0	1	U	2.5	-1	-1	-1	4x6 	26	2	12	-1	2	1
2b29	184	No JRM - May have figured wood	2017 get whips	0	1	U	2.8	-1	-1	-1	4x6 	26	2	13	-1	2	1
97aa11	185	No JRM	0	0	1	U	2.7	-1	-1	-1	4x6 	26	2	14	-1	2	1
zoss	186	No JRM	0	0	1	U	1.7	-1	-1	-1	4x6 	26	2	15	-1	2	1
2b6	187	No JRM	0	0	1	U	1.3	-1	-1	-1	4x6 	26	2	16	-1	2	1
100aa12	188	No JRM	0	0	1	U	2.8	-1	-1	-1	4x6 	26	2	17	-1	2	1
95aa11	189	No JRM	0	0	1	U	2.5	-1	-1	-1	4x6 	26	2	18	-1	2	1
95aa11	190	No JRM	Thin later	0	1	U	2.1	-1	-1	-1	4x6 	26	2	19	-1	2	1
105aa3	191	No JRM - whips with small roots	Thin later	0	1	U	1.4	-1	-1	-1	4x6 	26	2	20	-1	2	1
105aa3	192	No JRM - whips with small roots	0	0	1	U	1	-1	-1	-1	4x6 	26	2	21	-1	2	1
14b7	193	No JRM	2017 get whips	0	1	U	2	-1	-1	-1	4x6 	26	2	22	-1	2	1
105aa3	194	No JRM	Thin later	0	1	U	2.3	-1	-1	-1	4x6 	26	2	23	-1	2	1
105aa3	195	No JRM	0	0	1	U	2	-1	-1	-1	4x6 	26	2	24	-1	2	1
zoss	196	No JRM	Thin later	0	1	U	1.6	-1	-1	-1	4x6 	26	2	25	-1	2	1
zoss	197	No JRM	0	0	1	U	0.9	-1	-1	-1	4x6 	26	2	26	-1	2	1
2b3	198	100% 2b3 has JRM	2017 get whips	0	1	U	1.8	-1	-1	-1	4x6 	26	2	27	-1	2	1
2b3	199	Lost tag, verify. Has JRM	2017 get whips, thin later	0	1	U	1.3	-1	-1	-1	4x6 	26	2	28	-1	2	1
2b3	200	Lost tag, verify. Has JRM	2017 get whips	0	1	U	1.5	-1	-1	-1	4x6 	26	2	29	-1	2	1
2b25	201	Planted with JRM (1.25/gallon)	2017 get whips	0	1	U	2	-1	-1	-1	4x6 	26	2	30	-1	2	1
2b25	202	Planted with JRM (1.25/gallon)	2017 get whips, thin later	0	1	U	1.9	-1	-1	-1	4x6 	26	2	31	-1	2	1
100aa11	203	Planted with JRM (1.25/gallon)	2017 get whips	0	1	U	3.6	-1	-1	-1	4x6 	26	2	32	-1	2	1
100aa11	204	Planted with JRM (1.25/gallon)	2017 get whips, thin later	0	1	U	3.3	-1	-1	-1	4x6 	26	2	33	-1	2	1
100aa11	205	Planted with JRM (1.25/gallon)	2017 get whips	0	1	U	3.4	-1	-1	-1	4x6 	26	2	34	-1	2	1
100aa12	206	Planted with JRM (1.25/gallon)	Thin later	0	1	U	3.1	-1	-1	-1	4x6 	26	2	35	-1	2	1
100aa12	207	Planted with JRM (1.25/gallon)	0	0	1	U	3.2	-1	-1	-1	4x6 	26	2	36	-1	2	1
97aa12	208	Planted with JRM (1.25/gallon)	Thin later	0	1	U	2.7	-1	-1	-1	4x6 	26	2	37	-1	2	1
97aa12	209	Planted with JRM (1.25/gallon)	Thin later	0	1	U	2.5	-1	-1	-1	4x6 	26	2	38	-1	2	1
2b71	210	Planted with JRM (1.25/gallon)	2017 get whips	0	1	U	1.5	-1	-1	-1	4x6 	26	2	39	-1	2	1
2b22	211	Planted with JRM (1.25/gallon)	0	0	1	U	2.5	-1	-1	-1	4x6 	26	2	40	-1	2	1
2b22	212	Planted with JRM (1.25/gallon)	Thin later	0	1	U	1.9	-1	-1	-1	4x6 	26	2	41	-1	2	1
2b22	213	Planted with JRM (1.25/gallon)	0	0	1	U	2.3	-1	-1	-1	4x6 	26	2	42	-1	2	1
cag204	214	Planted with JRM (1.25/gallon)	2017 get whips	0	1	U	2	-1	-1	-1	4x6 	26	2	43	-1	2	1
2b21	215	Planted with JRM (1.25/gallon)	0	0	1	U	1.5	-1	-1	-1	4x6 	26	2	44	-1	2	1
2b21	216	Planted with JRM (1.25/gallon)	Thin later	0	1	U	1.2	-1	-1	-1	4x6 	26	2	45	-1	2	1
2b6	217	Planted with JRM (1.25/gallon), Whip with 1 inch roots	2017 get whips	0	1	U	1.3	-1	-1	-1	4x6 	26	2	46	-1	2	1
2b6	218	Planted with JRM (1.25/gallon), Whip with 1 inch roots	2017 get whips, thin later	0	1	U	1.1	-1	-1	-1	4x6 	26	2	47	-1	2	1
2b6	219	Planted with JRM (1.25/gallon), Whip with 1 inch roots	2017 get whips	0	1	U	1	-1	-1	-1	4x6 	26	2	48	-1	2	1
2b25	220	whip - 1 inch roots	0	0	1	U	1.3	-1	-1	-1	4x6 	26	2	49	-1	2	1
2b3	221	Planted with JRM (1.25/gallon), has good roots	0	0	1	U	1.4	-1	-1	-1	4x6 	26	2	50	-1	2	1
2b3	222	Planted with JRM (1.25/gallon), has good roots	Thin later	0	1	U	1.2	-1	-1	-1	4x6 	26	2	51	-1	2	1
2b3	223	Planted with JRM (1.25/gallon), has good roots	0	0	1	U	1.1	-1	-1	-1	4x6 	26	2	52	-1	2	1
2b21	224	Planted with JRM (1.25/gallon), Whip with 1 inch roots	2017 get whips	0	1	U	1.3	-1	-1	-1	4x6 	26	2	53	-1	2	1
2b21	225	Planted with JRM (1.25/gallon), Whip with 1 inch roots	2017 get whips, thin later	0	1	U	0.8	-1	-1	-1	4x6 	26	2	54	-1	2	1
2b21	226	Planted with JRM (1.25/gallon), Whip with 1 inch roots	2017 get whips	0	1	U	0.7	-1	-1	-1	4x6 	26	2	55	-1	2	1
105aa5	283	Planted with JRM (1.25/gallon), Whip with 1 inch roots	0	0	1	U	1.6	-1	-1	-1	4x6 	27	1	56	-1	1	1
2b21	227	Planted with JRM (1.25/gallon), Whip with 1 inch roots	2017 get whips	0	1	U	1.2	-1	-1	-1	4x6 	26	2	55	-1	2	1
gg8	228	Notes - PostNE - WEST Edge (Rows WtoE) Planted with JRM (1.25/gallon).  aka clone E4	Start 2016 Measure	Dead	0	U	0	-1	-1	-1	4x6 	27	1	1	-1	1	1
4gw10	229	Planted with JRM (1.25/gallon)	0	0	1	U	2	-1	-1	-1	4x6 	27	1	2	-1	1	1
2bg7	230	Planted with JRM (1.25/gallon)	0	0	1	U	2.1	-1	-1	-1	4x6 	27	1	3	-1	1	1
16ab2	231	Planted with JRM (1.25/gallon)	0	0	1	U	2.4	-1	-1	-1	4x6 	27	1	4	-1	1	1
4gw13	232	Planted with JRM (1.25/gallon)	0	0	1	U	2.2	-1	-1	-1	4x6 	27	1	5	-1	1	1
20bs7	233	Planted with JRM (1.25/gallon)	0	0	1	U	1.9	-1	-1	-1	4x6 	27	1	6	-1	1	1
20bs3	234	Planted with JRM (1.25/gallon)	0	0	1	U	2.6	-1	-1	-1	4x6 	27	1	7	-1	1	1
16ab3	235	Planted with JRM (1.25/gallon)	0	0	1	U	2.6	-1	-1	-1	4x6 	27	1	8	-1	1	1
4ab7	236	Planted with JRM (1.25/gallon)	0	0	1	U	2.3	-1	-1	-1	4x6 	27	1	9	-1	1	1
80aa3mf	237	Planted with JRM (1.25/gallon)	0	0	1	U	2.8	-1	-1	-1	4x6 	27	1	10	-1	1	1
80aa3mf	238	Planted with JRM (1.25/gallon)	Thin later	0	1	U	2.9	-1	-1	-1	4x6 	27	1	11	-1	1	1
89aa1	239	No JRM	0	0	1	U	2.1	-1	-1	-1	4x6 	27	1	12	-1	1	1
89aa1	240	No JRM	Thin later	0	1	U	2.3	-1	-1	-1	4x6 	27	1	13	-1	1	1
2b22	241	No JRM	0	0	1	U	2	-1	-1	-1	4x6 	27	1	14	-1	1	1
2b25	242	No JRM	0	0	1	U	1.8	-1	-1	-1	4x6 	27	1	15	-1	1	1
dn34	243	No JRM	2017 get whips	0	1	U	2.9	-1	-1	-1	4x6 	27	1	16	-1	1	1
dn34	244	No JRM	2017 get whips, thin later	0	1	U	2.7	-1	-1	-1	4x6 	27	1	17	-1	1	1
dn34	245	No JRM	2017 get whips	0	1	U	2.7	-1	-1	-1	4x6 	27	1	18	-1	1	1
dn34	246	No JRM	2017 get whips, thin later	Deer broke stem	1	U	1.8	-1	-1	-1	4x6 	27	1	19	-1	1	1
dn34	247	No JRM	2017 get whips	0	1	U	2.6	-1	-1	-1	4x6 	27	1	20	-1	1	1
1bw6	248	No JRM	0	0	1	U	2.8	-1	-1	-1	4x6 	27	1	21	-1	1	1
1bw6	249	No JRM	0	0	1	U	2.1	-1	-1	-1	4x6 	27	1	22	-1	1	1
105aa5	250	No JRM	0	0	1	U	2.3	-1	-1	-1	4x6 	27	1	23	-1	1	1
105aa5	251	No JRM	Thin later	0	1	U	2	-1	-1	-1	4x6 	27	1	24	-1	1	1
1bw1	252	Planted with JRM (1.25/gallon)	2017 get whips	0	1	U	1.6	-1	-1	-1	4x6 	27	1	25	-1	1	1
20bs1	253	Planted with JRM (1.25/gallon)	2017 get whips	0	1	U	3.4	-1	-1	-1	4x6 	27	1	26	-1	1	1
1bw1	254	Planted with JRM (1.25/gallon)	0	0	1	U	1.6	-1	-1	-1	4x6 	27	1	27	-1	1	1
97aa11	255	Planted with JRM (1.25/gallon)	Thin later	0	1	U	2.2	-1	-1	-1	4x6 	27	1	28	-1	1	1
3bc3	256	Planted with JRM (1.25/gallon)	0	0	1	U	2.9	-1	-1	-1	4x6 	27	1	29	-1	1	1
4ab9	257	Planted with JRM (1.25/gallon)	0	0	1	U	3.2	-1	-1	-1	4x6 	27	1	30	-1	1	1
4ab9	258	Planted with JRM (1.25/gallon)	0	0	1	U	2.8	-1	-1	-1	4x6 	27	1	31	-1	1	1
92aa11	259	Planted with JRM (1.25/gallon)	Thin later	0	1	U	2.5	-1	-1	-1	4x6 	27	1	32	-1	1	1
92aa11	260	Planted with JRM (1.25/gallon)	0	0	1	U	2.4	-1	-1	-1	4x6 	27	1	33	-1	1	1
2b6	261	Planted with JRM (1.25/gallon)	2017 get whips, thin later	0	1	U	1.7	-1	-1	-1	4x6 	27	1	34	-1	1	1
2b6	262	Planted with JRM (1.25/gallon)	2017 get whips, thin later	0	1	U	1.4	-1	-1	-1	4x6 	27	1	35	-1	1	1
4ab4	263	Planted with JRM (1.25/gallon)	0	0	1	U	2	-1	-1	-1	4x6 	27	1	36	-1	1	1
4ab4	264	Planted with JRM (1.25/gallon)	0	0	1	U	2	-1	-1	-1	4x6 	27	1	37	-1	1	1
101aa11	265	Planted with JRM (1.25/gallon)	Thin later	0	1	U	2.4	-1	-1	-1	4x6 	27	1	38	-1	1	1
101aa11	266	Planted with JRM (1.25/gallon)	0	0	1	U	2.5	-1	-1	-1	4x6 	27	1	39	-1	1	1
101aa11	267	Planted with JRM (1.25/gallon)	Thin later	0	1	U	2.7	-1	-1	-1	4x6 	27	1	40	-1	1	1
2b4	268	Planted with JRM (1.25/gallon)	0	0	1	U	2.5	-1	-1	-1	4x6 	27	1	41	-1	1	1
2b64	269	Planted with JRM (1.25/gallon)	0	0	1	U	2.6	-1	-1	-1	4x6 	27	1	42	-1	1	1
2b50	270	Planted with JRM (1.25/gallon)	0	0	1	U	2	-1	-1	-1	4x6 	27	1	43	-1	1	1
2b62	271	Planted with JRM (1.25/gallon)	0	0	1	U	1.7	-1	-1	-1	4x6 	27	1	44	-1	1	1
c173	272	Planted with JRM (1.25/gallon)	2017 get whips	0	1	U	2.7	-1	-1	-1	4x6 	27	1	45	-1	1	1
c173	273	Planted with JRM (1.25/gallon)	2017 get whips, thin later	0	1	U	2	-1	-1	-1	4x6 	27	1	46	-1	1	1
c173	274	Planted with JRM (1.25/gallon)	2017 get whips	0	1	U	2.3	-1	-1	-1	4x6 	27	1	47	-1	1	1
98aa11	275	Planted with JRM (1.25/gallon), Whip with 1 inch roots	Thin later	0	1	U	1.6	-1	-1	-1	4x6 	27	1	48	-1	1	1
98aa11	276	Planted with JRM (1.25/gallon), Whip with 1 inch roots	0	0	1	U	1.4	-1	-1	-1	4x6 	27	1	49	-1	1	1
98aa11	277	Planted with JRM (1.25/gallon), Whip with 1 inch roots	Thin later	0	1	U	1.6	-1	-1	-1	4x6 	27	1	50	-1	1	1
101aa11	278	Planted with JRM (1.25/gallon), Whip with 1 inch roots	Thin later	0	1	U	2.2	-1	-1	-1	4x6 	27	1	51	-1	1	1
101aa11	279	Planted with JRM (1.25/gallon), Whip with 1 inch roots	0	0	1	U	1.7	-1	-1	-1	4x6 	27	1	52	-1	1	1
101aa11	280	Planted with JRM (1.25/gallon), Whip with 1 inch roots	Thin later	0	1	U	1.8	-1	-1	-1	4x6 	27	1	53	-1	1	1
105aa3	281	Planted with JRM (1.25/gallon), Whip with 1 inch roots	0	0	1	U	1.7	-1	-1	-1	4x6 	27	1	54	-1	1	1
16ab7	282	Planted with JRM (1.25/gallon), Whip with 1 inch roots	0	0	1	U	2.1	-1	-1	-1	4x6 	27	1	55	-1	1	1
4gw11	284	Start 2017 row 1 secondary planting	0	0	1	U	-1	-1	-1	-1	8x10	27	1	57	-1	1	1
zoss	285	0	0	0	1	U	-1	-1	-1	-1	8x10	27	1	58	-1	1	1
2b66	286	0	0	0	1	U	0.8	-1	-1	-1	8x10	27	1	59	-1	1	1
98aa11	287	0	0	0	1	U	-1	-1	-1	-1	8x10	27	1	60	-1	1	1
14b16	288	0	0	0	1	U	-1	-1	-1	-1	8x10	27	1	61	-1	1	1
14b16	289	0	0	0	1	U	-1	-1	-1	-1	8x10	27	1	62	-1	1	1
15b5	290	0	0	0	1	U	0.9	-1	-1	-1	8x10	27	1	63	-1	1	1
19gb1	291	0	0	0	1	U	0.8	-1	-1	-1	8x10	27	1	64	-1	1	1
14b18	292	0	0	0	1	U	-1	-1	-1	-1	8x10	27	1	65	-1	1	1
16ab1	293	0	0	0	1	U	1.9	-1	-1	-1	8x10	27	1	66	-1	1	1
14b6	294	0	0	0	1	U	-1	-1	-1	-1	8x10	27	1	67	-1	1	1
18bg17	295	0	0	0	1	U	-1	-1	-1	-1	8x10	27	1	68	-1	1	1
14b14	296	0	0	0	1	U	-1	-1	-1	-1	8x10	27	1	69	-1	1	1
14b30	297	0	0	0	1	U	-1	-1	-1	-1	8x10	27	1	70	-1	1	1
2b24	298	0	0	0	1	U	0.1	-1	-1	-1	8x10	27	1	71	-1	1	1
15b14	299	0	0	0	1	U	1.9	-1	-1	-1	8x10	27	1	72	-1	1	1
19gb9	300	0	0	0	1	U	-1	-1	-1	-1	8x10	27	1	73	-1	1	1
2b7	301	0	0	0	1	U	-1	-1	-1	-1	8x10	27	1	74	-1	1	1
14b13	302	0	0	0	1	U	-1	-1	-1	-1	8x10	27	1	75	-1	1	1
15b8	303	0	0	0	1	U	-1	-1	-1	-1	8x10	27	1	76	-1	1	1
15b11	304	0	0	0	1	U	-1	-1	-1	-1	8x10	27	1	77	-1	1	1
14b11	305	End of Row 1, Secondary trees	0	0	1	U	-1	-1	-1	-1	8x10	27	1	78	-1	1	1
4gw11	306	Planted with JRM (1.25/gallon)	0	Start row 2, secondary trees	1	U	2.3	-1	-1	-1	4x6 	27	2	1	-1	2	1
2b73	307	Planted with JRM (1.25/gallon)	0	0	1	U	2	-1	-1	-1	4x6 	27	2	2	-1	2	1
4gw12	308	Planted with JRM (1.25/gallon)	0	0	1	U	2.2	-1	-1	-1	4x6 	27	2	3	-1	2	1
2b68	309	Planted with JRM (1.25/gallon)	0	0	1	U	1.9	-1	-1	-1	4x6 	27	2	4	-1	2	1
16ab4	310	Planted with JRM (1.25/gallon)	0	0	1	U	2.2	-1	-1	-1	4x6 	27	2	5	-1	2	1
16ab8	311	Planted with JRM (1.25/gallon)	0	0	1	U	2.4	-1	-1	-1	4x6 	27	2	6	-1	2	1
20bs9	312	Planted with JRM (1.25/gallon)	0	0	1	U	3.6	-1	-1	-1	4x6 	27	2	7	-1	2	1
16ab1	313	Planted with JRM (1.25/gallon)	0	0	1	U	2.7	-1	-1	-1	4x6 	27	2	8	-1	2	1
98aa11	314	Planted with JRM (1.25/gallon)	Thin later	0	1	U	2.7	-1	-1	-1	4x6 	27	2	9	-1	2	1
98aa11	315	Planted with JRM (1.25/gallon)	0	0	1	U	2.9	-1	-1	-1	4x6 	27	2	10	-1	2	1
98aa11	316	Planted with JRM (1.25/gallon)	Thin later	0	1	U	2.6	-1	-1	-1	4x6 	27	2	11	-1	2	1
98aa11	317	Planted with JRM (1.25/gallon)	Thin later	0	1	U	2.5	-1	-1	-1	4x6 	27	2	12	-1	2	1
2b29	318	No JRM - May have figured wood	2017 get whips	0	1	U	2.8	-1	-1	-1	4x6 	27	2	13	-1	2	1
97aa11	319	No JRM	0	0	1	U	2.7	-1	-1	-1	4x6 	27	2	14	-1	2	1
zoss	320	No JRM	0	0	1	U	1.7	-1	-1	-1	4x6 	27	2	15	-1	2	1
2b6	321	No JRM	0	0	1	U	1.3	-1	-1	-1	4x6 	27	2	16	-1	2	1
100aa12	322	No JRM	0	0	1	U	2.8	-1	-1	-1	4x6 	27	2	17	-1	2	1
95aa11	323	No JRM	0	0	1	U	2.5	-1	-1	-1	4x6 	27	2	18	-1	2	1
95aa11	324	No JRM	Thin later	0	1	U	2.1	-1	-1	-1	4x6 	27	2	19	-1	2	1
105aa3	325	No JRM - whips with small roots	Thin later	0	1	U	1.4	-1	-1	-1	4x6 	27	2	20	-1	2	1
105aa3	326	No JRM - whips with small roots	0	0	1	U	1	-1	-1	-1	4x6 	27	2	21	-1	2	1
14b7	327	No JRM	2017 get whips	0	1	U	2	-1	-1	-1	4x6 	27	2	22	-1	2	1
105aa3	328	No JRM	Thin later	0	1	U	2.3	-1	-1	-1	4x6 	27	2	23	-1	2	1
105aa3	329	No JRM	0	0	1	U	2	-1	-1	-1	4x6 	27	2	24	-1	2	1
zoss	330	No JRM	Thin later	0	1	U	1.6	-1	-1	-1	4x6 	27	2	25	-1	2	1
zoss	331	No JRM	0	0	1	U	0.9	-1	-1	-1	4x6 	27	2	26	-1	2	1
2b3	332	100% 2b3 has JRM	2017 get whips	0	1	U	1.8	-1	-1	-1	4x6 	27	2	27	-1	2	1
2b3	333	Lost tag, verify. Has JRM	2017 get whips, thin later	0	1	U	1.3	-1	-1	-1	4x6 	27	2	28	-1	2	1
2b3	334	Lost tag, verify. Has JRM	2017 get whips	0	1	U	1.5	-1	-1	-1	4x6 	27	2	29	-1	2	1
2b25	335	Planted with JRM (1.25/gallon)	2017 get whips	0	1	U	2	-1	-1	-1	4x6 	27	2	30	-1	2	1
2b25	336	Planted with JRM (1.25/gallon)	2017 get whips, thin later	0	1	U	1.9	-1	-1	-1	4x6 	27	2	31	-1	2	1
100aa11	337	Planted with JRM (1.25/gallon)	2017 get whips	0	1	U	3.6	-1	-1	-1	4x6 	27	2	32	-1	2	1
100aa11	338	Planted with JRM (1.25/gallon)	2017 get whips, thin later	0	1	U	3.3	-1	-1	-1	4x6 	27	2	33	-1	2	1
100aa11	339	Planted with JRM (1.25/gallon)	2017 get whips	0	1	U	3.4	-1	-1	-1	4x6 	27	2	34	-1	2	1
100aa12	340	Planted with JRM (1.25/gallon)	Thin later	0	1	U	3.1	-1	-1	-1	4x6 	27	2	35	-1	2	1
100aa12	341	Planted with JRM (1.25/gallon)	0	0	1	U	3.2	-1	-1	-1	4x6 	27	2	36	-1	2	1
97aa12	342	Planted with JRM (1.25/gallon)	Thin later	0	1	U	2.7	-1	-1	-1	4x6 	27	2	37	-1	2	1
97aa12	343	Planted with JRM (1.25/gallon)	Thin later	0	1	U	2.5	-1	-1	-1	4x6 	27	2	38	-1	2	1
2b71	344	Planted with JRM (1.25/gallon)	2017 get whips	0	1	U	1.5	-1	-1	-1	4x6 	27	2	39	-1	2	1
2b22	345	Planted with JRM (1.25/gallon)	0	0	1	U	2.5	-1	-1	-1	4x6 	27	2	40	-1	2	1
2b22	346	Planted with JRM (1.25/gallon)	Thin later	0	1	U	1.9	-1	-1	-1	4x6 	27	2	41	-1	2	1
2b22	347	Planted with JRM (1.25/gallon)	0	0	1	U	2.3	-1	-1	-1	4x6 	27	2	42	-1	2	1
cag204	348	Planted with JRM (1.25/gallon)	2017 get whips	0	1	U	2	-1	-1	-1	4x6 	27	2	43	-1	2	1
2b21	349	Planted with JRM (1.25/gallon)	0	0	1	U	1.5	-1	-1	-1	4x6 	27	2	44	-1	2	1
2b21	350	Planted with JRM (1.25/gallon)	Thin later	0	1	U	1.2	-1	-1	-1	4x6 	27	2	45	-1	2	1
2b6	351	Planted with JRM (1.25/gallon), Whip with 1 inch roots	2017 get whips	0	1	U	1.3	-1	-1	-1	4x6 	27	2	46	-1	2	1
2b6	352	Planted with JRM (1.25/gallon), Whip with 1 inch roots	2017 get whips, thin later	0	1	U	1.1	-1	-1	-1	4x6 	27	2	47	-1	2	1
2b6	353	Planted with JRM (1.25/gallon), Whip with 1 inch roots	2017 get whips	0	1	U	1	-1	-1	-1	4x6 	27	2	48	-1	2	1
2b25	354	whip - 1 inch roots	0	0	1	U	1.3	-1	-1	-1	4x6 	27	2	49	-1	2	1
2b3	355	Planted with JRM (1.25/gallon), has good roots	0	0	1	U	1.4	-1	-1	-1	4x6 	27	2	50	-1	2	1
2b3	356	Planted with JRM (1.25/gallon), has good roots	Thin later	0	1	U	1.2	-1	-1	-1	4x6 	27	2	51	-1	2	1
2b3	357	Planted with JRM (1.25/gallon), has good roots	0	0	1	U	1.1	-1	-1	-1	4x6 	27	2	52	-1	2	1
2b21	358	Planted with JRM (1.25/gallon), Whip with 1 inch roots	2017 get whips	0	1	U	1.3	-1	-1	-1	4x6 	27	2	53	-1	2	1
2b21	359	Planted with JRM (1.25/gallon), Whip with 1 inch roots	2017 get whips, thin later	0	1	U	0.8	-1	-1	-1	4x6 	27	2	54	-1	2	1
2b21	360	Planted with JRM (1.25/gallon), Whip with 1 inch roots	2017 get whips	0	1	U	0.7	-1	-1	-1	4x6 	27	2	55	-1	2	1
2b21	361	Planted with JRM (1.25/gallon), Whip with 1 inch roots	2017 get whips	0	1	U	1.2	-1	-1	-1	4x6 	27	2	55	-1	2	1
93aa11	362	Start 2017 row 2 secondary planting	0	0	1	U	-1	-1	-1	-1	8x10	27	2	56	-1	2	1
93aa11	363	0	0	0	1	U	-1	-1	-1	-1	8x10	27	2	57	-1	2	1
2b80	364	0	0	0	1	U	-1	-1	-1	-1	8x10	27	2	58	-1	2	1
8bg8	365	0	0	0	1	U	-1	-1	-1	-1	8x10	27	2	59	-1	2	1
6ba2	366	0	0	0	1	U	-1	-1	-1	-1	8x10	27	2	60	-1	2	1
2b55	367	0	0	0	1	U	-1	-1	-1	-1	8x10	27	2	61	-1	2	1
4ab9	368	0	0	0	1	U	-1	-1	-1	-1	8x10	27	2	62	-1	2	1
8bg21	369	0	0	0	1	U	-1	-1	-1	-1	8x10	27	2	63	-1	2	1
2b67	370	0	0	0	1	U	-1	-1	-1	-1	8x10	27	2	64	-1	2	1
2b63	371	0	0	0	1	U	-1	-1	-1	-1	8x10	27	2	65	-1	2	1
2b68	372	0	0	0	1	U	-1	-1	-1	-1	8x10	27	2	66	-1	2	1
3bc4	373	0	0	0	1	U	-1	-1	-1	-1	8x10	27	2	67	-1	2	1
aag2001	374	0	0	0	1	U	-1	-1	-1	-1	8x10	27	2	68	-1	2	1
aag2001	375	0	0	0	1	U	-1	-1	-1	-1	8x10	27	2	69	-1	2	1
7bt7	376	0	0	0	1	U	-1	-1	-1	-1	8x10	27	2	70	-1	2	1
83aa70	377	0	0	0	1	U	-1	-1	-1	-1	8x10	27	2	71	-1	2	1
aesg3	378	0	0	0	1	U	-1	-1	-1	-1	8x10	27	2	72	-1	2	1
aesg3	379	0	0	0	1	U	-1	-1	-1	-1	8x10	27	2	73	-1	2	1
2b62	380	0	0	0	1	U	-1	-1	-1	-1	8x10	27	2	74	-1	2	1
aa4102	381	0	0	0	1	U	-1	-1	-1	-1	8x10	27	2	75	-1	2	1
aa4102	382	0	0	0	1	U	0.4	-1	-1	-1	8x10	27	2	76	-1	2	1
92aa11	383	0	0	0	1	U	-1	-1	-1	-1	8x10	27	2	77	-1	2	1
3bc5	384	0	0	0	1	U	-1	-1	-1	-1	8x10	27	2	78	-1	2	1
tc72	385	0	0	0	1	U	-1	-1	-1	-1	8x10	27	2	79	-1	2	1
tc72	386	0	0	0	1	U	-1	-1	-1	-1	8x10	27	2	80	-1	2	1
14b19	387	0	0	0	1	U	-1	-1	-1	-1	8x10	27	2	81	-1	2	1
14b4	388	End of Row 2, Secondary trees	0	0	1	U	-1	-1	-1	-1	8x10	27	2	82	-1	2	1
dn34	389	Start 2017 row 3 Primary clones	Woven textile with 2 halves, plastic staples	0	1	U	-1	-1	-1	-1	8x10	27	3	1	-1	3	2
dn34	390	0	Woven textile with 2 halves, plastic staples	0	1	U	-1	-1	-1	-1	8x10	27	3	2	-1	3	2
dn34	391	0	Woven textile with 2 halves, plastic staples	0	1	U	-1	-1	-1	-1	8x10	27	3	3	-1	3	2
4ab4	392	0	Woven textile with 2 halves, plastic staples	0	1	U	-1	-1	-1	-1	8x10	27	3	4	-1	3	2
4ab4	393	0	Woven textile with 2 halves, plastic staples	0	1	U	-1	-1	-1	-1	8x10	27	3	5	-1	3	2
cag204	394	0	Woven textile with 2 halves, plastic staples	0	1	U	-1	-1	-1	-1	8x10	27	3	6	-1	3	2
5br3	395	0	Woven textile with 2 halves, plastic staples	0	1	U	-1	-1	-1	-1	8x10	27	3	7	-1	3	2
5br3	396	0	Woven textile with 2 halves, plastic staples	0	1	U	-1	-1	-1	-1	8x10	27	3	8	-1	3	2
8bg3	397	0	Woven textile with 2 halves, plastic staples	0	1	U	-1	-1	-1	-1	8x10	27	3	9	-1	3	2
8bg3	398	0	Woven textile with 2 halves, plastic staples	0	1	U	-1	-1	-1	-1	8x10	27	3	10	-1	3	2
2b52	399	0	One folded piece woven textile with ss staples	0	1	U	-1	-1	-1	-1	8x10	27	3	11	-1	3	2
2b52	400	0	One folded piece woven textile with ss staples	0	1	U	-1	-1	-1	-1	8x10	27	3	12	-1	3	2
2b55	401	0	One folded piece woven textile with ss staples	0	1	U	-1	-1	-1	-1	8x10	27	3	13	-1	3	2
2b55	402	0	One folded piece woven textile with ss staples	0	1	U	-1	-1	-1	-1	8x10	27	3	14	-1	3	2
18bg19	403	0	One folded piece woven textile with ss staples	0	1	U	-1	-1	-1	-1	8x10	27	3	15	-1	3	2
18bg19	404	0	One folded piece woven textile with ss staples	0	1	U	-1	-1	-1	-1	8x10	27	3	16	-1	3	2
3bc1	405	0	One folded piece woven textile with ss staples	0	1	U	-1	-1	-1	-1	8x10	27	3	17	-1	3	2
3bc1	406	0	One folded piece woven textile with ss staples	0	1	U	-1	-1	-1	-1	8x10	27	3	18	-1	3	2
2b3	407	0	One folded piece woven textile with ss staples	0	1	U	-1	-1	-1	-1	8x10	27	3	19	-1	3	2
2b3	408	0	One folded piece woven textile with ss staples	0	1	U	-1	-1	-1	-1	8x10	27	3	20	-1	3	2
2b25	409	0	One folded piece woven textile with ss staples	0	1	U	-1	-1	-1	-1	8x10	27	3	21	-1	3	2
2b25	410	0	One folded piece woven textile with ss staples	0	1	U	-1	-1	-1	-1	8x10	27	3	22	-1	3	2
11ab10	411	0	One folded piece woven textile with ss staples	0	1	U	-1	-1	-1	-1	8x10	27	3	23	-1	3	2
11ab10	412	0	One folded piece woven textile with ss staples	0	1	U	-1	-1	-1	-1	8x10	27	3	24	-1	3	2
11ab22	413	0	One folded piece woven textile with ss staples	0	1	U	-1	-1	-1	-1	8x10	27	3	25	-1	3	2
11ab22	414	0	One folded piece woven textile with ss staples	0	1	U	-1	-1	-1	-1	8x10	27	3	26	-1	3	2
14b7	415	0	One folded piece woven textile with ss staples	0	1	U	-1	-1	-1	-1	8x10	27	3	27	-1	3	2
14b7	416	0	One folded piece woven textile with ss staples	0	1	U	-1	-1	-1	-1	8x10	27	3	28	-1	3	2
14b21	417	0	One folded piece woven textile with ss staples	0	1	U	-1	-1	-1	-1	8x10	27	3	29	-1	3	2
14b21	418	0	One folded piece woven textile with ss staples	0	1	U	-1	-1	-1	-1	8x10	27	3	30	-1	3	2
14b10	419	0	One folded piece woven textile with ss staples	0	1	U	-1	-1	-1	-1	8x10	27	3	31	-1	3	2
14b10	420	0	One folded piece woven textile with ss staples	0	1	U	-1	-1	-1	-1	8x10	27	3	32	-1	3	2
16ab8	421	0	One folded piece woven textile with ss staples	0	1	U	-1	-1	-1	-1	8x10	27	3	33	-1	3	2
16ab8	422	0	One folded piece woven textile with ss staples	0	1	U	-1	-1	-1	-1	8x10	27	3	34	-1	3	2
23ba11	423	0	One folded piece woven textile with ss staples	0	1	U	-1	-1	-1	-1	8x10	27	3	35	-1	3	2
23ba11	424	0	One folded piece woven textile with ss staples	0	1	U	-1	-1	-1	-1	8x10	27	3	36	-1	3	2
100aa12	425	0	One folded piece woven textile with ss staples	0	1	U	-1	-1	-1	-1	8x10	27	3	37	-1	3	2
100aa12	426	0	One folded piece woven textile with ss staples	0	1	U	-1	-1	-1	-1	8x10	27	3	38	-1	3	2
105aa3	427	0	One folded piece woven textile with ss staples	0	1	U	-1	-1	-1	-1	8x10	27	3	39	-1	3	2
105aa3	428	0	One folded piece woven textile with ss staples	0	1	U	-1	-1	-1	-1	8x10	27	3	40	-1	3	2
106aa7	429	End of Row 3, Primary trees	One folded piece woven textile with ss staples	0	1	U	-1	-1	-1	-1	8x10	27	3	41	-1	3	2
2b29	430	Start row 3, Secondary trees	One folded piece woven textile with ss staples	0	1	U	-1	-1	-1	-1	8x10	27	3	42	-1	3	2
2b29	431	0	One folded piece woven textile with ss staples	0	1	U	-1	-1	-1	-1	8x10	27	3	43	-1	3	2
14b30	432	0	One folded piece woven textile with ss staples	0	1	U	-1	-1	-1	-1	8x10	27	3	44	-1	3	2
2b4	433	0	One folded piece woven textile with ss staples	0	1	U	-1	-1	-1	-1	8x10	27	3	45	-1	3	2
2b4	434	0	One folded piece woven textile with ss staples	0	1	U	-1	-1	-1	-1	8x10	27	3	46	-1	3	2
22bg8	435	0	One folded piece woven textile with ss staples	0	1	U	-1	-1	-1	-1	8x10	27	3	47	-1	3	2
14b17	436	0	One folded piece woven textile with ss staples	0	1	U	-1	-1	-1	-1	8x10	27	3	48	-1	3	2
23ba5	437	0	One folded piece woven textile with ss staples	0	1	U	-1	-1	-1	-1	8x10	27	3	49	-1	3	2
11ab11	438	0	One folded piece woven textile with ss staples	0	1	U	-1	-1	-1	-1	8x10	27	3	50	-1	3	2
106aa3	439	0	One folded piece woven textile with ss staples	0	1	U	-1	-1	-1	-1	8x10	27	3	51	-1	3	2
22bg7	440	End of Row 3, Secondary trees	One folded piece woven textile with ss staples	0	1	U	-1	-1	-1	-1	8x10	27	3	52	-1	3	2
dn34	441	Start 2017 row 4 Primary clones	Woven textile with 2 halves, ss staples	0	1	U	-1	-1	-1	-1	8x10	27	4	1	-1	4	2
dn34	442	0	Woven textile with 2 halves, ss staples	0	1	U	-1	-1	-1	-1	8x10	27	4	2	-1	4	2
dn34	443	0	Woven textile with 2 halves, ss staples	0	1	U	-1	-1	-1	-1	8x10	27	4	3	-1	4	2
7bt1	444	0	Woven textile with 2 halves, ss staples	0	1	U	-1	-1	-1	-1	8x10	27	4	4	-1	4	2
7bt1	445	0	Woven textile with 2 halves, ss staples	0	1	U	-1	-1	-1	-1	8x10	27	4	5	-1	4	2
3bc3	446	0	Woven textile with 2 halves, ss staples	0	1	U	-1	-1	-1	-1	8x10	27	4	6	-1	4	2
3bc3	447	0	Woven textile with 2 halves, ss staples	0	1	U	-1	-1	-1	-1	8x10	27	4	7	-1	4	2
8bg9	448	0	Woven textile with 2 halves, ss staples	0	1	U	-1	-1	-1	-1	8x10	27	4	8	-1	4	2
8bg9	449	0	Woven textile with 2 halves, ss staples	0	1	U	-1	-1	-1	-1	8x10	27	4	9	-1	4	2
2b6	450	0	Woven textile with 2 halves, ss staples	0	1	U	-1	-1	-1	-1	8x10	27	4	10	-1	4	2
2b6	451	0	Woven textile with 2 halves, ss staples	0	1	U	-1	-1	-1	-1	8x10	27	4	11	-1	4	2
8gb2	452	0	Non-Woven textile folded, ss staples	0	1	U	0.7	-1	-1	-1	8x10	27	4	12	-1	4	2
8gb2	453	0	Non-Woven textile folded, ss staples	0	1	U	0.5	-1	-1	-1	8x10	27	4	13	-1	4	2
2b71	454	0	Non-Woven textile folded, ss staples	0	1	U	-1	-1	-1	-1	8x10	27	4	14	-1	4	2
2b71	455	0	Non-Woven textile folded, ss staples	0	1	U	0.8	-1	-1	-1	8x10	27	4	15	-1	4	2
18bg2	456	0	Non-Woven textile folded, ss staples	0	1	U	-1	-1	-1	-1	8x10	27	4	16	-1	4	2
18bg2	457	0	Non-Woven textile folded, ss staples	0	1	U	0.8	-1	-1	-1	8x10	27	4	17	-1	4	2
18bg25	458	0	Non-Woven textile folded, ss staples	0	1	U	0.8	-1	-1	-1	8x10	27	4	18	-1	4	2
18bg25	459	0	Non-Woven textile folded, ss staples	0	1	U	0.8	-1	-1	-1	8x10	27	4	19	-1	4	2
2b21	460	0	Non-Woven textile folded, ss staples	0	1	U	0.6	-1	-1	-1	8x10	27	4	20	-1	4	2
2b21	461	0	Non-Woven textile folded, ss staples	0	1	U	0.8	-1	-1	-1	8x10	27	4	21	-1	4	2
a502	462	0	Non-Woven textile folded, ss staples	0	1	U	-1	-1	-1	-1	8x10	27	4	22	-1	4	2
1bw6	463	0	Non-Woven textile folded, ss staples	0	1	U	-1	-1	-1	-1	8x10	27	4	23	-1	4	2
1bw6	464	0	Non-Woven textile folded, ss staples	0	1	U	-1	-1	-1	-1	8x10	27	4	24	-1	4	2
23ba15	465	0	Non-Woven textile folded, ss staples	0	1	U	1	-1	-1	-1	8x10	27	4	25	-1	4	2
23ba15	466	0	Non-Woven textile folded, ss staples	0	1	U	1	-1	-1	-1	8x10	27	4	26	-1	4	2
22bg1	467	0	Non-Woven textile folded, ss staples	0	1	U	-1	-1	-1	-1	8x10	27	4	27	-1	4	2
22bg1	468	0	Non-Woven textile folded, ss staples	0	1	U	-1	-1	-1	-1	8x10	27	4	28	-1	4	2
23ba18	469	0	Non-Woven textile folded, ss staples	0	1	U	-1	-1	-1	-1	8x10	27	4	29	-1	4	2
23ba18	470	0	Non-Woven textile folded, ss staples	0	1	U	-1	-1	-1	-1	8x10	27	4	30	-1	4	2
14b31	471	0	Non-Woven textile folded, ss staples	0	1	U	0.8	-1	-1	-1	8x10	27	4	31	-1	4	2
14b31	472	0	Non-Woven textile folded, ss staples	0	1	U	0.7	-1	-1	-1	8x10	27	4	32	-1	4	2
20bs1	473	0	Non-Woven textile folded, ss staples	0	1	U	-1	-1	-1	-1	8x10	27	4	33	-1	4	2
20bs1	474	0	Non-Woven textile folded, ss staples	0	1	U	-1	-1	-1	-1	8x10	27	4	34	-1	4	2
23ba10	475	0	Non-Woven textile folded, ss staples	0	1	U	-1	-1	-1	-1	8x10	27	4	35	-1	4	2
23ba10	476	0	Non-Woven textile folded, ss staples	0	1	U	-1	-1	-1	-1	8x10	27	4	36	-1	4	2
105aa5	477	0	Non-Woven textile folded, ss staples	0	1	U	-1	-1	-1	-1	8x10	27	4	37	-1	4	2
105aa5	478	0	Non-Woven textile folded, ss staples	0	1	U	-1	-1	-1	-1	8x10	27	4	38	-1	4	2
100aa11	479	0	Non-Woven textile folded, ss staples	0	1	U	-1	-1	-1	-1	8x10	27	4	39	-1	4	2
100aa11	480	End of Row 4, Primary trees	Non-Woven textile folded, ss staples	0	1	U	-1	-1	-1	-1	8x10	27	4	40	-1	4	2
gg7	481	Start row 4, Secondary planting	One folded piece woven textile with ss staples	House FW clone	1	U	-1	-1	-1	-1	8x10	27	4	50	-1	4	2
gg7	482	0	One folded piece woven textile with ss staples	House FW clone	1	U	-1	-1	-1	-1	8x10	27	4	51	-1	4	2
gg7	483	0	One folded piece woven textile with ss staples	House FW clone	1	U	-1	-1	-1	-1	8x10	27	4	52	-1	4	2
23ba2	484	0	One folded piece woven textile with ss staples	curly stem	1	U	0.7	-1	-1	-1	8x10	27	4	53	-1	4	2
104aa12	485	0	One folded piece woven textile with ss staples	0	1	U	-1	-1	-1	-1	8x10	27	4	54	-1	4	2
20bs6	486	0	One folded piece woven textile with ss staples	0	1	U	-1	-1	-1	-1	8x10	27	4	55	-1	4	2
20bs8	487	0	One folded piece woven textile with ss staples	0	1	U	-1	-1	-1	-1	8x10	27	4	56	-1	4	2
11ab3	488	0	One folded piece woven textile with ss staples	0	1	U	-1	-1	-1	-1	8x10	27	4	57	-1	4	2
106aa1	489	0	One folded piece woven textile with ss staples	0	1	U	1.9	-1	-1	-1	8x10	27	4	58	-1	4	2
20bs5	490	0	One folded piece woven textile with ss staples	0	1	U	-1	-1	-1	-1	8x10	27	4	59	-1	4	2
107aa7	491	End of Row 4, Secondary trees	One folded piece woven textile with ss staples	0	1	U	-1	-1	-1	-1	8x10	27	4	60	-1	4	2
\.


--
-- Name: field_trial_id_seq; Type: SEQUENCE SET; Schema: public; Owner: dad
--

SELECT pg_catalog.setval('field_trial_id_seq', 1, false);


--
-- Data for Name: journal; Type: TABLE DATA; Schema: public; Owner: dad
--

COPY journal (journal_key, id, notes, author, id_plant, id_family, id_test_spec, id_site, date, web_url) FROM stdin;
TBD	1	To Be Determined	0	2	2	2	2	1111-11-11	0
NA	2	Does Not Apply	0	2	2	2	2	1111-11-11	0
2012-bell-nursery	3	Planted 2012-bell-nursery.\tHalf of the 2012 cutting stock was stored in the Bell Ave. refrigerator and sprouted/rooted due to high temperatures.  The other half was stored in Ryan's refrigerator and suffered no damage.  About 1/4 of the entire stock was severely impacted by this issue.   All of the pre-maturely rooted stock was planted at the beginning of each replication.  The second replication was affected the most.  I planted the stock as is by forcing them into the ground with no special treatment.  March was much warmer than April (first time in 100yrs) and April had many frosty mornings which may have been stressful on cuttings.  The nursery was kept moist as needed with irrigation. 	pmcgovern	2	2	14	2	2012-04-06	https://picasaweb.google.com/102384333186727094185/2012BellNursery?authkey=Gv1sRgCOaGtpflhvz1lgE#
2012-bell-nursery	4	I put red straws next to early and vigorously growing and good rooting clones.  Selection criteria was for clones with at least 90% survival and averaging at least 6 height on 5/30/12.	pmcgovern	2	2	14	2	2012-05-30	0
2011-RNE-AlbaPolePlanting	5	Planted 3 clones at RNE as pole stock in early November 2011.  I used a 2' auger attached to a portable drill.  	pmcgovern	2	2	17	2	2011-11-05	0
2011-RNE-AlbaPolePlanting	6	On 4/21/12 I sprayed Round around these pole plantings.  We had a warmer March and a frosty/cold April.  It really hit these hard... 	pmcgovern	2	2	17	2	2012-04-21	0
2011-RNE-AlbaPolePlanting	7	On 6/23/12. I sprayed Round around these pole plantings.  Only one 83AA204 tree survived and it was pruned back by deer browse...	pmcgovern	2	2	17	2	2012-06-23	0
2011-1xCAGW-Cross	8	Planted 2 flats of this 2011 seed in 2012, cut tips today.\tObserved that there are 2 general types of seedlings, alba (tomentose on leaf undersides) and aspen like (no tomentose) on leaf undersides.  I counted 174 total seedlings in Flat B with 47 aspen types (27%) and 109 in Flat A with 33 aspen types (30%). 	pmcgovern	2	2	16	2	2012-06-23	https://picasaweb.google.com/102384333186727094185/2012Bell1xCAGW?authkey=Gv1sRgCMWFmdfgztGngQE
2012-2xCAG12-Cross	9	C173 x AG15 - planted about 350 seedlings on 6/16/12 that were grown indoors under flourescent lights.  Seedlings today are average 5 tall and in good health.	pmcgovern	2	2	15	2	2012-06-28	0
1CAGW01	10	Selected this clone today from the 1xCAGW family.  It is vigorous and leaves are healthy.  Observed another aspen like clone from the same family with yellow rust like leaf spots...	pmcgovern	181	171	14	2	2012-06-28	0
2012-2xCAG12-Cross	11	Most of the 2xCAG12 seedlings have set bud.  A few are over 6' tall, some are 5' tall the average is about 4' tall.  While all seedlings have obvious alba influence, many have more aspen or alba traits in terms of tomentose on leaf and stems and some have alba leaves vs the aspen types that have the more intermediate (AG) type leaves.\t	pmcgovern	2	173	15	2	2012-08-28	0
2012-bell-nursery	12	I surveyed the 2012 Bell nursery today to see what is still actively growing and what has set bud. In general most of my albas and 1xCAGW materials started from 6 cuttings that are over 5' are still growing and those 5' or less have set bud. The 2xCAG12 seedlings average about 4' tall with most (95% ?) having set bud. The 1xCAGW seedlings average about 3' tall with about 65% still actively growing. Those 1xCAGW seedlings were planted 7/2/12 and with Miracle Grow 20:20:20 soluble fertilzer applied several times to help increase growth.	pmcgovern	2	2	14	2	2012-09-03	0
RevisedExternalPlant-IDs	13	The current plant naming standard for external selections is too long and does not scale. A new Plant id syntax is as follows: [NbrLetterFamilyID][ExternalSiteIDNbr][SiteLocationCode].  Example: 83AA3MF where 83AA is the Family ID, 3 is the External site ID number, MF stands for MSU FBIC location code that is persisted in the Site table.	pmcgovern	182	2	2	8	2012-09-03	0
2011-1xCAGW-Cross	14	Selected 30 trees with numbered yellow tags. Selected for vigor, straightness and aspen traits (no tomentose).  These will be made into 6 cuttings and tested for rooting in 2013 nursery.  About 50% more have set bud since 9/1, but some have re-sprouted.	pmcgovern	2	2	16	2	2012-09-15	https://picasaweb.google.com/102384333186727094185/2012Bell1xCAGW?authkey=Gv1sRgCMWFmdfgztGngQE
2012-2xCAG12-Cross	15	Selected 30 trees with numbered yellow tags. Selected for vigor, straightness and some with more aspen traits.  These will be made into 6 cuttings and tested for rooting in 2013 nursery.  Most have set bud.	pmcgovern	2	2	15	2	2012-09-15	0
2012-bell-nursery	16	In general only a few and the tallest albas have NOT set bud.  We had a hard frost this morning 10/8/12 - hard enough to kill the garden...  	pmcgovern	2	2	14	2	2012-10-08	0
2012-field	17	RNE - 6th 9xAG91 tree from south edge is nice well formed male and should be crossed with C173 - it often scored light BLD.  CSSE - Lots of flowers on CAG177, AE42, TA10 some, POST - Triploid TE male has flowers., 	pmcgovern	2	2	2	2	2012-10-08	0
2012-bell-nursery	18	Lifted the last of the Bell Nursery trees - It took about 1 week.\tHeeled them into 3 rows, first is all alba/aspens from 6 cuttings, second is 2xCAG12 seedlings in 3 groups (5 most vigorous, 30 for WASP, rest for wasp tips).\tThird row is 1xCAGw.  	pmcgovern	2	2	14	2	2012-11-23	0
WASP-2013-A	19	A 2013 WASP rooting test involving 93AA12 that rooted 60% (24/40) in 2012 and 15AG4MF (aka AG15) that did not root at all.   It was interesting to note how poor the water soak tests performed, but it could be chance since there were only 2 reps and one rep had small diameter cuttings or that the 24hr soak was just too long.  I certainly need to decrease the number of treatments and increase the number of reps.  The willow soak treatment was interesting and might be worth another look but I am sticking to no pre-soaks for my upcoming ramp ups.  I guess it was not too surprising that 100% of the 93AA12 cuttings of at least 7mm dia rooted, but it is a bit surprising to see that all 4 of the 93AA12 tips (2-3mm dia) also rooted.  Clone 93AA12 rooted 60% (24/40) in 2012 nursery, and it rooted 88% in this test (avg of both No Soak tests).  If this type of difference is real (repeatable over time), then perhaps these WASP test stats could have more value in selecting good rooting clones than field rooting results that are subject to more variation.	pmcgovern	193	2	18	6	2013-02-01	https://docs.google.com/spreadsheet/ccc?key=0Ar-SwoTVeWFadEFfYW11X21iamFKX0tKNHRsWWlrR3c#gid=13
2013-breeding-observations	20	2013 Breeding update: On 2/23/13 - Collected AE42 and CAG177 male branches, all from CSSE.  Started forcing CAG177 branches.  On 3/16/13 - Collected AGRR1 male branches and the new female 15xAG91 selection, 15AG11, both from RNE.  Also collected 2 branch sets of CAG204 and A502.  Collected all AE42 pollen on 3/18/13.  The AGRR1 branches were taken from a 14 inch trunk.  Flowers were somewhat sparse and observed that most were male but 2 branches may have female buds.	pmcgovern	2	2	19	6	2013-03-19	https://docs.google.com/spreadsheet/ccc?key=0Ar-SwoTVeWFadDhTNGtibW51amt0Z1JHYmw5SGdjRXc#gid=3
ASP-2013-D	21	3/26/13: The 2xCAG12 WASP to ASP cuttings failed.  Ortets #26 and #30 did root as ASP but poorly.  Perhaps my ASP conditions were bad, perhaps these CAG clones can root but not ASP meaning there is little to no correlation between dormant stem rooting and ASP rooting.	pmcgovern	1	1	1	1	2013-03-26	0
2013-breeding-observations	22	3/26/13: The suspected AGRR1 female branches were in fact male - just smaller...  Also the AGRR1 had fewer male flower buds but they produced abundant pollen.\tI started the CAG204 and AG??? females for the AGRR1 pollen.	pmcgovern	1	1	1	1	2013-03-26	0
2013-breeding-observations	23	4/12/13: Obtaining large quantities of high quality seed from 3xCAGC.  The cross 4xACAG (A502 x CAG177) is finished.  Likely over 1000 seeds were produced, but it did not appear as productive as other AxA crosses with this female.	pmcgovern	1	1	1	1	2013-04-12	0
2013-breeding-observations	24	4/13/13: Collected female flower branches from HCRA for the new clone 3AA202.  It is a diverse clone with fairly good form, vigor and durability (23yrs old).  I will attempt WASP propagation of some 3AA02 tips.  I also tagged a lone survivor of 21xaa91 family on the North West side that has nice form, durability and vigor for this site (21 yrs old).	pmcgovern	1	1	1	1	2013-04-13	0
2013-field	25	4/13/13: Sprayed canned prunning sealer onto all trees at 5/3 lot - up to 3' high.  Planted all left over stock at Post NE.  Planted on East edge of site on 4' x 8' spacings.	pmcgovern	1	1	1	1	2013-04-13	0
2013-breeding-observations	26	4/17/13:\tFertilized 2 sets of 3AA202 female branches with NorthFox alba (NFA) and AGRR1 pollen.\tThe 3AA202 clone had a lot of flowers and was fertilized when the catkins were about .5 long.	pmcgovern	1	1	1	1	2013-04-17	0
2013-breeding-observations	27	4/20/13: I observed 2 P. tremuloides males in full extension.  It may be at or near peak reception for small tooth aspen...	pmcgovern	1	1	1	1	2013-04-20	0
2013-breeding-observations	28	4/27/13: Observed a number of P. alba and bigtooth males at peak extension.  It is likely peak receptivity in the GR area.  Next week I may harvest some fertilized bigtooth female branches.	pmcgovern	1	1	1	1	2013-04-27	0
2013-breeding-observations	29	5/11/13: Seed started to shed on bigtooth.	pmcgovern	1	1	1	1	2013-05-11	0
2013-breeding-observations	30	5/14/13: Finished seed for 4xGW and 2xGW.  The 3xGW cross shed one (wet) batch, expect it to finish in 2 days.	pmcgovern	1	1	1	1	2013-05-14	0
2013-breeding-observations	31	5/15/13: Observed that the G2 bigtooth female catkins appear to be ripening slowly and unevenly compared to the other clones.  Perhaps more evidence of variation...	pmcgovern	1	1	1	1	2013-05-15	0
2013-breeding-observations	32	5/18/13: Observed several area bigtooth females shedding seed.	pmcgovern	1	1	1	1	2013-05-18	0
2013-field	33	5/22/13: Sprayed Roundup around newly planted trees at 5/3 and Post NE lots.  The grass growth was very tall (1'-2'), green and healthy.\tI used perhaps just under 3 gallons of mix.	pmcgovern	1	1	1	1	2013-05-22	0
2013-breeding-observations	34	5/23/13: I thinned out the bigtooth aspen seedlings.  There is a huge difference in family performance (see pics).  The actual germination is poor - maybe 25% for the best lot, then perhaps 15% and 5%.  I need to investigate if a good portion of the poor viability is actually empty seed embryos - that were never fertilized.	pmcgovern	1	1	1	1	2013-05-23	0
2013-bell-nursery	35	5/26/13:  Observed that one of the two Zoss hybrid trees did not grow yet.  I lifted the tree, did not see any issues and cut it up for root shoot propagation.	pmcgovern	1	1	1	1	2013-05-26	0
2013-breeding-observations	36	5/30/13: P. grandidentata seed germination estimates at Bell indoors:  2xGW	pmcgovern	1	1	1	1	2013-05-30	0
2013-bell-nursery	37	7/20/13: 1CAGW01 Rooting observations. I planted 7 replications of this clone in the 2013 nursery with 10 - 6 cuttings with diameters ranging from 14 to 3 mm. I just scored these 7 replications for survival of cuttings 10mm or greater. There was 83% survival from 33 total 6 cuttings that were 10 mm or greater in diameter. This compares to 60% (26/43) survival in my nursery for DN34 5 cuttings greater than 13mm.  Ideally I should have planted cuttings 10mm or greater.	pmcgovern	1	1	1	1	2013-07-20	0
2013-bell-nursery	38	8/21/13: Bud set observations: All DN34 set bud.  Six of the seven 2xcag12 mini-stool clones set bud.  More than half of the 2xcag12 ramet cuttings (clones 1-30) have set but with some family differences (eg. Taller #14 has not set bud).  	pmcgovern	1	1	1	1	2013-07-21	0
2013-field	39	8/22/13: 5-3Dot-Lot site: All trees have set bud.  The all look pretty good, but 2 had flopped over due to planting them too tall for the dbh.  	pmcgovern	1	1	1	1	2013-07-22	0
2013-bell-nursery	40	9/21/13: Most seedlings are now set or appear to be setting bud). 	pmcgovern	1	1	1	1	2013-09-21	0
2014-breeding-observations	41	2/28/14: The 2010 Phase 3 crosses contain 3 crosses with the male EBL and 3 with 41AA111 including 89xAA10 that has both of these parents.  It may be interesting to note if there are any parental patterns with these families.  It may help us see what effect different combinations of these parents have on early growth.	pmcgovern	1	1	1	1	2014-02-28	0
2014-breeding-observations	42	2/28/14: I checked my stored 89xAA10 seed from the freezer.  On 2/25 I germ tested 11 seeds on a damp napkin and put under a shop light. On 2/28  I counted 7 sprouted, and 2 have green leaves. It doesn't mean much because they could fail to develop second true leaves.  I have about 200 seeds so 10% would be 20 trees.  On 3/2 I observed 2 true leaves - a living meristem!	pmcgovern	1	1	1	1	2014-02-28	0
2014-breeding-observations	43	3/1/14: Two feet of snow!  Used snow shoes to visit RNE and Post SE. RNE - Nice flowers on AGRR1, all 9xAG91, consider mating 20XAAG91. Post SE- Flaged 3 nice flowered trees that may be 84x, 80x and 82x.	pmcgovern	1	1	1	1	2014-03-01	0
2014-bell-nursery	44	9/22/14: All non-dominant seedlings have set bud.  About 1/2 of the P. Alba type seedings have or are close to bud set.  Most (3/4) of BG/BT type seedlings have bud set.  	pmcgovern	1	1	1	1	2014-09-22	0
2014-bell-nursery	45	9/30/14 Decided to change the family name 2xcag12 to 2xb to conform with new 2014 standard. The clones names will also be changed (eg. 2Xcag12-25 will be 2b25)	pmcgovern	1	1	1	1	2014-09-30	0
\.


--
-- Name: journal_id_seq; Type: SEQUENCE SET; Schema: public; Owner: dad
--

SELECT pg_catalog.setval('journal_id_seq', 1, false);


--
-- Data for Name: pedigree; Type: TABLE DATA; Schema: public; Owner: dad
--

COPY pedigree (id, pedigree_key, path) FROM stdin;
1	 100XAA10   	 >F1 30XAA91=(PCA2 x A57) >F2 100XAA10=(30AA5MF x 83AA1MF)
2	 100XAA10   	 >F1 41XAA91=(A10 x A73) >F2 83XAA04=(A502 x AA4102) >F3 100XAA10=(30AA5MF x 83AA1MF)
3	 101XAA10   	 >F1 30XAA91=(PCA2 x A57) >F2 101XAA10=(30AA5MF x NORTHFOX)
4	 102XAA10   	 >F1 35XAA91=(PCA2 x JAMIE) >F2 102XAA10=(35AA202 x NORTHFOX)
5	 103XAA10   	 >F1 33XAA91=(A10 x JAMIE) >F2 103XAA10=(33AA11 x NORTHFOX)
6	 104XAA10   	 >F1 35XAA91=(PCA2 x JAMIE) >F2 104XAA10=(35AA202 x 83AA2MF)
7	 104XAA10   	 >F1 41XAA91=(A10 x A73) >F2 83XAA04=(A502 x AA4102) >F3 104XAA10=(35AA202 x 83AA2MF)
8	 105xAA     	 >F1 3XAA89=(A10 x JAMIE) >F2 105xAA=(3AA202 x NORTHFOX)
9	 106xAA     	 >F1 41XAA91=(A10 x A73) >F2 83XAA04=(A502 x AA4102) >F3 106xAA=(83AA565 x NORTHFOX)
10	 107xAA     	 >F1 23XAA91=(PCA2 x PRINCE) >F2 80XAA04=(AA2301 x AA4102) >F3 107xAA=(30AA5MF x 80AA3MF)
11	 107xAA     	 >F1 30XAA91=(PCA2 x A57) >F2 107xAA=(30AA5MF x 80AA3MF)
12	 107xAA     	 >F1 41XAA91=(A10 x A73) >F2 80XAA04=(AA2301 x AA4102) >F3 107xAA=(30AA5MF x 80AA3MF)
13	 10XAA91    	 >F1 10XAA91=(PIONEER x A344)
14	 10xBR      	 >F1 10xBR=(CAG204 x AGRR1)
15	 10XGA91    	 >F1 10XGA91=(BT044 x A546)
16	 10XTG93    	 >F1 10XTG93=(ST7 x BT016)
17	 11XAA90    	 >F1 11XAA90=(PIONEER x PRINCE)
18	 11XAAG91   	 >F1 11XAAG91=(A266 x AGMORIN)
19	 11xAB      	 >F1 11xAB=(A266 x CAG177)
20	 11XTG93    	 >F1 11XTG93=(ST8 x AGMORIN)
21	 12XAA90    	 >F1 12XAA90=(PCA1 x EBL)
22	 12XAG91    	 >F1 12XAG91=(A266 x AGMORIN)
23	 12XGAA91   	 >F1 12XGAA91=(GA14 x PRINCE)
24	 12xRB      	 >F1 12xRB=(PLAZA x CAG177)
25	 12XTG93    	 >F1 12XTG93=(ST8 x BT017)
26	 13XAA90    	 >F1 13XAA90=(PCA1 x PRINCE)
27	 13XAG91    	 >F1 13XAG91=(A10 x TBD)
28	 13XGAG91   	 >F1 13XGAG91=(GA14 x AGMORIN)
29	 13xGB      	 >F1 1XGG91=(BT044 x BT016) >F2 13xGB=(GG102 x CAG177)
30	 13XTG93    	 >F1 13XTG93=(ST9 x AGMORIN)
31	 14XAA90    	 >F1 14XAA90=(ALGER x A344)
32	 14XAG91    	 >F1 14XAG91=(A10 x TBD)
33	 14xB       	 >F1 14xB=(C173 x AGRR1)
34	 14XGAA91   	 >F1 14XGAA91=(GA14 x JAMIE)
35	 14XTG93    	 >F1 14XTG93=(ST9 x BT017)
36	 15XAA90    	 >F1 15XAA90=(ALGER x PRINCE)
37	 15XAG91    	 >F1 15XAG91=(A10 x BT016)
38	 15XAGA91   	 >F1 15XAGA91=(FHAG x JAMIE)
39	 15xB       	 >F1 9XAG91=(PCA2 x BT016) >F2 15xB=(C173 x 9AG105)
40	 15XTG93    	 >F1 15XTG93=(ST10 x AGMORIN)
41	 16XAA91    	 >F1 16XAA91=(A10 x YUGO2)
42	 16XAAG91   	 >F1 16XAAG91=(A502 x AGMORIN)
43	 16xAB      	 >F1 41XAA91=(A10 x A73) >F2 83XAA04=(A502 x AA4102) >F3 16xAB=(83AA565 x CAG177)
44	 16XAG93    	 >F1 16XAG93=(A502 x BT017)
45	 17XAA91    	 >F1 17XAA91=(A10 x A546)
46	 17XAAG91   	 >F1 17XAAG91=(A10 x AGMORIN)
47	 17xB       	 >F1 4XAE91=(A10 x E120) >F2 17xB=(PLAZA x 4AE1)
48	 17XGA04    	 >F1 1XGG91=(BT044 x BT016) >F2 17XGA04=(GG102 x AA4102)
49	 17XGA04    	 >F1 41XAA91=(A10 x A73) >F2 17XGA04=(GG102 x AA4102)
50	 18XAG04    	 >F1 1XGG91=(BT044 x BT016) >F2 18XAG04=(AA4101 x GG101)
51	 18XAG04    	 >F1 41XAA91=(A10 x A73) >F2 18XAG04=(AA4101 x GG101)
52	 18xBG      	 >F1 18xBG=(CAG204 x GG6)
53	 19XAAG91   	 >F1 19XAAG91=(PCA2 x AGMORIN)
54	 19xGB      	 >F1 19xGB=(GG5 x CAG177)
55	 1XA4E05    	 >F1 1XA4E05=(A502 x TA10)
56	 1XAA85     	 >F1 1XAA85=(A266 x JAMIE)
57	 1XAAE05    	 >F1 1XAAE05=(A502 x TBD)
58	 1XAAG88    	 >F1 1XAAG88=(A266 x CRANDON)
59	 1XAC91     	 >F1 1XAC91=(A10 x C28)
60	 1XAE91     	 >F1 1XAE91=(A266 x E120)
61	 1XAG88     	 >F1 1XAG88=(A266 x FHBT)
62	 1XAGA88    	 >F1 1XAGA88=(FHAG x JAMIE)
63	 1XAGC91    	 >F1 1XAGC91=(CRANDON x C28)
64	 1XAGE91    	 >F1 1XAGE91=(FHAG x E120)
65	 1xARG      	 >F1 20XAAG91=(A266 x CRANDON) >F2 1xARG=(AAG2002 x GG12)
66	 1XAT90     	 >F1 1XAT90=(PRINCE x ST3)
67	 1XAW       	 >F1 41XAA91=(A10 x A73) >F2 83XAA04=(A502 x AA4102) >F3 1XAW=(83AA301 x WIND)
68	 1xBAR      	 >F1 20XAAG91=(A266 x CRANDON) >F2 1xBAR=(CAG204 x AAG2001)
69	 1XEE91     	 >F1 1XEE91=(E138 x E120)
70	 1XGA84     	 >F1 1XGA84=(TBD x JAMIE)
71	 1XGAAG91   	 >F1 1XGAAG91=(GA14 x AGMORIN)
72	 1XGAG91    	 >F1 1XGAG91=(BT044 x AGMORIN)
73	 1XGE91     	 >F1 1XGE91=(BT044 x E120)
74	 1XGG91     	 >F1 1XGG91=(BT044 x BT016)
75	 1XGT90     	 >F1 1XGT90=(BT2 x ST3)
76	 1XT4E04    	 >F1 1XT4E04=(T8057 x TA10)
77	 1XTE04     	 >F1 1XTE04=(CLONE5 x TBD)
78	 1XTG90     	 >F1 1XTG90=(ST071 x BT1)
79	 1XTT91     	 >F1 1XTT91=(ST071 x ST072)
80	 20XAA91    	 >F1 20XAA91=(A266 x A546)
81	 20XAAG91   	 >F1 20XAAG91=(A266 x CRANDON)
82	 21XAA91    	 >F1 21XAA91=(A502 x A73)
83	 21XAAG91   	 >F1 32XAA91=(A266 x PRINCE) >F2 21XAAG91=(AA3201 x CRANDON)
84	 21xBA      	 >F1 23XAA91=(PCA2 x PRINCE) >F2 80XAA04=(AA2301 x AA4102) >F3 21xBA=(CAG204 x 80AA3MF)
85	 21xBA      	 >F1 41XAA91=(A10 x A73) >F2 80XAA04=(AA2301 x AA4102) >F3 21xBA=(CAG204 x 80AA3MF)
86	 22XAA91    	 >F1 22XAA91=(A502 x PRINCE)
87	 22xAR      	 >F1 3XAA89=(A10 x JAMIE) >F2 22xAR=(3AA202 x AGRR1)
88	 22xBG      	 >F1 22xBG=(CAG204 x GG4)
89	 23XAA91    	 >F1 23XAA91=(PCA2 x PRINCE)
90	 23xBA      	 >F1 41XAA91=(A10 x A73) >F2 82XAA04=(AA901 x AA4102) >F3 23xBA=(CAG204 x 82AA3)
91	 23xBA      	 >F1 9XAA90=(A266 x A344) >F2 82XAA04=(AA901 x AA4102) >F3 23xBA=(CAG204 x 82AA3)
92	 24xR       	 >F1 24xR=(82AA4 x GG12)
93	 25XAA91    	 >F1 25XAA91=(A266 x PA092)
94	 25xR       	 >F1 41XAA91=(A10 x A73) >F2 83XAA04=(A502 x AA4102) >F3 25xR=(83AA301 x GG12)
95	 26XAA91    	 >F1 26XAA91=(PCA2 x A73)
96	 27XAA91    	 >F1 27XAA91=(A10 x PRINCE)
97	 28XAA91    	 >F1 28XAA91=(A266 x A73)
98	 29XAA91    	 >F1 29XAA91=(A266 x YUGO2)
99	 2XA4E05    	 >F1 2XA4E05=(A266 x TA10)
100	 2XAA88     	 >F1 2XAA88=(A266 x JAMIE)
101	 2XAAE06    	 >F1 2XAAE06=(A502 x TBD)
102	 2XAAG88    	 >F1 2XAAG88=(A266 x AGMORIN)
103	 2XAG90     	 >F1 2XAG90=(A266 x FHBT)
104	 2XAGA90    	 >F1 2XAGA90=(CRANDON x A344)
105	 2xARW      	 >F1 20XAAG91=(A266 x CRANDON) >F2 2xARW=(AAG2002 x WIND)
106	 2xB        	 >F1 15XAG91=(A10 x BT016) >F2 2xB=(C173 x 15AG4MF)
107	 2xB        	 >F1 2xB=(C173 x 15AG4MF)
108	 2XGA88     	 >F1 2XGA88=(TBD x JAMIE)
109	 2XGAE91    	 >F1 2XGAE91=(GA14 x E120)
110	 2XGAG91    	 >F1 2XGAG91=(GA14 x TBD)
111	 2XGT91     	 >F1 2XGT91=(BT044 x ST072)
112	 2xRR       	 >F1 9XAG91=(PCA2 x BT016) >F2 2xRR=(9AG103 x AGRR1)
113	 2XT4E04    	 >F1 2XT4E04=(CLONE5 x TA10)
114	 2XTG90     	 >F1 2XTG90=(ST071 x FHBT)
115	 30XAA91    	 >F1 30XAA91=(PCA2 x A57)
116	 31XAA91    	 >F1 31XAA91=(A266 x C28)
117	 32XAA91    	 >F1 32XAA91=(A266 x PRINCE)
118	 33XAA91    	 >F1 33XAA91=(A10 x JAMIE)
119	 35XAA91    	 >F1 35XAA91=(PCA2 x JAMIE)
120	 36XAA91    	 >F1 36XAA91=(A502 x A546)
121	 39XAA91    	 >F1 39XAA91=(PCA2 x YUGO2)
122	 3XAA89     	 >F1 3XAA89=(A10 x JAMIE)
123	 3XAG90     	 >F1 3XAG90=(PCA1 x FHBT)
124	 3XAGA90    	 >F1 3XAGA90=(CRANDON x PRINCE)
125	 3XCAGC     	 >F1 3XCAGC=(CAG204 x AE42)
126	 3xRR       	 >F1 9XAG91=(PCA2 x BT016) >F2 3xRR=(PLAZA x 9AG105)
127	 3XTG90     	 >F1 3XTG90=(ST2 x BT1)
128	 40XAA91    	 >F1 40XAA91=(A10 x A57)
129	 41XAA91    	 >F1 41XAA91=(A10 x A73)
130	 42XAA91    	 >F1 42XAA91=(NA x NA)
131	 43XAA92    	 >F1 43XAA92=(A266 x ZOO)
132	 44XAA92    	 >F1 44XAA92=(A266 x TBD)
133	 45XAA92    	 >F1 45XAA92=(A266 x TBD)
134	 46XAA92    	 >F1 46XAA92=(A266 x JAMIE)
135	 47XAA92    	 >F1 47XAA92=(GODFREY x ZOO)
136	 4XAA89     	 >F1 4XAA89=(TBD x JAMIE)
137	 4xACAG     	 >F1 4xACAG=(A502 x CAG177)
138	 4XAE91     	 >F1 4XAE91=(A10 x E120)
139	 4XAG90     	 >F1 4XAG90=(ALGER x FHBT)
140	 4XAGA90    	 >F1 4XAGA90=(TBD x A344)
141	 4xGW       	 >F1 1XGG91=(BT044 x BT016) >F2 4xGW=(GG102 x WIND)
142	 4xRR       	 >F1 4xRR=(PLAZA x AGRR1)
143	 4XTG91     	 >F1 4XTG91=(ST071 x BT016)
144	 50XAA92    	 >F1 50XAA92=(PCA1 x ZOO)
145	 53XAA92    	 >F1 1XAA85=(A266 x JAMIE) >F2 53XAA92=(AA101 x ZOO)
146	 54XAA93    	 >F1 54XAA93=(A266 x POL2)
147	 55XAA93    	 >F1 55XAA93=(A266 x POL3)
148	 56XAA93    	 >F1 56XAA93=(A266 x SER41)
149	 57XAA93    	 >F1 57XAA93=(A266 x SER42)
150	 58XAA93    	 >F1 58XAA93=(A266 x SER5)
151	 59XAA93    	 >F1 59XAA93=(A266 x SER6)
152	 5XAA89     	 >F1 5XAA89=(A502 x JAMIE)
153	 5XAE91     	 >F1 5XAE91=(PCA2 x E120)
154	 5xCAGR     	 >F1 5xCAGR=(CAG204 x AGRR1)
155	 5xRB       	 >F1 9XAG91=(PCA2 x BT016) >F2 5xRB=(9AG105 x CAG177)
156	 5XTG93     	 >F1 5XTG93=(ST071 x AGMORIN)
157	 60XAA93    	 >F1 60XAA93=(A266 x NORTHFOX)
158	 61XAA93    	 >F1 61XAA93=(A502 x POL2)
159	 62XAA93    	 >F1 62XAA93=(A502 x POL3)
160	 63XAA93    	 >F1 63XAA93=(A502 x SER41)
161	 64XAA93    	 >F1 64XAA93=(A502 x SER42)
162	 65XAA93    	 >F1 65XAA93=(A502 x SER5)
163	 66XAA93    	 >F1 66XAA93=(A502 x SER6)
164	 67XAA93    	 >F1 67XAA93=(A502 x NORTHFOX)
165	 68XAA93    	 >F1 1XAA85=(A266 x JAMIE) >F2 68XAA93=(AA101 x POL2)
166	 69XAA93    	 >F1 1XAA85=(A266 x JAMIE) >F2 69XAA93=(AA101 x POL3)
167	 6XAA89     	 >F1 6XAA89=(A266 x A344)
168	 6xBA       	 >F1 6xBA=(CAG204 x NORTHFOX)
169	 6xGG       	 >F1 1XGG91=(BT044 x BT016) >F2 6xGG=(GG102 x GG12)
170	 70XAA93    	 >F1 1XAA85=(A266 x JAMIE) >F2 70XAA93=(AA101 x SER41)
171	 71XAA93    	 >F1 1XAA85=(A266 x JAMIE) >F2 71XAA93=(AA101 x SER42)
172	 72XAA93    	 >F1 1XAA85=(A266 x JAMIE) >F2 72XAA93=(AA101 x SER5)
173	 73XAA93    	 >F1 1XAA85=(A266 x JAMIE) >F2 73XAA93=(AA101 x NORTHFOX)
174	 74XAA95    	 >F1 74XAA95=(SOUTHBELL x JAMIE)
175	 75XAA95    	 >F1 75XAA95=(A266 x JAMIE)
176	 76XAA02    	 >F1 21XAA91=(A502 x A73) >F2 76XAA02=(A502 x AA2101)
177	 77XAA02    	 >F1 21XAA91=(A502 x A73) >F2 77XAA02=(AA4101 x AA2101)
178	 77XAA02    	 >F1 41XAA91=(A10 x A73) >F2 77XAA02=(AA4101 x AA2101)
179	 78XAA02    	 >F1 20XAAG91=(A266 x CRANDON) >F2 78XAA02=(AAG2002 x AA2101)
180	 78XAA02    	 >F1 21XAA91=(A502 x A73) >F2 78XAA02=(AAG2002 x AA2101)
181	 79XAA03    	 >F1 41XAA91=(A10 x A73) >F2 79XAA03=(A502 x AA4102)
182	 7XAA90     	 >F1 7XAA90=(A266 x EBL)
183	 7XAGA91    	 >F1 7XAGA91=(FHAG x A546)
184	 7xBT       	 >F1 7xBT=(CAG204 x ST11)
185	 7XGA91     	 >F1 7XGA91=(BT044 x JAMIE)
186	 7XTG93     	 >F1 7XTG93=(ST5 x AGMORIN)
187	 80XAA04    	 >F1 23XAA91=(PCA2 x PRINCE) >F2 80XAA04=(AA2301 x AA4102)
188	 80XAA04    	 >F1 41XAA91=(A10 x A73) >F2 80XAA04=(AA2301 x AA4102)
189	 81XAA04    	 >F1 32XAA91=(A266 x PRINCE) >F2 81XAA04=(AA3201 x AA4102)
190	 81XAA04    	 >F1 41XAA91=(A10 x A73) >F2 81XAA04=(AA3201 x AA4102)
191	 82XAA04    	 >F1 41XAA91=(A10 x A73) >F2 82XAA04=(AA901 x AA4102)
192	 82XAA04    	 >F1 9XAA90=(A266 x A344) >F2 82XAA04=(AA901 x AA4102)
193	 83XAA04    	 >F1 41XAA91=(A10 x A73) >F2 83XAA04=(A502 x AA4102)
194	 84XAA04    	 >F1 30XAA91=(PCA2 x A57) >F2 84XAA04=(AA3001 x AA4102)
195	 84XAA04    	 >F1 41XAA91=(A10 x A73) >F2 84XAA04=(AA3001 x AA4102)
196	 85XAA04    	 >F1 41XAA91=(A10 x A73) >F2 85XAA04=(AA4101 x AA4102)
197	 86XAA10    	 >F1 86XAA10=(A502 x NORTHFOX)
198	 87XAA10    	 >F1 40XAA91=(A10 x A57) >F2 87XAA10=(40AA08 x AA4102)
199	 87XAA10    	 >F1 41XAA91=(A10 x A73) >F2 87XAA10=(40AA08 x AA4102)
200	 88XAA10    	 >F1 40XAA91=(A10 x A57) >F2 88XAA10=(40AA08 x EBL)
201	 89XAA10    	 >F1 41XAA91=(A10 x A73) >F2 89XAA10=(41AA111 x EBL)
202	 8XAA90     	 >F1 8XAA90=(A266 x PRINCE)
203	 8XAG91     	 >F1 8XAG91=(A502 x AGMORIN)
204	 8XAGA91    	 >F1 8XAGA91=(FHAG x C28)
205	 8xBG       	 >F1 1XGG91=(BT044 x BT016) >F2 8xBG=(CAG204 x GG101)
206	 90XAA10    	 >F1 40XAA91=(A10 x A57) >F2 90XAA10=(40AA08 x NORTHFOX)
207	 91XAA10    	 >F1 41XAA91=(A10 x A73) >F2 91XAA10=(41AA111 x NORTHFOX)
208	 92XAA10    	 >F1 35XAA91=(PCA2 x JAMIE) >F2 92XAA10=(41AA111 x 35AA201)
209	 92XAA10    	 >F1 41XAA91=(A10 x A73) >F2 92XAA10=(41AA111 x 35AA201)
210	 93XAA10    	 >F1 41XAA91=(A10 x A73) >F2 93XAA10=(A502 x AA4102)
211	 94XAA10    	 >F1 40XAA91=(A10 x A57) >F2 94XAA10=(40AA6MF x EBL)
212	 95XAA10    	 >F1 35XAA91=(PCA2 x JAMIE) >F2 95XAA10=(40AA08 x 35AA201)
213	 95XAA10    	 >F1 40XAA91=(A10 x A57) >F2 95XAA10=(40AA08 x 35AA201)
214	 96XAA10    	 >F1 35XAA91=(PCA2 x JAMIE) >F2 96XAA10=(40AA6MF x 35AA201)
215	 96XAA10    	 >F1 40XAA91=(A10 x A57) >F2 96XAA10=(40AA6MF x 35AA201)
216	 97XAA10    	 >F1 40XAA91=(A10 x A57) >F2 97XAA10=(40AA6MF x NORTHFOX)
217	 98XAA10    	 >F1 30XAA91=(PCA2 x A57) >F2 98XAA10=(30AA5MF x 83AA2MF)
218	 98XAA10    	 >F1 41XAA91=(A10 x A73) >F2 83XAA04=(A502 x AA4102) >F3 98XAA10=(30AA5MF x 83AA2MF)
219	 99XAA10    	 >F1 30XAA91=(PCA2 x A57) >F2 99XAA10=(30AA5MF x AA4102)
220	 99XAA10    	 >F1 41XAA91=(A10 x A73) >F2 99XAA10=(30AA5MF x AA4102)
221	 9XAA90     	 >F1 9XAA90=(A266 x A344)
222	 9XAG91     	 >F1 9XAG91=(PCA2 x BT016)
223	 9XAGA91    	 >F1 9XAGA91=(FHAG x PRINCE)
224	 9xBR       	 >F1 9XAG91=(PCA2 x BT016) >F2 9xBR=(CAG204 x 9AG105)
225	 9XTG93     	 >F1 9XTG93=(ST7 x AGMORIN)
\.


--
-- Name: pedigree_id_seq; Type: SEQUENCE SET; Schema: public; Owner: dad
--

SELECT pg_catalog.setval('pedigree_id_seq', 225, true);


--
-- Data for Name: plant; Type: TABLE DATA; Schema: public; Owner: dad
--

COPY plant (plant_key, id, notes, sex_mfbu, published_botanical_name, common_name, alternate_name, aquired_from, female_external_parent, male_external_parent, form_fnmwu, is_plus, is_cultivar, is_variety, is_from_wild, ploidy_n, date_aquired, id_taxa, id_family, web_photos, web_url) FROM stdin;
TBD	1	To Be Determined	U	0	0	0	0	0	0	U	U	U	U	U	0	1111-11-11	2	2	0	0
NA	2	Does Not Apply	U	0	0	0	0	0	0	U	U	U	U	U	0	1111-11-11	2	2	0	0
A73	3	AKA, Bolleana.  A fastigate tree that is somewhat short lived in Michigan.  Sheds pollen fast. Rooted 44% (23/52) in 1995 with Hormex 30 IBA (likely using 8 inch cuttings).	M	Populus alba 'Pyramidalis' 	Bolleana	0	Kalamazoo, MI	0	0	F	N	Y	N	U	2	1991-01-01	3	2	0	http://bit.ly/1NbSOtz
A10	4	A wild tree found in Ottawa, Ontario.  A large well formed, straight boled tree with poor rooting.  I harvested flowers from 3 large grafted trees.  	F	0	0	0	Maple, Ontario	0	0	W	Y	Y	N	Y	2	1989-01-01	3	2	0	http://bit.ly/1NbSOtz
A344	5	This is a Canadian cross that was produced in 1958.  The a69 parent had good rooting traits.	M	0	0	0	Maple, Ontario	A69	A57	W	Y	Y	N	N	2	1989-01-01	3	2	0	http://bit.ly/1NbSOtz
A57	6	Canada obtained this tree from Hohenheim, Germany in 1953.  Open crown, vigorous and healthy in Maple Ontario.	M	0	0	0	Maple, Ontario	0	0	W	Y	Y	N	U	2	1991-01-01	3	2	0	http://bit.ly/1NbSOtz
PRINCE	7	Located West of Burton Ballpark along RR tracks on a sandy site.  Vigorous poor formed tree.  Seems to combine well. Flowers late in age and some years flowers do not shed pollen (2004).  13.4 diameter on 12/26/03 at SLNE. Had 22% rooting in 1989 with 4 - .5 cuttings and #30 IBA.	M	0	0	0	~1/4 mile SE of US131 and Burton st., Grand Rapids, Mi	0	0	W	Y	N	N	Y	2	1990-01-01	3	2	0	http://bit.ly/1NbSOtz
EBL	8	Victor B. Barne's Isozyme tests showed it was different than Jamie alba.  Dense suckering, poor form. Combines well with a266.	M	0	0	0	2975 East Beltline GR, MI.	0	0	W	N	N	N	Y	2	1985-01-01	3	2	0	http://bit.ly/1NbSOtz
A266	9	May have originated in South Morovia, Czechoslovakia in 1960.  Very vigorous, poor rooter and very bad form.  Gets BLD.  Used in many crosses.  Produces lots of seed with most any pollen.  Most progeny has bad form.	F	0	0	0	PCA site @ Freesoil, MI	0	0	W	Y	Y	N	N	2	1991-01-01	3	2	0	http://bit.ly/1NbSOtz
YUGO2	10	This is one of 3 pollen samples sent in 1991.  It is from Dr. V. Guzina of the Poplar Research Institute.   They were collected from the riparian zone of the Danube River near Novi Sad.  Most pollen was bad due to the shipping delay.	M	0	0	0	Novi Sad, Yugoslavia	0	0	W	Y	N	N	Y	2	1991-01-01	3	2	0	http://bit.ly/1NbSOtz
A502	11	Canada obtained this tree from Casale Monferrato, Italy in 1967 as clone I58-57.  It has good form, some sun scalding, fair rooting, aspen features, gets BLD.  Flowering: Reliable for seed bearing, need to let the whole catkin shed.  Breeding Notes: When combined with Bolleana, progeny roots well, but the cross a502 x Bolleana may be not durable, but the cross A502 x Jamie is durable. Rooting: 1989=45%, 1990=13%, 1992=21%, 2004=24%, Phase 3 breeding notes: A502 catkins were about 10mm long on 3/28/10 at RNE.  I estimate that most albas will peak receptivity around 3/31 as we are expecting 70 degrees on 3/31..  The last A502 flowers were harvested on 4/9/10, almost 1 month from when they were started...  For more details see Web URL	F	0	0	0	Maple, Ontario	P.alba n2 Istituto Pignatelli - Villafranca Piemonte TO Italy	P.alba n2 Istituto Pignatelli - Villafranca Piemonte TO Italy	M	Y	Y	N	N	2	1989-01-01	3	2	0	http://bit.ly/1NbSOtz
GODFREY	12	Similar to Bolleana. Seems to be pure alba. Perhaps a bit wider.  Vigorous, healthy, no bld in 1992. Light flowering, pollinate early. Rooting: 1992=65% 17/26 8 cuttings.	F	0	0	0	1526 Godfrey SW Grand Rapids, MI	0	0	F	N	N	N	Y	2	1992-01-01	3	2	0	http://bit.ly/1NbSOtz
POL3	13	About a 50 year old tree, very tall and slender and upright crown, exceptionally white bark. Good pollen vigor but some clumping.  Pollen used in 1993 cross.  	M	0	0	0	lat44 40' N; long 7 50' E; alt 175 m. Italy	0	0	U	Y	N	N	Y	2	1993-01-01	3	2	0	http://bit.ly/1NbSOtz
POL2	14	70-80 year old tree of massive dimensions. Fairly large branches wth flat branch angle and broad crown.  Excellent pollen vigor. Used in 1993 cross.	M	0	0	0	lat44 40' N; long 7 50' E; alt 175 m. Italy	0	0	W	Y	N	N	Y	2	1993-01-01	3	2	0	http://bit.ly/1NbSOtz
SER41	15	Rick Hall collected this pollen from an Italian plantation near the town of Ghivazzano on the east side of the track, north of the train station.  This tree was on the NW corner of the plantation.  It should have good rooting, since it was collected from a plantation.  Broad crown, large diameter, medium steep branch angle, not exceptionally tall.  Good pollen vigor.  Apparently a local man had made a collection of promising trees and established this plot 30 years ago.  Ser is an abbreviation for Serchio River, the valley in which all of these collections were made, north of the city of Lucca.  This is the only region in Itally and maybe Europe where P. alba is grown as a commercial species in plantations.  There has been a long history of selecting trees that root well for use in the plantations.  The assumption is that this area has natural populations that root well.  This area is about as far South as one can go in Italy and have sufficient cold hardiness for our winters.  	M	0	0	0	lat44 05' N; long 10 25' E; alt 100 m. Italy	0	0	W	Y	N	N	Y	2	1993-01-01	3	2	0	http://bit.ly/1NbSOtz
SER42	16	Collected from an experimental plantation near Ghivazzano, Italy. Tree is 150' tall.  Abnormal pollen.  Tree located near ser41. estimated 150' tall, may be polyploid due to the size of the tree and unusual pollen behavior.  NO seed was produced...	M	0	0	0	lat44 05' N; long 10 25' E; alt 100 m. Italy	0	0	W	Y	N	N	Y	2	1993-01-01	3	2	0	http://bit.ly/1NbSOtz
SER5	17	Taken from a tree growing along the west bank of the river south of the town of Borgo, Italy.  It may be a planted tree.  Large tree, perhaps over 50 years old. Tree has large sized branches.	M	0	0	0	lat44 05' N; long 10 30' E; alt 60 m. Italy	0	0	W	Y	N	N	Y	2	1993-01-01	3	2	0	http://bit.ly/1NbSOtz
SER6	18	From a commercial plantation N. of Lucca, Italy. 40 in diameter.  Located between a gravel quarry on the river and the dike along the roadway.  It is heavily branched and sparsely distributed. 	M	0	0	0	lat43 50' N; long 10 25' E; alt 40 m. Italy	0	0	W	Y	N	N	Y	2	1993-01-01	3	2	0	http://bit.ly/1NbSOtz
NORTHFOX	19	(AKA NFA) Found in 1993. Similar to Prince alba and located about 1 mile to the North.  This SE area of Grand Rapids has a naturalized population of albas.  NFA is more yellow and the form is less crooked. NFA has more red and is larger.  Prince is longer, darker and not as thick in stem diameter.  I forced flowers of both NFA and Prince and earlier notes (1993?) indicate a difference.  NFA flowers have more red, are bigger (fatter) and Prince flowers are longer, darker and not as thick. On 9/15/0 I observed a 3 bole clump and a single tree 20' away.  These trees were ery healthy and impressive.  Propagating this clone in 2010.  On 2-10-01: This clone was the top performer in a 1992 trial at ISU with 3 trees, 100% survival.  It measured 17.1 DBH in 2007 with 10.79 t/ac/yr.  On 3/29/10 I visited this tree (GR ortet) and compared male stamen development to Prince.  While the color was the same (pink), NFA appeared to be a bit behind Prince.  Having said that, they may be the same tree, need to confirm any differences.  In Spring of 2010, Prince was just starting to shed pollen and NFA should be starting in 2-3 days.	M	0	NFA	0	347 Fox St. SW (W of Buchannan, N of Burton) GR, MI.	0	0	W	Y	N	N	Y	2	1991-01-01	3	2	0	http://bit.ly/1NbSOtz
ALGER	20	Alger has very small, distinctive stigmas, Noted for good rooting of the early albas. Rooting: 1989=66%, 1990=55%	F	0	0	0	North side of Alger Ave. E of Kalamazoo & W of Plymouth. 	0	0	W	N	N	N	Y	2	1985-01-01	3	2	0	http://bit.ly/1NbSOtz
A546	21	I took flower branches from this tree in 1991.  It was a huge tree.  It has large male buds with little pubesence.  It seems like a P. Canescens since 36xaa91 appears like an AGA cross.	M	0	0	0	 Norris Arm, Newfoundland (1970) I got it from Canada.	0	0	W	Y	N	N	N	2	1991-01-01	3	2	0	http://bit.ly/1NbSOtz
A101	22	Not to be confused with clone AA101. From Canada.  They selected this from pop 1 in 1953.  It is a large tree with an open crown.	F	0	0	0	Tobra County, Hungary	0	0	W	Y	N	N	N	2	1991-01-01	3	2	0	http://bit.ly/1NbSOtz
JAMIE	23	Some of the trees are 40+ years old (1990). Traits: Large, open crown, white bark, sun scalds very easy on young S. side bark.  Roots poor, fast grower, flowers early (4yrs), suckers to 100'.   No noticable BLD. Leaves stay late, until frost kills them.	M	0	0	0	S of GR,MI. Many trees planted along E. Paris and Patterson.  	0	0	W	Y	N	N	Y	2	1983-01-01	3	2	0	http://bit.ly/1NbSOtz
ZOO	24	This clone is similar to EBL alba.	M	0	0	0	S of GR,MI. Many trees planted along E. Paris and Patterson.  	0	0	W	N	N	N	Y	2	1992-01-01	3	2	0	http://bit.ly/1NbSOtz
SOUTHBELL	25	A large open crowned tree. Lots of flowers, good flowering characteristics, typical alba.  Died in 2003.	F	0	0	0	S of GR,MI. Many trees planted along E. Paris and Patterson.  	0	0	W	N	N	N	Y	2	1995-01-01	3	2	0	http://bit.ly/1NbSOtz
15AG4MF	26	A Brad Bender selection.  This family performed well on a UP MSU site.  MSU Family U08m row-column location is 55-51.  A common short name is simply AG15.	U	0	0	AG15	U08m-1992 Row-41 Column-19 (middle tree in 3-tree plot)	0	0	M	Y	N	N	N	2	2011-01-01	6	25	0	http://bit.ly/1NbSOtz
AA101	27	Not to be confused with clone A101.  One of 3 trees planted @ 100/Patterson in MI. AA101 has good form, vigor but some stem canker.  Lots of flower buds, some flower branches rooted in the buckets after 2.5 weeks.  Rooting: 1994=2/30(7%)	F	0	0	0	McGovern breeding project	0	0	W	N	N	N	N	2	1987-01-01	3	3	0	http://bit.ly/1NbSOtz
PA092	28	From Italy's Casale Monferrato (Alessadria) via the Poplar Institute of Experimentation and Dott. G. Lapietra.  Pollen was old & weak from shipment. 	M	0	0	0	Italy: lat N 45 degrees 08' Long E. 8 degrees 30'	0	0	W	Y	N	N	Y	2	1991-01-01	3	2	0	http://bit.ly/1NbSOtz
PCA1	29	Border female @ old PCA aspen planting (1971). It is a large straight bole.  It origininated from Romania as an open pollinated seedling collected from a single plus tree in a nursery.  IPC's number was: XA-0-93-70. 	F	0	0	0	PCA site @ Freesoil, MI	0	0	W	N	N	N	N	2	1988-01-01	3	2	0	http://bit.ly/1NbSOtz
PCA2	30	Border female @ old PCA aspen planting (1971). It is a large straight bole.  It origininated from Romania as an open pollinated seedling collected from a single plus tree in a nursery.  IPC's number was: XA-0-93-70. Propagation was attempted but failed.	F	0	0	0	PCA site @ Freesoil, MI	0	0	W	N	N	N	N	2	1988-01-01	3	2	0	http://bit.ly/1NbSOtz
AA510	31	It is the tallest of all alba seedlings of 1989 crosses with good tap root.  Rooting: 1990=50%, 1992=54%	U	0	0	0	McGovern breeding project	0	0	M	Y	N	N	N	2	1989-01-01	3	109	0	http://bit.ly/1NbSOtz
AA511	32	Selected from Howard City Rest Area site.  Very vigorous tree.  Rooting: 1992=40%  	U	0	0	0	McGovern breeding project	0	0	M	Y	N	N	N	2	1990-01-01	3	109	0	http://bit.ly/1NbSOtz
AA2101	33	Selected in nursery for vigor and strong tap root in 1992. Planted @ RNE, flowered @ age 4. Very narrow fastigate tree that is suseptible to BLD, short lived.  Ortet rooted 100% but was dissapointing since. Rooting:  1992=100%, 2003=38% (20/53), 2004=32% (19/60).	U	0	0	0	Ortet located at Sand Lake/US 131 Interchange	0	0	W	Y	N	N	N	2	1992-01-01	3	57	0	http://bit.ly/1NbSOtz
AA4101	34	Excellent form and vigor.  Some BLD. Seems to have aspen branching features. 37 circ, 11.8 diameter on 12/26/04. BLD score: 8/28/01=1 Rooting: 2004=0% (0/40)	F	0	0	0	Ortet located @ RNE/US 131 	0	0	M	N	N	N	Y	2	2001-01-01	3	88	0	http://bit.ly/1NbSOtz
AA4102	35	Excellent form and vigor.  Form may be better than aa4101. Seems to have aspen branching features. 37 circ, 11.8 diameter on 12/26/04. BLD score: 8/28/01=0 Rooting: 2004=10% (4/40)	M	0	0	0	Ortet located @ RNE/US 131 	0	0	M	Y	N	N	Y	2	2001-01-01	3	88	0	http://bit.ly/1NbSOtz
AA4201	36	Open pollinated seed from Yugoslavia. Good form and vigor dispite top damage. Lots of flowers. BLD score: 2001=0% (0/20)	M	0	0	0	Ortet located @ RNE/US 131 	0	0	M	Y	N	N	Y	2	2001-01-01	3	90	0	http://bit.ly/1NbSOtz
DN34	37	Used as a control clone.  Has a reputation for good, stable performance even on dry sites. Rooting 6 cuttings: 2004=86% (153/178).  Originated at the Simon Louis Freres Nursery in Plantieres, France in 1832 and imported to North America around the 19th or early 20th century.  	M	P. xcanadensis 'Eugenei'	Carolina	NC-5326	Hramor Nursery - Manistee, Michigan	0	0	M	Y	Y	N	Y	2	1985-01-01	1	2	0	http://bit.ly/1NbSOtz
NM6	38	Used as a control clone.  Very vigorous, known to be susceptible to wind breakage.  Have seen canker issues.	M	Populus nigra L. x P. maximowiczii A. Henry 'NM6'	0	0	Brad Bradford	0	0	M	Y	Y	N	N	2	2004-01-01	1	2	0	http://bit.ly/1NbSOtz
PIONEER	39	Typical alba, poor form fair vigor.  Seems to be a poor seed bearing tree!	F	0	0	0	Located on W. side of Pioneer Construction Co. SE of Burton/131 along Plaster Creek	0	0	W	N	N	N	Y	2	1990-01-01	3	2	0	http://bit.ly/1NbSOtz
TA10	40	Tetraploid (4N) P. tremula.  A large tree with short stubby branches and lots of huge flower buds.  Does not seem to be long lived.  See: http://www.sfws.auburn.edu/enebak/pubs/cjfr26.html  It may originate from the oceanic region of Ekebo, Sweden.  It is suspected to be poorly adapted to our climate. Sheds a lot of pollen.  Must dry before storage or it may clump.	M	0	0	0	DNR MTIC	0	0	M	N	N	N	N	4	2004-01-01	1	2	0	http://bit.ly/1NbSOtz
AA3201	41	A vigorous tree, fair to poor form. Rooting: 2004=0% (0/20)	F	0	0	0	Ortet located @ RNE/US 131 	0	0	M	N	N	N	N	2	2004-01-01	3	78	0	http://bit.ly/1NbSOtz
AAG2001	42	Vigorous tree growing on a good site at RNE.  One of 15 ortets planted at RNE in which 2 were vigorous.  This clone was cut in 2014 for breeding, producing family 1xBAR with 0% germination at Rakers and 3 seedlings at MBP. 	M	0	0	0	RNE/US131 Interchange Michigan. 14th tree from family stake.	0	0	M	N	N	N	N	2	2004-01-01	1	56	0	http://bit.ly/1NbSOtz
AAG2002	43	Vigorous 3 bole tree growing on a somewhat poorly drained site.  Tallest tree on this site.  Very large leaves.  Produced 1 surviving seedling in 2004.  Stigmas have some red. 28 circumference on 12/26/03.  Observed on 8/16/09 that this single 4yr clone at CSSE was doing very well, about 5 dbh. same as best 82xAA04 tree.  Should monitor for bld.  Two planted at UofMN averaged 17cm dbh in 10 yrs.  	F	0	0	0	Sand Lake/US131 Interchange Michigan	0	0	M	N	N	N	N	2	2004-01-01	1	56	0	http://bit.ly/1NbSOtz
77AA8	101	Selected after 2yr. Root test. Good growth 4-6'..  Rooting: 2003=80% (Black), 2004=100% 10/10	U	0	0	0	Ortet selected in 2004 nursery	0	0	M	N	N	N	N	2	2004-01-01	3	130	0	http://bit.ly/1NbSOtz
AA901	44	Vigorous tree with fairly good form. Has a slight East lean.  Flowering: Sparse, heavy bracts, can't see stigmas, fertilize at 1/2 flower length.  33 circ, 10.5 diameter on 12/26/03.  Rooting: 2004=0%	F	0	0	0	Ortet located @ RNE/US 131 	0	0	M	N	N	N	N	2	2004-01-01	3	146	0	http://bit.ly/1NbSOtz
CLONE5	45	Huge, vigorous well formed small tooth aspen. Can make good quality seed. 	F	0	0	0	DNR MTIC	0	0	M	N	N	N	N	2	2004-01-01	1	2	0	http://bit.ly/1NbSOtz
AA2301	46	Huge, vigorous poorly formed tree. 2 sides biased. Collected root/shoots in 2004.  37 circ, 11.8 diameter on 12/26/03.  Rooting: 2004=0%	F	0	0	0	PMG's site @ RNE/US 131	0	0	M	N	N	N	N	2	2004-01-01	3	60	0	http://bit.ly/1NbSOtz
AA3001	47	One of 3 trees planted at SLSE.  This is the most vigorous.  Diameter was 10.8 on 12/26/03.Has poor form.  BLD: 2003=1, 2004=0. Flowering: must fertilize early, at 1/2 Rooting: 2004=10% (4/40) 	F	0	0	0	Sand Lake/US131 Interchange Michigan	0	0	M	N	N	N	N	2	2004-01-01	3	76	0	http://bit.ly/1NbSOtz
GG102	48	A nice full sib GxG selection from the East edge of the MBP RNE planting.  Note that the parents BT044 x BT016 ranked second and first in the MSU, Greg Reighard 1982 P. Smithii test. 	F	0	0	0	PMG's site @ RNE/US 131	0	0	M	N	N	N	N	2	2004-01-01	10	49	0	http://bit.ly/1NbSOtz
GG101	49	A nice full sib GxG selection from the East edge of the MBP RNE planting.  Note that the parents BT044 x BT016 ranked second and first in the MSU, Greg Reighard 1982 P. Smithii test. 	M	0	0	0	PMG's site @ RNE/US 131	0	0	M	N	N	N	N	2	2004-01-01	10	49	0	http://bit.ly/1NbSOtz
BT016	50	This is potentially the same tree as MSU's 7431-0016 that was used in Greg Reighard's plantings. It is the male parent of the #1 MSU family for their Water Quality site.   I cut a tree likely of this clone on 2/27/93.  I selected a 14 dia tree about 29 paces North of Greg R's selection.  It is on a ledge.  I cut the number 93 into the stump after I cut the tree.	M	0	0	0	Ingham County sec 34 t2n, r1e ON Williamston Rd. before Dansville & Bunker Hill, on West side of road.  It is .4 mile South of Howard road. 	0	0	M	N	N	N	N	2	1990-01-01	10	2	0	http://bit.ly/1NbSOtz
BT044	51	This is potentially the same tree as MSU's 7431-0044 selection. This is the female that was used in P. smithii family that was #2 in WC test and had no observed (by PMG) BLD at MSU WC site in 1990.  	F	0	0	0	Van Burien County T15, R15w sec 29. Located 1 mile NW of Breedsville, MI	0	0	M	N	N	N	N	2	1990-01-01	10	2	0	http://bit.ly/1NbSOtz
FHBT	52	Large tree in a yard.  Known as Forest Hills Big Tooth.	M	0	0	0	NE Grand Rapids @ Forest Hills Dr and Ada Dr.	0	0	M	N	N	N	N	2	1988-01-01	10	2	0	http://bit.ly/1NbSOtz
BT1	53	Fair form.	M	0	0	0	North of Middlevile, E of M37next to road sign, Grand Rappids 22	0	0	M	N	N	N	N	2	1990-01-01	10	2	0	http://bit.ly/1NbSOtz
BT2	54	0	F	0	0	0	In Barry State Game area. Whitmore and Oak st. 	0	0	M	N	N	N	N	2	1990-01-01	10	2	0	http://bit.ly/1NbSOtz
BT017	55	4 trees in clone. Looks good, site looks good. About 2 miles SE of bt016.	M	0	0	0	Ingham County sec 3. SW of Ewers & Lienhart Intersection.	0	0	M	N	N	N	N	2	1993-01-01	10	2	0	http://bit.ly/1NbSOtz
CRANDON	56	This clone has been used in many NC tests.  It gets BLD very heavily near Grand Rapids, MI. It often dies before age 10 on stressfull sites.  On good sites it is a productive clone.  Known for good diameter growth. It rooted 14% in 1990. 	B	0	0	0	Iowa	0	0	M	N	N	N	N	2	1983-01-01	6	2	0	http://bit.ly/1NbSOtz
FHAG	57	A large single AG in a yard.  Good seed producer. A sucker is planted at RNE.	F	0	0	0	NE Grand Rapids @ Forest Hills Dr and Ada Dr.	0	0	M	N	N	N	N	2	1987-01-01	6	2	0	http://bit.ly/1NbSOtz
KENT	58	0	F	0	0	0	SE Grand Rapids, MI. W of EBL and N of 44th, S of 36th 	0	0	M	N	N	N	N	2	1989-01-01	6	2	0	http://bit.ly/1NbSOtz
GA14	59	The male alba is from Brno, Czech.	F	0	0	0	Obtained pollen from Maple, Ontario	srs,g3	A56	M	N	N	N	N	2	1991-01-01	7	2	0	http://bit.ly/1NbSOtz
AGMORIN	60	Located on a very sandy dry site.  Some BLD. Does not seem to sucker as much as Crandon.  A vigorous clone! Flowers late in age.  	M	0	0	0	Located E of Manistee, MI. Behind City Bar. 	0	0	M	N	N	N	N	2	1985-01-01	6	2	0	http://bit.ly/1NbSOtz
AGRR1	61	A vigorous, well formed wild AG from Rockford, MI with lightly figured wood, and growing on a good site. Trees were about 33 years old in 1991 and 90 feet tall.  Planted at RNE.  Visited the ortet on 9/17/13 and the stand is still going strong.  Straight line winds in early Spring 2014 blew down most of this clone.  It has good veneer peeling characteristics per Tom Lenderink.	M	0	0	0	W of Rockford, MI. on Oak st 1 mile E of 10 mile.	0	0	M	N	N	N	N	2	1991-01-01	6	2	https://drive.google.com/open?id=0B7-SwoTVeWFaME1GY1JNMWJfcXc	http://bit.ly/1NbSOtz
CA2	62	A selection from Czechoslovakia.  Planted at PCA test planting. Very suseptible to BLD. Poor form, very poor rooting?	F	0	0	0	Howard City Rest Area along US131	0	0	M	N	N	N	N	2	1985-01-01	9	2	0	http://bit.ly/1NbSOtz
AE42	63	Fair form.  Good rooting. Rooting: Canada=50%, 1989=33%, 1990=46%	M	0	0	0	Maple, Ontario	a69	e12	M	N	N	N	N	2	1989-01-01	9	2	0	http://bit.ly/1NbSOtz
C28	64	Canada obtained this clone from Pradikow, Prussia.	M	0	0	0	Maple, Ontario	0	0	M	N	N	N	N	2	1991-01-01	9	2	0	http://bit.ly/1NbSOtz
CAG177	65	Produced in 1964 in Maple, Ontario Canada.  Seems to have more aspen traits and better form than its sibling CAG204.  A fair performer at CSSE site, one large tree and several suckers.  Rooting: Canada called it a poor rooter, McGovern: 52% via 8 cutitngs and #30 IBA (1989. 53% 7 cuttings #30 IBA 1990.  It is affected by BLD, grows on good sites. Started male branches in 1989 from Canada, which were young (10 yrs?) sparsely flowered.  It shed very little pollen and but did not make seed.  Planted at HCRA, CSSE and 2 at McGovern's Creek off 29st.     	M	0	0	0	Maple, Ontario	c18	ag7	M	N	N	N	N	2	1989-01-01	13	2	https://drive.google.com/open?id=0B7-SwoTVeWFaZ2NvWUFkLUE3TkE	http://bit.ly/1NbSOtz
CAG204	66	Produced in 1969 in Toronto, Ontario Canada.  Seems to have more alba traits.  An excellent performer at CSSE site with trees grown 1.5' apart as stools for 20+ years. Fall leaf color has been black in nursery (89,90) Rooting: Canada=37%, 1989=60%, 1990=27%.  Same parents as CAG177, but very different clones in appearance and form.  The female, C18 is a P. canescens obtained from Brno, Czechoslovakia in 1953.  The male is AG7, obtained from Rosedale Golf Club in Toronto, Ontario in 1954.  Collected 3 Wind pollinated branches in 2011 with excellent seed set and good seed viability.     	F	0	0	0	Maple, Ontario	c18	ag7	M	Y	N	N	N	2	1989-01-01	13	2	https://drive.google.com/open?id=0B7-SwoTVeWFaT0ZENHl0RVFLTHc	http://bit.ly/1NbSOtz
ST071	67	A selection by PMG that tried to collect MSU's 7439-0071 tremuloides selection.  I found a depression.  His notes indicate, probably won't find it	F	0	0	0	Roscommon county t22n, r4w sec 3,10 .3 miles S of old m27 from wildlife station. E side of road.	0	0	M	N	N	N	N	2	1990-01-01	11	2	0	http://bit.ly/1NbSOtz
ST072	68	0	M	0	0	0	3 miles N of st071. N side of research station., 200' from m27.	0	0	M	N	N	N	N	2	1991-01-01	11	2	0	http://bit.ly/1NbSOtz
ST2	69	Did not hold seed well.	F	0	0	0	Located west of st071.	0	0	M	N	N	N	N	2	1990-01-01	11	2	0	http://bit.ly/1NbSOtz
ST3	70	Wild P. Smithi. 10 trees in clone. About 12 in dia.  Gets BLD and dies back like AG's.  It is planted at SLNE and is as vigorous as Prince alba.  Poor alba like form and is bisexual.  The leaves do not resemble the TG's made by MSU, however, they do have some tomentose on leaf undersides and on the tips of the buds.  Should check its ploidy level as leaves are dark green with a similar texture to TA10. 14.6 diameter on 12/26/03.	B	0	0	0	SE Grand Rapids, MI. S of 52nd, W of Eastern.  	0	0	M	N	N	N	N	2	1990-01-01	5	2	0	http://bit.ly/1NbSOtz
EE102	71	All of the 1xee91 tremula have died from an unknown die back disease.  This was one of the last survivors Took these roots from the parent tree on 5/26/03.  very vigorous tree, great form.  This was the 9th tree from the North stake at RNE.  Planted 5 at CSSE in 2005 of which 2 survived.   	F	0	0	0	RNE US131	e138	e120	M	N	N	N	N	2	2003-01-01	12	44	0	http://bit.ly/1NbSOtz
E138	72	Canada obtained this clone from Hubenow, Moravia in 1963. 	F	0	0	0	Maple, Ontario	0	0	M	N	N	N	N	2	1991-01-01	12	2	0	http://bit.ly/1NbSOtz
E120	73	Canada obtained this clone from East Germany. It is a fairly clean looking tree. Produced a lot of pollen.	M	0	0	0	Maple, Ontario	0	0	M	N	N	N	N	2	1991-01-01	12	2	0	http://bit.ly/1NbSOtz
ST5	74	0	F	0	0	0	Roscommon county t22n, r4w sec 4  on DNR research site.	0	0	M	N	N	N	Y	2	1993-01-01	11	2	0	http://bit.ly/1NbSOtz
T8057	75	A 2N tremuloides.  Fairly typical small tooth?	F	0	0	0	MTIC Howell, MI	0	0	M	N	N	N	Y	2	2004-01-01	1	2	0	http://bit.ly/1NbSOtz
R43C76	76	Obtained root material on 4/24/04:  Female with circumference of 33 & lots of maturing catkins. No visible disease. This is an edge tree, yet its inside sibling (R43C77) is larger (37 circumference) yet it might be dead? Leaves just starting to flush. Propagated 2 trees in 2004 for MSU.  	F	0	0	0	 MSU-Sand Hill - 82.02	7439-0033	7431-0033	M	N	N	N	Y	2	2004-01-01	1	2	0	http://bit.ly/1NbSOtz
R32C77	77	Obtained root material on 4/24/04:  Circumference of 33 & medium amount of maturing catkins. No visible disease. Propagated 4 vigorous trees in 2004 for MSU.  	F	0	0	0	 MSU-Sand Hill - 82.02	7439-0033	7431-0033	M	N	N	N	Y	2	2004-01-01	1	2	0	http://bit.ly/1NbSOtz
R28C74	78	 Obtained root material on 4/24/04: Likely a male (no catkins).  A nice tree, great form, no disease.   No sign of bud movement.  Circumference is 49.  Located between R23C72 and R32C76 with 3 PINK ribbons.  Roots were very difficult to obtain, somewhat poor in quality. Propagated 1 12 shoot from a large root in 2004. This may be a selection form the wild.	M	0	0	0	 MSU-Sand Hill - 82.02	0	0	M	N	N	N	Y	2	2004-01-01	1	2	0	http://bit.ly/1NbSOtz
76AA4	79	Selected after 2yr. Root test. Branchy. Rooting: 2003=100% (Yellow), 2004=90% 9/10	U	0	0	0	Ortet selected in 2004 nursery	0	0	M	N	N	N	N	2	2004-01-01	3	129	0	http://bit.ly/1NbSOtz
76AA5	80	Selected after 2yr. Root test. Not Branchy. Rooting: 2003=100% (Yellow), 2004=80% 8/10	U	0	0	0	Ortet selected in 2004 nursery	0	0	M	N	N	N	N	2	2004-01-01	3	129	0	http://bit.ly/1NbSOtz
76AA6	81	Selected after 2yr. Root test. Vigorous, not Branchy. Rooting: 2003=100% (Yellow), 2004=90% 9/10	U	0	0	0	Ortet selected in 2004 nursery	0	0	M	N	N	N	N	2	2004-01-01	3	129	0	http://bit.ly/1NbSOtz
76AA7	82	Selected after 2yr. Root test. Vigorous, not Branchy. Rooting: 2003=100% (Yellow), 2004=60% 6/10	U	0	0	0	Ortet selected in 2004 nursery	0	0	M	N	N	N	N	2	2004-01-01	3	129	0	http://bit.ly/1NbSOtz
76AA8	83	Selected after 2yr. Root test. OK growth. Rooting: 2003=100% (Yellow), 2004=70% 7/10	U	0	0	0	Ortet selected in 2004 nursery	0	0	M	N	N	N	N	2	2004-01-01	3	129	0	http://bit.ly/1NbSOtz
76AA9	84	Selected after 2yr. Root test. Vigorous, not Branchy. Rooting: 2003=100% (Yellow), 2004=100% 10/10	U	0	0	0	Ortet selected in 2004 nursery	0	0	M	N	N	N	N	2	2004-01-01	3	129	0	http://bit.ly/1NbSOtz
76AA1	85	Selected after 2yr. Root test. Varied Growth. Rooting: 2003=100% (Red), 2004=70% 21/30	U	0	0	0	Ortet selected in 2004 nursery	0	0	M	N	N	N	N	2	2004-01-01	3	129	0	http://bit.ly/1NbSOtz
76AA2	86	Selected after 2yr. Root test. Varied Growth. Rooting: 2003=100% (Red), 2004=90% 27/30, 2005 PIP1=81% 17/21	U	0	0	0	Ortet selected in 2004 nursery	0	0	M	N	N	N	N	2	2004-01-01	3	129	0	http://bit.ly/1NbSOtz
76AA3	87	Selected after 2yr. Root test. Varied Growth. Rooting: 2003=100% (Red), 2004=70% 21/30	U	0	0	0	Ortet selected in 2004 nursery	0	0	M	N	N	N	N	2	2004-01-01	3	129	0	http://bit.ly/1NbSOtz
76AA10	88	Selected after 2yr. Root test. Tall 4-6'. Rooting: 2003=80% (Black), 2004=100% 10/10	U	0	0	0	Ortet selected in 2004 nursery	0	0	M	N	N	N	N	2	2004-01-01	3	129	0	http://bit.ly/1NbSOtz
76AA11	89	Selected after 2yr. Root test. OK growth.  Rooting: 2003=80% (Black), 2004=70% 7/10	U	0	0	0	Ortet selected in 2004 nursery	0	0	M	N	N	N	N	2	2004-01-01	3	129	0	http://bit.ly/1NbSOtz
76AA12	90	Selected after 2yr. Root test. OK growth.  Rooting: 2003=80% (Black), 2004=100% 10/10	U	0	0	0	Ortet selected in 2004 nursery	0	0	M	N	N	N	N	2	2004-01-01	3	129	0	http://bit.ly/1NbSOtz
76AA13	91	Selected after 2yr. Root test. Variable growth. Rooting: 2003=80% (Black), 2004=80% 8/10	U	0	0	0	Ortet selected in 2004 nursery	0	0	M	N	N	N	N	2	2004-01-01	3	129	0	http://bit.ly/1NbSOtz
76AA14	92	Selected after 2yr. Root test. Nice growth 3-4'. Rooting: 2003=80% (Black), 2004=100% 10/10	U	0	0	0	Ortet selected in 2004 nursery	0	0	M	N	N	N	N	2	2004-01-01	3	129	0	http://bit.ly/1NbSOtz
76AA15	93	Selected after 2yr. Root test. OK growth. Rooting: 2003=80% (Black), 2004=90% 9/10	U	0	0	0	Ortet selected in 2004 nursery	0	0	M	N	N	N	N	2	2004-01-01	3	129	0	http://bit.ly/1NbSOtz
76AA16	94	Selected after 2yr. Root test. OK growth. Rooting: 2003=100% (Yellow), 2004=90% 9/10	U	0	0	0	Ortet selected in 2004 nursery	0	0	M	N	N	N	N	2	2004-01-01	3	129	0	http://bit.ly/1NbSOtz
76AA17	95	Selected after 2yr. Root test. Nice 4-5'. Rooting: 2003=100% (Yellow), 2004=90% 9/10	U	0	0	0	Ortet selected in 2004 nursery	0	0	M	N	N	N	N	2	2004-01-01	3	129	0	http://bit.ly/1NbSOtz
76AA18	96	Selected after 2yr. Root test. Best  competetive growth!  4-5'. Rooting: 2003=100% (Yellow), 2004=80% 8/10	U	0	0	0	Ortet selected in 2004 nursery	0	0	M	N	N	N	N	2	2004-01-01	3	129	0	http://bit.ly/1NbSOtz
76AA19	97	Selected after 2yr. Root test. Good growth. Rooting: 2003=100% (Yellow), 2004=90% 9/10	U	0	0	0	Ortet selected in 2004 nursery	0	0	M	N	N	N	N	2	2004-01-01	3	129	0	http://bit.ly/1NbSOtz
77AA1	98	Selected after 2yr. Root test. OK growth 2-3'.  Rooting: 2003=100% (Red), 2004=83% 25/30	U	0	0	0	Ortet selected in 2004 nursery	0	0	M	N	N	N	N	2	2004-01-01	3	130	0	http://bit.ly/1NbSOtz
77AA2	99	Selected after 2yr. Root test. OK growth 2-3'.  Rooting: 2003=100% (Red), 2004=80% 32/40	U	0	0	0	Ortet selected in 2004 nursery	0	0	M	N	N	N	N	2	2004-01-01	3	130	0	http://bit.ly/1NbSOtz
77AA9	100	Selected after 2yr. Root test. OK branchy.  Rooting: 2003=80% (Black), 2004=80% 8/10	U	0	0	0	Ortet selected in 2004 nursery	0	0	M	N	N	N	N	2	2004-01-01	3	130	0	http://bit.ly/1NbSOtz
92AA11	191	92aa11#rankms=19_rankdc=6_reps=2_srate=0.8_class=A	U	0	0	0	2012 McGovern Bell Ave Nursery	0	0	U	Y	N	N	N	2	2012-11-04	3	152	TBD	http://bit.ly/1NbSOtz
77AA3	102	Selected after 2yr. Root test. OK growth. .  Rooting: 2003=100% (Yellow), 2004=60% 6/10	U	0	0	0	Ortet selected in 2004 nursery	0	0	M	N	N	N	N	2	2004-01-01	3	130	0	http://bit.ly/1NbSOtz
77AA4	103	Selected after 2yr. Root test. OK growth. .  Rooting: 2003=100% (Yellow), 2004=100% 10/10	U	0	0	0	Ortet selected in 2004 nursery	0	0	M	N	N	N	N	2	2004-01-01	3	130	0	http://bit.ly/1NbSOtz
77AA5	104	Selected after 2yr. Root test. Nice, 4-5'  growth. .  Rooting: 2003=100% (Yellow), 2004=100% 10/10	U	0	0	0	Ortet selected in 2004 nursery	0	0	M	N	N	N	N	2	2004-01-01	3	130	0	http://bit.ly/1NbSOtz
77AA6	105	Selected after 2yr. Root test. OK growth, branchy.  Rooting: 2003=100% (Yellow), 2004=100% 10/10	U	0	0	0	Ortet selected in 2004 nursery	0	0	M	N	N	N	N	2	2004-01-01	3	130	0	http://bit.ly/1NbSOtz
83AA1	106	#9:  Selected during PIP2 Root test.  Best of PIP2. Had 2 dead shoots, tallest=25mm, Smallest dia=4, Rooting: 2005=2/3 66%	U	0	0	0	Ortet selected in 2005 PIP3 test	0	0	M	N	N	N	N	2	2005-01-01	3	140	0	http://bit.ly/1NbSOtz
83AA2	107	#24: Selected during PIP3 root test. Weighted score=29, basic score=50.  Best of PIP3 test! Rooting: 2005=4/6 66%	U	0	0	0	Ortet selected in 2005 PIP3 test	0	0	M	N	N	N	N	2	2005-01-01	3	140	0	http://bit.ly/1NbSOtz
83AA3	108	#29: Selected during PIP3 root test. Weighted score=24, basic score=33.  Heavy bottom rooting. Rooting: 3/6 50%	U	0	0	0	Ortet selected in 2005 PIP3 test	0	0	M	N	N	N	N	2	2005-01-01	3	140	0	http://bit.ly/1NbSOtz
83AA4	109	#30: Selected during PIP3 root test. Weighted score=25, basic score=27.  Rooting: 3/6 50%	U	0	0	0	Ortet selected in 2005 PIP3 test	0	0	M	N	N	N	N	2	2005-01-01	3	140	0	http://bit.ly/1NbSOtz
83AA5	110	#48: Selected during PIP3 root test. Weighted score=23, basic score=27.  Heavy bottom rooting. Rooting: 5/6 83%	U	0	0	0	Ortet selected in 2005 PIP3 test	0	0	M	N	N	N	N	2	2005-01-01	3	2	0	http://bit.ly/1NbSOtz
83AA6	111	Selected for potential figured wood characteristics.  The 2nd year wood of this 3yr. tree had bumpy/rippled bark.  I cut 3 4' whips for 2007 propagation.  Need to root test indoors next year.  Need to see if any clones will show figured wood....  May be a good candidate to cross with good rooters...	U	0	0	0	Ortet selected from Post/US131 Interchange on 4/11/07	0	0	M	N	N	N	N	2	2005-01-01	3	140	0	http://bit.ly/1NbSOtz
83AA58	112	This is a PIP tested clone.  It maps to record B11.58-83x in my PIP docs and it had a score of 25.5 (low)...  It was likely a mistake that it was given to Brad Bender who used it in his rooting tests.  However, it may still be a good rooting clone since Flat B was challenged with dryness which likely affected rooting results...	U	0	0	0	Ortet selected in 2010 @ Bell Nursery	0	0	M	N	N	N	N	2	2005-01-01	3	140	0	http://bit.ly/1NbSOtz
83AA101	113	Selected on 7/11/09 for its 4N potential.  Has very thick stem, large buds, extra green leaves, vigorous but shorter height and very thick and unusual terminal shoot.  Collected 10 softwood cuttings from syliptic shoots for propagation and dipped with #30 IBA.  Took pics of selections.  Transplanted 7 rooted cuttings on about 8/1/09.  On 8/16/09 the tallest plant was 9 1/4 tall and 3.2 mm at base.	U	0	0	0	Selection from 2009 sowing of the remaining 4 batches of this seed.  523 seedlings survived on 5/26.	0	0	M	N	N	N	N	2	2009-01-01	3	140	0	http://bit.ly/1NbSOtz
83AA102	114	Selected on 7/11/09 for its vigorous growth and extra thick stem diameter potential.  Stem dia at base=8.3 mm (ave large stemmed population is 6.5)  Collected 10 softwood cuttings from syliptic shoots for propagation and dipped with #30 IBA. Took pics of selections.  Transplanted 7 rooted cuttings on about 8/1/09.  On 8/16/09 the tallest plant was 13.3/4 tall and 4 mm at base.	U	0	0	0	Selection from 2009 sowing of the remaining 4 batches of this seed.  523 seedlings survived on 5/26.	0	0	M	N	N	N	N	2	2009-01-01	3	140	0	http://bit.ly/1NbSOtz
83AA103	115	Selected in 9/2009 for a possible mutation where a sylliptic shoot apparently mutated (somaclonal variation?) and the observable change was that the leaf shape above that shoot was spear shaped.  I propagated the tips and the shape is still spear shaped.  More propagation will be conducted.  It may be useful as a marker clone.  It may even revert back to the normal alba maple leaf shape...	U	0	0	0	Selection from 2009 sowing of the remaining 4 batches of this seed.  523 seedlings survived on 5/26.	0	0	M	N	N	N	N	2	2009-01-01	3	140	0	http://bit.ly/1NbSOtz
83AA104	116	Selected in 9/2009 for its remarkable growth performance in the back 20% Northern section of the nursery row that was typically slower growing. It was growing in a competitive area with many nearby seedlings.  It grew 8' 2 in the nursery. and has the thickest basal stem diameter (19mm @1 from root collar) of the entire 2009 83x crop.  The next tallest class contains about 10 seedlings that are about 6 to 6.5 feet tall.  The stem is relatively straight, leaves healthy and terminal tip has a medium sized bud that is tightly closed (observed 10/19).  On 10/20, observed that its remaining leaves went from top to about 52 from ground.  Need to monitor all internal trees for leaf drop date.  Also, this clone does not have any sylliptic shoots, which could be very good for form.  As of 11/07/09 the leaf retention is perhaps the best of all the nursery trees. and they are still quite green.  Noticed that ants like the sap exuding from the freshly fallen leaves, somewhat swee too.  Took pics of leaf and growwing tip with leaves.	U	0	0	0	Selection from 2009 sowing of the remaining 4 batches of this seed.  523 seedlings survived on 5/26.	0	0	M	N	N	N	N	2	2009-01-01	3	140	0	http://bit.ly/1NbSOtz
T0601	117	Vigorous clone growing on marginal, open site.  Need GPS site location.	M	0	0	0	12231 Buchanan (SE Big Rapids) Clear cut, 200' from S side of road.	0	0	M	N	N	N	Y	2	2006-01-01	1	2	0	http://bit.ly/1NbSOtz
T0602	118	Vigorous clone growing on good, weedy site.  Some of the ripe aspen ovaries are bright yellow...  Need GPS site location. 	F	0	0	0	< 1mile SE of GFS and East of bike path West of lumber yard and South of 54th. 	0	0	M	N	N	N	Y	2	2006-01-01	1	2	0	http://bit.ly/1NbSOtz
4AA101	119	Nice tree, even compares favorably to area DN 34 and border tree.  A number are planted at HCRA with 2 nice specimens.	U	0	0	0	Ortet @ HCRA, 16th tree East of 4xaa89 West stake.	0	0	M	N	N	N	N	2	2009-01-01	3	96	0	http://bit.ly/1NbSOtz
70AA01	120	Observed a nice single bole border specimen at RNE on SW end.  No observed BLD in 09.  Should be an interesting clone, since it has no A502 and the ser41 male parent was selected from an Italian plantation so it may have good rooting.  10/05/09 Site observations:  48 Circumfirence, no surviving siblings, may have been cut down, has larger stem branches (3-4 class). Fairly straight bole. Quite tapered.  3 Nearby single bole DN34: 35 and 36 circ. 	F	0	0	0	RNE SW corner, tagged	0	0	M	N	N	N	N	2	2009-01-01	3	123	0	http://bit.ly/1NbSOtz
68AA01	121	Fall-09 Observed a nice specimen at RNE on SW end.  It is a 3 bole tree with no observed BLD in 09.  Should be an interesting clone, since it has no A502 and POL2 males was known for its size. 10/05/09 site observations: North bole circumference is 40 at 4' high. Moderate stem branchiness (2-3 dia size).  Siblings are much weaker.  3 Nearby single bole DN34: 35 and 36 circ. 	F	0	0	0	RNE SW corner, tagged	0	0	M	N	N	N	N	2	2009-01-01	3	120	0	http://bit.ly/1NbSOtz
62AA01	122	Observed 8/31/09: Found one really nice tree at RNE (2009). Quite vigorous, reasonable form.  10/05/09 site observations: 50 circumference at 4' high. Slight sweep in bole. 2 leaves observed to have BLD on lower branch, otherwise very healthy...  Side branches are 2-3 best of the 93 bunch...  Nearby DN34 are 32, 34, and 44 circumference.  The 44 tree is a border tree on West side.	M	0	0	0	RNE - West of AA4102, 3rd row from west edge.	0	0	M	N	N	N	N	2	2009-01-01	3	114	0	http://bit.ly/1NbSOtz
76AA214	123	Grown at Bell in 2008 and Ryan's nursery in 2009 (6/10)	U	0	0	0	Ortet selected in 2009 nursery	0	0	M	N	N	N	N	2	2004-01-01	3	129	0	http://bit.ly/1NbSOtz
76AA217	124	Grown at Bell in 2008 and Ryan's nursery in 2009 (12/20). May be best 76aa clone.	U	0	0	0	Ortet selected in 2009 nursery	0	0	M	N	N	N	N	2	2004-01-01	3	129	0	http://bit.ly/1NbSOtz
83AA189	125	This is a PIP tested clone.  It maps to record D6.189.83x and had a score of 112.5 which was the highest 2010 PIP score.   Brad Bender used it in his rooting tests	U	0	0	0	Ortet selected in 2010 @ Bell Nursery	0	0	M	N	N	N	N	2	2005-01-01	3	140	0	http://bit.ly/1NbSOtz
83AA202	126	Not associated with 2009 PIP-202 test...	U	0	0	0	Ortet selected in 2009 @ Bell Nursery	0	0	M	N	N	N	N	2	2009-01-01	3	140	0	http://bit.ly/1NbSOtz
83AA203	127	Dark green leaves - Bugs like leaves...  The PIP-09-T5 test had incredible callus cluster roots at cutting base. 5/6 rooted 2009.	U	0	0	0	Ortet selected in 2009 @ Ryans Nursery	0	0	M	N	N	N	N	2	2005-01-01	3	140	0	http://bit.ly/1NbSOtz
83AA204	128	First tested in 2/16/2010 in PIP test 2010-02-16-83x-D with an ID of D7.204.83x and a PIP score of 103.5.  The roots have exceptionaly thick basal callus.  Planted 7 cuttings, 6 survived with the tallest at 8.5'.  3 others were around 8'.  A 1-0 stock of this clone also outperformed nearby clones but not to the same degree. It should be noted that additional fertilizer was applied 2' from the cuttings to ensure survival of the only 41AA111 cutting.  Therefore this clone needs to be reassessed again.  Dormant syliptic cuttings were propagated under lights on 3/24/11.  There were shoots forming from the callus.  On 4/18/11 larger 8cm cuttings were propagated with buds cut off and significant amount of callus and shoots have formed.  	U	0	0	A204	Ortet selected in 2009 @ Bell Nursery	0	0	M	Y	N	N	N	2	2009-01-01	3	140	0	http://bit.ly/1NbSOtz
83AA206	129	NIce! Tallest=81, 100% rooting if 4 is counted. 3/4 2009 rooting. 2010 Rooted 67% (14/21).	U	0	0	0	Ortet selected in 2009 @ Ryans Nursery	0	0	M	N	N	N	N	2	2005-01-01	3	140	0	http://bit.ly/1NbSOtz
83AA208	130	2/4 in 2009	U	0	0	0	Ortet selected in 2009 @ Ryans Nursery	0	0	M	N	N	N	N	2	2005-01-01	3	140	0	http://bit.ly/1NbSOtz
83AA209	131	2/11 in 2009 rooting.  Huge 1-0 and 1-1 parent stock, Large leaves, wavy, syliptic	U	0	0	0	Ortet selected in 2009 @ Ryans Nursery	0	0	M	N	N	N	N	2	2005-01-01	3	140	0	http://bit.ly/1NbSOtz
35AA200	132	This entire family has the latest leaf drop of any surviving clones at RNE (2009).  All are fairly vigorous trees with fair form.	M	0	0	0	RNE	0	0	M	N	N	N	N	2	2010-01-01	3	80	0	http://bit.ly/1NbSOtz
35AA201	133	6/10 rooted in a PIP test in 11/09, but likely not a good rooter.  See: 92xAA10	M	0	0	0	RNE	0	0	M	N	N	N	N	2	2010-01-01	3	80	0	http://bit.ly/1NbSOtz
35AA202	134	See: 102xAA10 and 104xAA10	F	0	0	0	RNE	0	0	M	N	N	N	N	2	2010-01-01	3	80	0	http://bit.ly/1NbSOtz
83AA105	135	Selected in 9/2009 for its numerous small side shoots that may indicate it will be extremely branchy... Scored 29.5 PIP in 2009 (#87) for flat C, which was challenged.	U	0	0	0	Selection from 2009 sowing of the remaining 4 batches of this seed.  523 seedlings survived on 5/26.	0	0	M	N	N	N	N	2	2009-01-01	3	140	0	http://bit.ly/1NbSOtz
83AA106	136	Selected in 9/2009 for its numerous small side shoots that may indicate it will be extremely branchy... Scored 62 PIP in 2009 (#96) for flat C, which was challenged.	U	0	0	0	Selection from 2009 sowing of the remaining 4 batches of this seed.  523 seedlings survived on 5/26.	0	0	M	N	N	N	N	2	2009-01-01	3	140	0	http://bit.ly/1NbSOtz
83AA107	137	Selected in 9/2009 for its large dia/hgt and aspen like bark (not white).  Fairly straight.  Scored 104 PIP in 2009 (#183) for flat D - all BCR rooting.	U	0	0	0	Selection from 2009 sowing of the remaining 4 batches of this seed.  523 seedlings survived on 5/26.	0	0	M	N	N	N	N	2	2009-01-01	3	140	0	http://bit.ly/1NbSOtz
41AA111	138	Fastigate tree. This and aa4102 are last surviving trees of this clone planted at RNE (~70 planted). It was declining in vigor.  The flowers were very high, so it was cut down in Spring 2010 for Phase 3 breeding.  The stems had a curly habit.  Tree was cut at about 4.5' high to promote shoots for propagation.  It was mated with 3 albas, NFA, EBL, and 35AA201. It had large flowers with thick stigmas.  I fertilized it when the flowers were 1/2 long but might   have been better to wait until about 3/4 long since the stigmas seemed to peak then. It was not an ideal female from a seed bearing perspective in 2010.	F	0	0	0	Ortet located (stump tagged) @ RNE/US 131	0	0	M	N	N	N	N	2	2001-01-01	3	88	0	http://bit.ly/1NbSOtz
33AA11	139	Nice, well formed tree. Flowers were receptive later (2010)  than other albas, which is why it was selected for NFA, since the Zoss alba pollen failed.  Flower lengths ranged from 1/2 to 3/4 at the time of the NFA fertilization.  On 4/13 I observed how unusual these seed bearing catkins were with large, bright green flowers that point upwards.  It dehised the seed naturally and was very productive.  A 3 branch flowering set produced about 8000 seeds in 2010, which could make it more productive than A502.	F	0	0	0	Ortet located at RNE/US 131 tagged (It is the 11th tree of this family from the South edge of planting at RNE)	0	0	M	N	N	N	N	2	2010-01-01	3	79	0	http://bit.ly/1NbSOtz
40AA08	140	Nice tree with a slight sweep in trunk.  Growing fairly good on a somewhat poorly drained, maintained site.  Mated with 4 males in 2010. While it produced a fair amount of seed, it was not as productive as 33AA11	F	0	0	0	Ortet located at Sand Lake SE and US131 interchange. It is the 8th tree of this family from the North edge.	0	0	M	N	N	N	N	2	2010-01-01	3	87	0	http://bit.ly/1NbSOtz
30AA5MF	141	AKA 30AA-U08m-5-2. A vigorous, robust tree.  It was surrounded by healthy trees on all sides, yet this tree was very competitive. Poor form typical of PCA2 type trees; however, Brad Bender noticed that the branches were fairly contained and did not reach outsidehe area.  This family ranked #3 for 17yr. TPAY of 6.15 at MSU's U08m FBIC site.	F	0	0	30AA-8m-5-2	MSU's Escanaba UPTIC U08m site. Tree location is row/column 5-2.	0	0	M	N	N	N	N	2	2010-01-01	3	76	0	http://bit.ly/1NbSOtz
40AA6MF	142	A nice well formed tree.  Had longer catkins than its sibling, 40AA08.  This female does not root via PIP process.  It produces nice shoots but no roots.	F	0	0	40AA-8m-23-27	MSU's Escanaba UPTIC U08m site. Tree location is row/column 23-27.	0	0	M	N	N	N	N	2	2010-01-01	3	87	0	http://bit.ly/1NbSOtz
83AA3MF	164	Originally from TRC stool beds and planted at U08as alba clonal trial.	U	0	0	83AA-MSU-69	TRC selection from 2009 sowing of the remaining 4 batches of this seed.  523 seedlings survived on 5/26.	0	0	U	U	N	N	N	2	2010-05-14	3	140	0	http://bit.ly/1NbSOtz
83AA1MF	143	A fairly nice tree.  It had 2 male catkins in 2010 that were used in Phase 3 crosses to sire about 450 seeds of 1 cross (100xAA10).  Pollinated 6 flowers from top to bottom with the minimal pollen.  Planted a 1/2 flat on 4/11 as the branch died early and flowers started rotting.  About 1/3 of the seed was small. Crude PIP testing done with the flowering branch material suggest that this may be a good rooter with 100% PIP rooting of tips, and some shoots > 20mm. 	M	0	0	83AA-7m-3-17	MSU's Escanaba UPTIC U07m site. Tree location is row/column 3-17	0	0	M	N	N	N	N	2	2010-01-01	3	140	0	http://bit.ly/1NbSOtz
83AA2MF	144	A fairly nice tree, good form with one side facing a no-tree family.  It had 13 male catkins in 2010 that were used in Phase 3 crosses to sire about 1600 seeds of 2 crosses (98xAA10  & 104xAA10). Crude PIP testing done with the flowering branch material suggest that this may be a fair rooter with 82% PIP rooting of tips, but NO shoots > 20mm.	M	0	0	83AA-7m-7-4	MSU's Escanaba UPTIC U07m site. Tree location is row/column 7-4	0	0	M	N	N	N	N	2	2010-01-01	3	140	0	http://bit.ly/1NbSOtz
83AA166	145	This is a PIP tested clone.  It maps to record D4.166.83x and had a score of 70.5 which is mediocre.  It was 11/11 in 2010 Bell nursery and was noted for its early and vigorous start.  It is used in ASP tests...	U	0	0	0	Ortet selected in 2010 @ Bell Nursery	0	0	M	N	N	N	N	2	2005-01-01	3	140	0	http://bit.ly/1NbSOtz
87AA101	146	This is one of 3 seedlings from 3 different families that have variegated leaves.  These F2 families are 87xAA10, 90xAA10 and 94xAA10.  They all share a common F1 parent cross of 40xAA91 (A10 x A57), but 2 come from different 40xAA91 females. Andy David suggested that I follow them over time to see 1) if the varigation disappears as the season progresses 2) whether or not leaves are varigated next year.  Value not only as markers but potentially as horticultural examples.  That may be more valuable in the long run.  See email title: Found 3 variegated albas.  	U	0	0	0	Ortet selected in 2010 @ Woodard Nursery	0	0	M	N	N	N	N	2	2010-01-01	3	164	0	http://bit.ly/1NbSOtz
90AA101	147	This is one of 3 seedlings from 3 different families that have variegated leaves.  These F2 families are 87xAA10, 90xAA10 and 94xAA10.  They all share a common F1 parent cross of 40xAA91 (A10 x A57), but 2 come from different 40xAA91 females. Andy David suggested that I follow them over time to see 1) if the varigation disappears as the season progresses 2) whether or not leaves are varigated next year.  Value not only as markers but potentially as horticultural examples.  That may be more valuable in the long run.  See email title: Found 3 variegated albas.	U	0	0	0	Ortet selected in 2010 @ Woodard Nursery	0	0	M	N	N	N	N	2	2010-01-01	3	165	0	http://bit.ly/1NbSOtz
94AA101	148	This is one of 3 seedlings from 3 different families that have variegated leaves.  These F2 families are 87xAA10, 90xAA10 and 94xAA10.  They all share a common F1 parent cross of 40xAA91 (A10 x A57), but 2 come from different 40xAA91 females. Andy David suggested that I follow them over time to see 1) if the varigation disappears as the season progresses 2) whether or not leaves are varigated next year.  Value not only as markers but potentially as horticultural examples.  That may be more valuable in the long run.  See email title: Found 3 variegated albas.	U	0	0	0	Ortet selected in 2010 @ Woodard Nursery	0	0	M	N	N	N	N	2	2010-01-01	3	161	0	http://bit.ly/1NbSOtz
ST7	149	This is an isolated clone - not tagged.  Noted that after flowers shed or matured, bisexual flowers developed so it may be temporary or unstable.  Collected 8 branches. 	F	0	0	0	Roscommon county t22n, r4w sec 4  on DNR research site.  Clone is directly across the street from 9166 on M55, about 150' South.  	0	0	M	N	N	N	Y	2	1993-03-06	11	2	0	http://bit.ly/1NbSOtz
ST8	150	Could be more of this clone at this location. Flowers worked well for a 16 test branch. 	F	0	0	0	Wexford county, Clam Lake TWP. US131 and 115 South of Cadillac exit 176.  Tree is 5 reflector stakes S of 115.  Heavy seed crop.	0	0	M	N	N	N	Y	2	1993-03-06	11	2	0	http://bit.ly/1NbSOtz
ST9	151	Not a good seed bearing tree for P. smithii in 93...	F	0	0	0	Kent county, Plainfield twp. Section 3, SE quad of us-131 and 10 mile interchange in a depression	0	0	M	N	N	N	Y	2	1993-03-23	11	2	0	http://bit.ly/1NbSOtz
ST10	152	Tree is tagged and painted, may be good for seed bearing.  	F	0	0	0	Kent county, Plainfield twp. Section 3, SE quad of us-131 and 10 mile interchange. About 20 yards east of ramp.	0	0	M	N	N	N	Y	2	1993-03-23	11	2	0	http://bit.ly/1NbSOtz
100AA01	153	A SASP selection from the 100xAA10 family.  It was selected for good rooting and vigorous growth under ASP conditions.  In the 2010-11-14-T9 ASP test, this clone rooted very well without any treatment (just water). 	U	0	0	0	PMG's 2010-05-08 100xAA10 SASP test.	0	0	U	Y	N	N	N	2	2010-09-16	3	158	0	http://bit.ly/1NbSOtz
100AA02	154	A SASP selection from the 100xAA10 family.  It was selected for good rooting and vigorous growth under ASP conditions.  In the 2010-11-14-T9 ASP test, this clone did NOT root as well without any treatment (just water). 	U	0	0	0	PMG's 2010-05-08 100xAA10 SASP test.	0	0	U	Y	N	N	N	2	2010-09-16	3	158	0	http://bit.ly/1NbSOtz
100AA03	155	A SASP selection from the 100xAA10 family.  It was selected for good rooting and vigorous growth under ASP conditions.  See SASP 2010-05-08 100xAA10	U	0	0	0	PMG's 2010-05-08 100xAA10 SASP test.	0	0	U	Y	N	N	N	2	2010-09-16	3	158	0	http://bit.ly/1NbSOtz
100AA04	156	A SASP selection from the 100xAA10 family.  It was selected for good rooting and vigorous growth under ASP conditions.   See SASP 2010-05-08 100xAA10	U	0	0	0	PMG's 2010-05-08 100xAA10 SASP test.	0	0	U	Y	N	N	N	2	2010-09-16	3	158	0	http://bit.ly/1NbSOtz
ZOSS	157	Likely a wild AG clone.  Found in Sioux Falls, SD. The tree is behind 605 N. Nesmith Ave. That owner is Dorothy Zoss.   A huge tree...	M	0	0	0	Found in Sioux Falls, SD. The tree is behind 605 N. Nesmith Ave	0	0	W	Y	N	N	Y	2	2010-12-18	6	2	0	http://bit.ly/1NbSOtz
J2	158	Very similar to Jamie alba, likely the same tree...???  Not for breeding purposes, just for observation...	M	0	0	0	North of 5/3 Ballpark.	0	0	W	Y	N	N	Y	2	2010-12-17	3	2	0	http://bit.ly/1NbSOtz
76AA205	159	Grown at Bell in 2008 and Ryan's nursery in 2009 (6/10)	U	0	0	0	Ortet selected in 2009 nursery	0	0	M	N	N	N	N	2	2004-01-01	3	129	0	http://bit.ly/1NbSOtz
76AA211	160	Grown at Bell in 2008 and Ryan's nursery in 2009 (6/10)	U	0	0	0	Ortet selected in 2009 nursery	0	0	M	N	N	N	N	2	2004-01-01	3	129	0	http://bit.ly/1NbSOtz
76AA218	161	Grown at Bell in 2008 and Ryan's nursery in 2009 (6/10)	U	0	0	0	Ortet selected in 2009 nursery	0	0	M	N	N	N	N	2	2004-01-01	3	129	0	http://bit.ly/1NbSOtz
83AA301	162	Tree is planted and tagged at CSSE on North end of 2005 planting.  It is a vigorous tree with about 10-15 female flowers in 2011 with estimated receptive date of 4/20/11.  The surrounding trees were removed to eliminate competition and allow better flowering.  	F	0	0	0	Ortet selected at CSSE site, because it is the first female 83x clone	0	0	M	N	N	N	N	2	2011-04-21	3	140	0	http://bit.ly/1NbSOtz
WIND	163	A generic place holder for all wind or open pollinated males.	M	0	Wind or Open Pollinated 	W	God	0	0	U	U	N	N	U	2	1111-11-11	2	1	0	http://bit.ly/1NbSOtz
83AA4MF	165	Originally from TRC stool beds and planted at U08as alba clonal trial.	U	0	0	83AA-MSU-70	TRC selection from 2009 sowing of the remaining 4 batches of this seed.  523 seedlings survived on 5/26.	0	0	U	U	N	N	N	2	2010-05-14	3	140	0	http://bit.ly/1NbSOtz
83AA5MF	166	Originally from TRC stool beds and planted at U08as alba clonal trial.	U	0	0	83AA-MSU-66	TRC selection from 2009 sowing of the remaining 4 batches of this seed.  523 seedlings survived on 5/26.	0	0	U	U	N	N	N	2	2010-05-14	3	140	0	http://bit.ly/1NbSOtz
83AA6MF	167	Originally from TRC stool beds and planted at U08as alba clonal trial.	U	0	0	83AA-MSU-75	TRC selection from 2009 sowing of the remaining 4 batches of this seed.  523 seedlings survived on 5/26.	0	0	U	U	N	N	N	2	2010-05-14	3	140	0	http://bit.ly/1NbSOtz
83AA7MF	168	Originally from TRC stool beds and planted at U08as alba clonal trial.	U	0	0	83AA-MSU-74	TRC selection from 2009 sowing of the remaining 4 batches of this seed.  523 seedlings survived on 5/26.	0	0	U	U	N	N	N	2	2010-05-14	3	140	0	http://bit.ly/1NbSOtz
83AA8MF	169	Originally from TRC stool beds and planted at U08as alba clonal trial.	U	0	0	83AA-MSU-65	TRC selection from 2009 sowing of the remaining 4 batches of this seed.  523 seedlings survived on 5/26.	0	0	U	U	N	N	N	2	2010-05-14	3	140	0	http://bit.ly/1NbSOtz
83AA9MF	170	Originally from TRC stool beds and planted at U08as alba clonal trial.	U	0	0	83AA-MSU-68	TRC selection from 2009 sowing of the remaining 4 batches of this seed.  523 seedlings survived on 5/26.	0	0	U	U	N	N	N	2	2010-05-14	3	140	0	http://bit.ly/1NbSOtz
83AA10MF	171	Originally from TRC stool beds and planted at U08as alba clonal trial.	U	0	0	83AA-MSU-63	TRC selection from 2009 sowing of the remaining 4 batches of this seed.  523 seedlings survived on 5/26.	0	0	U	U	N	N	N	2	2010-05-14	3	140	0	http://bit.ly/1NbSOtz
83AA11MF	172	Originally from TRC stool beds and planted at U08as alba clonal trial.	U	0	0	83AA-MSU-72	TRC selection from 2009 sowing of the remaining 4 batches of this seed.  523 seedlings survived on 5/26.	0	0	U	U	N	N	N	2	2010-05-14	3	140	0	http://bit.ly/1NbSOtz
83AA12MF	173	Originally from TRC stool beds and planted at U08as alba clonal trial.	U	0	0	83AA-MSU-71	TRC selection from 2009 sowing of the remaining 4 batches of this seed.  523 seedlings survived on 5/26.	0	0	U	U	N	N	N	2	2010-05-14	3	140	0	http://bit.ly/1NbSOtz
83AA13MF	174	Originally from TRC stool beds and planted at U08as alba clonal trial.	U	0	0	83AA-MSU-67	TRC selection from 2009 sowing of the remaining 4 batches of this seed.  523 seedlings survived on 5/26.	0	0	U	U	N	N	N	2	2010-05-14	3	140	0	http://bit.ly/1NbSOtz
83AA14MF	175	Originally from TRC stool beds and planted at U08as alba clonal trial.	U	0	0	83AA-MSU-73	TRC selection from 2009 sowing of the remaining 4 batches of this seed.  523 seedlings survived on 5/26.	0	0	U	U	N	N	N	2	2010-05-14	3	140	0	http://bit.ly/1NbSOtz
83AA15MF	176	Originally from TRC stool beds and planted at U08as alba clonal trial.	U	0	0	83AA-MSU-64	TRC selection from 2009 sowing of the remaining 4 batches of this seed.  523 seedlings survived on 5/26.	0	0	U	U	N	N	N	2	2010-05-14	3	140	0	http://bit.ly/1NbSOtz
83AA16MF	177	Originally from TRC stool beds and planted at U08as alba clonal trial.	U	0	0	83AA-MSU-76	TRC selection from 2009 sowing of the remaining 4 batches of this seed.  523 seedlings survived on 5/26.	0	0	U	U	N	N	N	2	2010-05-14	3	140	0	http://bit.ly/1NbSOtz
83AA17MF	178	Originally from TRC stool beds and planted at U08as alba clonal trial.	U	0	0	83AA-MSU-62	TRC selection from 2009 sowing of the remaining 4 batches of this seed.  523 seedlings survived on 5/26.	0	0	U	U	N	N	N	2	2010-05-14	3	140	0	http://bit.ly/1NbSOtz
C173	179	U07l-1999 FBIC trial hybrid aspen from Canada via clone named Ca-14-75. A 1975 P. canescens addition from Louis Zufa, via clone number C173 from Clone 484/64 of Zavod Za Topole, Novi Sod, Yugoslavia--open pollinated seedling of plus tree #46 , alba like	F	0	0	Ca-14-75	Canada via Louis Zufa, originally from Zavod Za Topole, Novi Sod, Yugoslavia--open pollinated seedling of plus tree #4	0	0	W	Y	Y	N	N	2	2012-02-20	9	2	TBD	http://bit.ly/1NbSOtz
T202	180	A wild P. tremuloides located on East side of M37 about ? mile South of Mission Point road.. Used for WASP testing	M	0	0	0	Patrick McGovern	0	0	W	U	N	N	N	2	2012-02-20	1	2	TBD	http://bit.ly/1NbSOtz
1BW1	181	Renamed from 1CAGW01. 2012 Bell Nursery selection via 1.5 Avg Vigor Survival rate and 100% 6 cutting survival rate (6/6).  A vigorous ramet with Small Tooth and tremula aspen traits.  P. Tremuloides may be male parent. 	U	0	0	1CAGW01	2012 McGovern Bell Ave Nursery	0	0	U	Y	N	N	N	2	2012-06-28	14	171	TBD	http://bit.ly/1NbSOtz
80AA3MF	182	Selected by Brad Bender at MSU's FBIC site for notable diameter.  He propagated it via harvesting 120 watersprout shoots at 4' and sticking them in soil mix for several weeks. column 9 and row 5 on the u07m map, it is also in block I. It is the 1st tree in that 4 tree plot. The plot has trees on all sides except the tree in column9 row 4, the space next to this tree where I made the cuttings. It is interesting that the few shoots that I left alone on that tree have all died. This may have been a one time opportunity to get 120 easy greenwood cuttings from the lower branches that are already senescencing  like this.  DBH after 8 years = TBD	U	0	0	TBD	MSU's FBIC  U07m-2005 site (MF) Row = , Column =  .  	0	0	W	Y	N	N	N	2	2012-06-21	3	137	TBD	http://bit.ly/1NbSOtz
1CAGW02	183	2012 Bell Nursery selection via .65 Avg Vigor Survival rate and 50% via 6 cutting survival rate (8/4).  A vigorous ramet with Big Tooth and tremula aspen traits.  AE42 may be male parent. 	U	0	0	0	2012 McGovern Bell Ave Nursery	0	0	U	Y	N	N	N	2	2012-11-04	14	171	TBD	http://bit.ly/1NbSOtz
1CAGW03	184	2012 Bell Nursery selection via 1.11 Avg Vigor Survival rate and 86% via 6 cutting survival rate (6/7).  A vigorous ramet with Big Tooth and tremula aspen traits.  AE42 may be male parent. 	U	0	0	0	2012 McGovern Bell Ave Nursery	0	0	U	Y	N	N	N	2	2012-11-04	14	171	TBD	http://bit.ly/1NbSOtz
100AA11	185	2012 Bell Nursery selection via .88 Avg Vigor Survival rate and 75% via 6 cutting survival rate.	U	0	0	0	2012 McGovern Bell Ave Nursery	0	0	U	Y	N	N	N	2	2012-11-04	3	158	TBD	http://bit.ly/1NbSOtz
100AA12	186	2012 Bell Nursery selection via .78 Avg Vigor Survival rate and 85% via 6 cutting survival rate.	U	0	0	0	2012 McGovern Bell Ave Nursery	0	0	U	Y	N	N	N	2	2012-11-04	3	158	TBD	http://bit.ly/1NbSOtz
101AA11	187	2012 Bell Nursery selection via .76 Avg Vigor Survival rate and 75% via 6 cutting survival rate.	U	0	0	0	2012 McGovern Bell Ave Nursery	0	0	U	Y	N	N	N	2	2012-11-04	3	156	TBD	http://bit.ly/1NbSOtz
103AA11	188	2012 Bell Nursery selection via .99 Avg Vigor Survival rate and 90% via 6 cutting survival rate.  Planted with 20 cuttings.	U	0	0	0	2012 McGovern Bell Ave Nursery	0	0	U	Y	N	N	N	2	2012-11-04	3	170	TBD	http://bit.ly/1NbSOtz
104AA11	189	2012 Bell Nursery selection via .84 Avg Vigor Survival rate and 70% via 6 cutting survival rate.	U	0	0	0	2012 McGovern Bell Ave Nursery	0	0	U	Y	N	N	N	2	2012-11-04	3	169	TBD	http://bit.ly/1NbSOtz
104AA12	190	2012 Bell Nursery selection via .77 Avg Vigor Survival rate and 87% via 6 cutting survival rate.  Planted 3 replications.	U	0	0	0	2012 McGovern Bell Ave Nursery	0	0	U	Y	N	N	N	2	2012-11-04	3	169	TBD	http://bit.ly/1NbSOtz
93AA11	192	93aa11#rankms=74_rankdc=66_reps=3_srate=1.0_class=A	U	0	0	0	2012 McGovern Bell Ave Nursery	0	0	U	Y	N	N	N	2	2012-11-04	3	166	TBD	http://bit.ly/1NbSOtz
93AA12	193	2012 Bell Nursery selection via .57 Avg Vigor Survival rate and 60% via 6 cutting survival rate, 4 replications.. A 2011 PRAVL selection (6/6 in 2011)	U	0	0	0	2012 McGovern Bell Ave Nursery	0	0	U	Y	N	N	N	2	2012-11-04	3	166	TBD	http://bit.ly/1NbSOtz
95AA11	194	2012 Bell Nursery selection via .81 Avg Vigor Survival rate and 90% via 6 cutting survival rate.	U	0	0	0	2012 McGovern Bell Ave Nursery	0	0	U	Y	N	N	N	2	2012-11-04	3	162	TBD	http://bit.ly/1NbSOtz
97AA11	195	2012 Bell Nursery selection via .76 Avg Vigor Survival rate and 85% via 6 cutting survival rate.	U	0	0	0	2012 McGovern Bell Ave Nursery	0	0	U	Y	N	N	N	2	2012-11-04	3	159	TBD	http://bit.ly/1NbSOtz
98AA11	196	98aa11#rankms=52_rankdc=56_reps=3_srate=0.9_class=A	U	0	0	0	2012 McGovern Bell Ave Nursery	0	0	U	Y	N	N	N	2	2012-11-04	3	155	TBD	http://bit.ly/1NbSOtz
97AA12	197	2012 Bell Nursery selection via ..65 Avg Vigor Survival rate and 70% via 6 cutting survival rate.	U	0	0	0	2012 McGovern Bell Ave Nursery	0	0	U	Y	N	N	N	2	2012-11-04	3	159	TBD	http://bit.ly/1NbSOtz
A69	198	It was considered a good rooter, but I did not observe good rooting results in my tests.  One tree at RNE.	F	0	0	0	Apparently a wild selection from Brampton, Ontario in 1952.	0	0	W	N	N	N	Y	2	1989-01-01	3	2	TBD	http://bit.ly/1NbSOtz
9AG103	199	Poorly formed and with below average vigor.  Selected because it was the only accessable female from 9xAG family in 2013.  Tree was cut at 4' and coppiced over 12'.	F	0	0	0	1991 McGovern breeding project	0	0	W	N	N	N	N	2	1991-01-01	6	147	https://plus.google.com/u/0/photos/102384333186727094185/albums/5905173436984028769?authkey=CPqZopa__5y87AE	http://bit.ly/1NbSOtz
9AG105	200	Well formed, bisexual and above average vigor.  Selected for future breeding (2014).  Predominately Male in 2014.	B	0	0	0	1991 McGovern breeding project	0	0	W	Y	N	N	N	2	1991-01-01	6	147	https://plus.google.com/u/0/photos/102384333186727094185/albums/5905173436984028769?authkey=CPqZopa__5y87AE	http://bit.ly/1NbSOtz
GG1	201	Well formed bigtooth used for open pollinated study. 	F	0	0	G1	2013 McGovern Breeding project	0	0	W	N	N	N	Y	2	2013-05-04	10	175	0	http://bit.ly/1NbSOtz
GG2	202	Urban bigtooth used for open pollinated study. 	F	0	0	G2	2013 McGovern Breeding project	0	0	W	N	N	N	Y	2	2013-05-04	10	176	0	http://bit.ly/1NbSOtz
GG3	203	Rural bigtooth used for open pollinated study. 	F	0	0	G3	2013 McGovern Breeding project	0	0	W	N	N	N	Y	2	2013-05-24	10	177	0	http://bit.ly/1NbSOtz
3AA202	204	Selected from Howard City Rest Area site.  Very vigorous tree on a dry upland site.  Row/Column Location=TBD	F	0	0	0	1991 McGovern breeding project	0	0	W	Y	N	N	N	2	2013-04-13	3	83	0	http://bit.ly/1NbSOtz
83AA565	205	A 5 year old vigorous, well formed selection from U08as-2010 site (ro,w 6, Column 5) with trees planted as small diameter 10 cuttings.  This tree had about 10 female flowers that were used in 2014 crosses.	F	0	0	0	FBIC	0	0	M	Y	N	N	N	2	2014-04-07	3	140	0	http://bit.ly/1NbSOtz
80AA5MF	206	A FBIC u07m 9 year old selection for being a male tree with notable diameter, planted next to 80AA3MF.   DBH after 8 years = TBD, Row/Column = TBD.	M	0	0	0	MSU's FBIC  U07m-2005 site (MF) Row = , Column =  .  	0	0	W	Y	N	N	N	2	2014-04-07	3	137	TBD	http://bit.ly/1NbSOtz
PLAZA	207	A wild, well formed, vigorous AG clone from NE Grand Rapids, MI.  Used in 2014 breeding. It did not produce good seed (lower,older branch), it is not a good female for breeding.  	F	0	0	0	2014 McGovern Breeding project.   Location=TBD.	0	0	W	Y	N	N	Y	2	2014-04-07	6	2	TBD	http://bit.ly/1NbSOtz
82AA3	208	A 9 year vigorous, well formed selection from McGoverns CSSE site.  This tree had about 20 male flowers on 1 branch that were used in 2014 crosses.	M	0	0	0	2014 McGovern Breeding project.   Location=CSSE	0	0	M	Y	N	N	N	2	2014-04-07	3	139	TBD	http://bit.ly/1NbSOtz
ST11	209	A young, well formed, wild P. tremuloides located North of the Rockford Merrell parking lot.  It had excellent pollen shedding and mating characteristics.	M	0	0	0	2014 McGovern Breeding project.   Location=http://maps.google.com/?q=43.11552,-85.60007	0	0	M	Y	N	N	Y	2	2014-04-07	11	2	TBD	http://bit.ly/1NbSOtz
GG4	210	A young, well formed, wild P. grandidentata clone located SW of the Rockford Merrell parking lot.  It had many flowers and fair pollen shedding and mating characteristics.	M	0	0	G4	2014 McGovern Breeding project.   Location=http://maps.google.com/?q=43.111,-85.59949	0	0	M	Y	N	N	Y	2	2014-04-07	10	2	TBD	http://bit.ly/1NbSOtz
GG5	211	A young, wild P. grandidentata clone located in North Central UP Michigan.  It had many flowers, poor mating characteristics and may have figured wood traits. 	F	0	0	G5	2014 McGovern Breeding project.   Location=TBD.	0	0	W	U	N	N	Y	2	2014-04-07	10	2	TBD	http://bit.ly/1NbSOtz
GG6	212	An old, wild P. grandidentata clone located in NC UP Michigan.  It had many flowers, fair mating characteristics and has some figured wood traits.  The tree had little to none at the butt, but some figure at 30 feet.  Not sure if it is same High figured clone as others in area.	M	0	0	G6	2014 McGovern Breeding project.   Location=TBD.	0	0	W	Y	N	N	Y	2	2014-04-07	10	2	TBD	http://bit.ly/1NbSOtz
4AE1	213	A fairly nice 2014 selection from McGoverns SLSE site.  Produced 10 2104 seedlings when mated with Plaza.  Not sure if the issue was this pollen or Plaza female.	M	0	0	0	2014 McGovern Breeding project.   Location=SLSE	0	0	W	Y	N	N	N	2	2014-04-07	9	97	TBD	http://bit.ly/1NbSOtz
4TG1	214	A vigorous, well formed 21 year selection from FBIC in 2014.  This is not a TG family, it is likely an alba hybrid type cross.  Will attempt to verify parentage.  	M	0	0	0	2014 McGovern Breeding project.   Location=TBD.	0	0	W	Y	N	N	N	2	2014-04-07	5	1	TBD	http://bit.ly/1NbSOtz
4AE2	215	A fairly nice 2014 selection from McGoverns SLSE site.  It failed to produce seed in 2104 seedlings when mated with AGRR1 and 9AG105.  Perhaps it is sterile or a triploid.	F	0	0	0	2014 McGovern Breeding project.   Location=SLSE	0	0	W	Y	N	N	N	2	2014-04-07	9	97	TBD	http://bit.ly/1NbSOtz
GG7	216	A nice, wild P. grandidentata clone located in NC UP Michigan with figured wood traits.  It had a 6 inch DBH and imature male flowers that failed to produce pollen in 2014 breeding.  	M	0	0	G7	2014 McGovern Breeding project.   Location=TBD.	0	0	W	Y	N	N	Y	2	2014-04-07	10	2	TBD	http://bit.ly/1NbSOtz
GG8	217	A nice, wild P. grandidentata clone located in NC UP Michigan in an area with figured wood traits.  Initially named E3 by Johns roadside bank.	U	0	0	0	2014 McGovern Breeding project.   Location=TBD.	0	0	W	Y	N	N	Y	2	2014-04-07	10	2	TBD	http://bit.ly/1NbSOtz
GG9	218	A nice, wild P. grandidentata clone located in NC UP Michigan in an area with figured wood traits.  Initially named E4 located 21 paces North of Ees wood shed.	U	0	0	0	2014 McGovern Breeding project.   Location=TBD.	0	0	W	Y	N	N	Y	2	2014-04-07	10	2	TBD	http://bit.ly/1NbSOtz
22BG1	267	22bg1~rankms=112_rankdc=57_reps=3_srate=0.8_class=ASH	U	0	0	0	Phase 4 MBP	0	0	U	Y	N	N	N	2	2016-11-04	22	2	TBD	TBD
GG10	219	A nice, wild P. grandidentata clone located in NC UP Michigan in an area with figured wood traits.  Initially named E5 by Leagl house	U	0	0	0	2014 McGovern Breeding project.   Location=TBD.	0	0	W	Y	N	N	Y	2	2014-04-07	10	2	TBD	http://bit.ly/1NbSOtz
GG12	220	A nice, wild P. Grandidentata ~40 year old tree near SE Grand Rapids.  It was highly figured with 10 mm deep, diagonal wavy grain.  The 16' butt log had most figure but whole tree also had significant figure.  Will propagate several nearby rooted suckers.	M	0	0	ARTM	2015 McGovern Breeding project.   Location=SE Grand Rapids	0	0	W	Y	N	N	Y	2	2015-12-31	10	2	TBD	https://drive.google.com/open?id=0B7-SwoTVeWFaLUFfaFJNdThQN1k
82AA4	221	A nice , well formed, vigorous P. alba selection at age 11 at the CSSE site.  It had poor seed viability when mated with GG12.  Next time try fertilizing flowers later (1 inch). 	F	0	0	0	2014 McGovern Breeding project.   Location=CSSE	0	0	W	Y	N	N	N	2	2016-03-20	3	2	https://drive.google.com/open?id=0B7-SwoTVeWFaV2lsbXdkQkVRN0U	http://bit.ly/1NbSOtz
105AA3	222	105aa3~rankms=9_rankdc=8_reps=4_srate=0.9_class=A	U	0	0	0	Phase 4 MBP	0	0	U	Y	N	N	N	2	2016-11-04	3	2	TBD	TBD
105AA4	223	105aa4#rankms=109_rankdc=80_reps=2_srate=0.7_class=A	U	0	0	0	Phase 4 MBP	0	0	U	Y	N	N	N	2	2016-11-04	3	2	TBD	TBD
105AA5	224	105aa5#rankms=8_rankdc=9_reps=4_srate=1.0_class=A	U	0	0	0	Phase 4 MBP	0	0	U	Y	N	N	N	2	2016-11-04	3	2	TBD	TBD
106AA1	225	106aa1#rankms=6_rankdc=48_reps=2_srate=0.9_class=A	U	0	0	0	Phase 4 MBP	0	0	U	Y	N	N	N	2	2016-11-04	3	2	TBD	TBD
106AA3	226	106aa3#rankms=24_rankdc=101_reps=2_srate=0.5_class=A	U	0	0	0	Phase 4 MBP	0	0	U	Y	N	N	N	2	2016-11-04	3	2	TBD	TBD
106AA7	227	106aa7~rankms=-1_rankdc=2_reps=1_srate=1.0_class=A	U	0	0	0	Phase 4 MBP	0	0	U	Y	N	N	N	2	2016-11-04	3	2	TBD	TBD
106AA8	228	106aa8~rankms=-1_rankdc=2_reps=1_srate=1.0_class=A	U	0	0	0	Phase 4 MBP	0	0	U	Y	N	N	N	2	2016-11-04	3	2	TBD	TBD
107AA3	229	107aa3#rankms=33_rankdc=61_reps=1_srate=1.0_class=A	U	0	0	0	Phase 4 MBP	0	0	U	Y	N	N	N	2	2016-11-04	3	2	TBD	TBD
107AA7	230	107aa7#rankms=23_rankdc=42_reps=1_srate=1.0_class=A	U	0	0	0	Phase 4 MBP	0	0	U	Y	N	N	N	2	2016-11-04	3	2	TBD	TBD
11AB10	231	11ab10~rankms=2_rankdc=27_reps=2_srate=0.8_class=AH	U	0	0	0	Phase 4 MBP	0	0	U	Y	N	N	N	2	2016-11-04	19	2	TBD	TBD
11AB11	232	11ab11#rankms=13_rankdc=114_reps=1_srate=0.2_class=AH	U	0	0	0	Phase 4 MBP	0	0	U	Y	N	N	N	2	2016-11-04	19	2	TBD	TBD
11AB22	233	11ab22~rankms=16_rankdc=43_reps=2_srate=0.8_class=AH	U	0	0	0	Phase 4 MBP	0	0	U	Y	N	N	N	2	2016-11-04	19	2	TBD	TBD
11AB3	234	11ab3#rankms=25_rankdc=77_reps=2_srate=0.7_class=AH	U	0	0	0	Phase 4 MBP	0	0	U	Y	N	N	N	2	2016-11-04	19	2	TBD	TBD
13GB6	235	13gb6#rankms=40_rankdc=111_reps=2_srate=0.2_class=ASH	U	0	0	0	Phase 4 MBP	0	0	U	Y	N	N	N	2	2016-11-04	21	2	TBD	TBD
14B10	236	14b10~rankms=56_rankdc=48_reps=2_srate=1.0_class=H	U	0	0	0	Phase 4 MBP	0	0	U	Y	N	N	N	2	2016-11-04	15	2	TBD	TBD
14B11	237	14b11#rankms=85_rankdc=82_reps=2_srate=0.8_class=H	U	0	0	0	Phase 4 MBP	0	0	U	Y	N	N	N	2	2016-11-04	15	2	TBD	TBD
14B16	238	14b16#rankms=7_rankdc=72_reps=2_srate=1.0_class=H	U	0	0	0	Phase 4 MBP	0	0	U	Y	N	N	N	2	2016-11-04	15	2	TBD	TBD
14B17	239	14b17#rankms=45_rankdc=77_reps=2_srate=0.6_class=H	U	0	0	0	Phase 4 MBP	0	0	U	Y	N	N	N	2	2016-11-04	15	2	TBD	TBD
14B19	240	14b19#rankms=64_rankdc=100_reps=2_srate=0.5_class=H	U	0	0	0	Phase 4 MBP	0	0	U	Y	N	N	N	2	2016-11-04	15	2	TBD	TBD
14B21	241	14b21~rankms=30_rankdc=29_reps=2_srate=0.9_class=H	U	0	0	0	Phase 4 MBP	0	0	U	Y	N	N	N	2	2016-11-04	15	2	TBD	TBD
14B3	242	14b3#rankms=75_rankdc=82_reps=2_srate=0.8_class=H	U	0	0	0	Phase 4 MBP	0	0	U	Y	N	N	N	2	2016-11-04	15	2	TBD	TBD
14B30	243	14b30#rankms=103_rankdc=63_reps=1_srate=0.8_class=H	U	0	0	0	Phase 4 MBP	0	0	U	Y	N	N	N	2	2016-11-04	15	2	TBD	TBD
14B31	244	14b31~rankms=133_rankdc=7_reps=1_srate=1.0_class=H	U	0	0	0	Phase 4 MBP	0	0	U	Y	N	N	N	2	2016-11-04	15	2	TBD	TBD
14B4	245	14b4#rankms=23_rankdc=89_reps=2_srate=0.5_class=H	U	0	0	0	Phase 4 MBP	0	0	U	Y	N	N	N	2	2016-11-04	15	2	TBD	TBD
14B40	246	14b40#0_0_0_0_class=H	U	0	0	0	Phase 4 MBP	0	0	U	Y	N	N	N	2	2016-11-04	15	2	TBD	TBD
14B41	247	14b41#0_0_0_0_class=H	U	0	0	0	Phase 4 MBP	0	0	U	Y	N	N	N	2	2016-11-04	15	2	TBD	TBD
14B6	248	14b6#rankms=105_rankdc=64_reps=1_srate=1.0_class=H	U	0	0	0	Phase 4 MBP	0	0	U	Y	N	N	N	2	2016-11-04	15	2	TBD	TBD
14B7	249	14b7~rankms=21_rankdc=51_reps=2_srate=1.0_class=H	U	0	0	0	Phase 4 MBP	0	0	U	Y	N	N	N	2	2016-11-04	15	2	TBD	TBD
15B11	250	15b11#rankms=51_rankdc=85_reps=2_srate=0.5_class=H	U	0	0	0	Phase 4 MBP	0	0	U	Y	N	N	N	2	2016-11-04	15	2	TBD	TBD
15B14	251	15b14#rankms=156_rankdc=129_reps=1_srate=0.0_class=H	U	0	0	0	Phase 4 MBP	0	0	U	Y	N	N	N	2	2016-11-04	15	2	TBD	TBD
15B5	252	15b5#rankms=121_rankdc=38_reps=1_srate=1.0_class=H	U	0	0	0	Phase 4 MBP	0	0	U	Y	N	N	N	2	2016-11-04	15	2	TBD	TBD
15B8	253	15b8#rankms=133_rankdc=27_reps=1_srate=1.0_class=H	U	0	0	0	Phase 4 MBP	0	0	U	Y	N	N	N	2	2016-11-04	15	2	TBD	TBD
16AB1	254	16ab1#rankms=15_rankdc=48_reps=1_srate=1.0_class=AH	U	0	0	0	Phase 4 MBP	0	0	U	Y	N	N	N	2	2016-11-04	19	2	TBD	TBD
16AB8	255	16ab8~rankms=41_rankdc=33_reps=1_srate=0.8_class=AH	U	0	0	0	Phase 4 MBP	0	0	U	Y	N	N	N	2	2016-11-04	19	2	TBD	TBD
18BG17	256	18bg17#rankms=45_rankdc=77_reps=1_srate=0.8_class=ASH	U	0	0	0	Phase 4 MBP	0	0	U	Y	N	N	N	2	2016-11-04	22	2	TBD	TBD
18BG19	257	18bg19~rankms=76_rankdc=50_reps=1_srate=1.0_class=ASH	U	0	0	0	Phase 4 MBP	0	0	U	Y	N	N	N	2	2016-11-04	22	2	TBD	TBD
18BG2	258	18bg2~rankms=64_rankdc=46_reps=1_srate=1.0_class=ASH	U	0	0	0	Phase 4 MBP	0	0	U	Y	N	N	N	2	2016-11-04	22	2	TBD	TBD
18BG25	259	18bg25~rankms=115_rankdc=59_reps=2_srate=0.8_class=ASH	U	0	0	0	Phase 4 MBP	0	0	U	Y	N	N	N	2	2016-11-04	22	2	TBD	TBD
19GB1	260	19gb1#rankms=62_rankdc=105_reps=2_srate=0.3_class=ASH	U	0	0	0	Phase 4 MBP	0	0	U	Y	N	N	N	2	2016-11-04	21	2	TBD	TBD
19GB9	261	19gb9#rankms=29_rankdc=96_reps=2_srate=0.5_class=ASH	U	0	0	0	Phase 4 MBP	0	0	U	Y	N	N	N	2	2016-11-04	21	2	TBD	TBD
1BW6	262	1bw6~rankms=13_rankdc=39_reps=3_srate=1.0_class=H	U	0	0	0	Phase 4 MBP	0	0	U	Y	N	N	N	2	2016-11-04	14	2	TBD	TBD
20BS1	263	20bs1~rankms=10_rankdc=10_reps=1_srate=1.0_class=AH	U	0	0	0	Phase 4 MBP	0	0	U	Y	N	N	N	2	2016-11-04	20	2	TBD	TBD
20BS5	264	20bs5#rankms=26_rankdc=29_reps=1_srate=1.0_class=AH	U	0	0	0	Phase 4 MBP	0	0	U	Y	N	N	N	2	2016-11-04	20	2	TBD	TBD
20BS6	265	20bs6#rankms=37_rankdc=51_reps=1_srate=1.0_class=AH	U	0	0	0	Phase 4 MBP	0	0	U	Y	N	N	N	2	2016-11-04	20	2	TBD	TBD
20BS8	266	20bs8#rankms=37_rankdc=56_reps=1_srate=0.6_class=AH	U	0	0	0	Phase 4 MBP	0	0	U	Y	N	N	N	2	2016-11-04	20	2	TBD	TBD
22BG7	268	22bg7#rankms=30_rankdc=92_reps=2_srate=0.6_class=ASH	U	0	0	0	Phase 4 MBP	0	0	U	Y	N	N	N	2	2016-11-04	22	2	TBD	TBD
22BG8	269	22bg8#rankms=83_rankdc=80_reps=2_srate=0.6_class=ASH	U	0	0	0	Phase 4 MBP	0	0	U	Y	N	N	N	2	2016-11-04	22	2	TBD	TBD
23BA10	270	23ba10~rankms=117_rankdc=37_reps=2_srate=1.0_class=AH	U	0	0	0	Phase 4 MBP	0	0	U	Y	N	N	N	2	2016-11-04	20	2	TBD	TBD
23BA11	271	23ba11~rankms=109_rankdc=17_reps=2_srate=1.0_class=AH	U	0	0	0	Phase 4 MBP	0	0	U	Y	N	N	N	2	2016-11-04	20	2	TBD	TBD
23BA15	272	23ba15~rankms=60_rankdc=4_reps=1_srate=1.0_class=AH	U	0	0	0	Phase 4 MBP	0	0	U	Y	N	N	N	2	2016-11-04	20	2	TBD	TBD
23BA18	273	23ba18~rankms=121_rankdc=6_reps=1_srate=1.0_class=AH	U	0	0	0	Phase 4 MBP	0	0	U	Y	N	N	N	2	2016-11-04	20	2	TBD	TBD
23BA2	274	23ba2#rankms=64_rankdc=88_reps=1_srate=0.8_class=AH	U	0	0	0	Phase 4 MBP	0	0	U	Y	N	N	N	2	2016-11-04	20	2	TBD	TBD
23BA20	275	23ba20~0_0_0_0_class=AH	U	0	0	0	Phase 4 MBP	0	0	U	Y	N	N	N	2	2016-11-04	20	2	TBD	TBD
23BA21	276	23ba21~0_0_0_0_class=AH	U	0	0	0	Phase 4 MBP	0	0	U	Y	N	N	N	2	2016-11-04	20	2	TBD	TBD
23BA5	277	23ba5#rankms=60_rankdc=49_reps=1_srate=1.0_class=AH	U	0	0	0	Phase 4 MBP	0	0	U	Y	N	N	N	2	2016-11-04	20	2	TBD	TBD
2B21	278	2b21~rankms=42_rankdc=30_reps=3_srate=0.9_class=H	U	0	0	0	Phase 4 MBP	0	0	U	Y	N	N	N	2	2016-11-04	15	2	TBD	TBD
2B22	279	2b22#rankms=66_rankdc=42_reps=2_srate=0.9_class=H	U	0	0	0	Phase 4 MBP	0	0	U	Y	N	N	N	2	2016-11-04	15	2	TBD	TBD
2B24	280	2b24#rankms=71_rankdc=29_reps=2_srate=0.9_class=H	U	0	0	0	Phase 4 MBP	0	0	U	Y	N	N	N	2	2016-11-04	15	2	TBD	TBD
2B25	281	2b25~rankms=22_rankdc=24_reps=2_srate=0.7_class=H	U	0	0	0	Phase 4 MBP	0	0	U	Y	N	N	N	2	2016-11-04	15	2	TBD	TBD
2B29	282	2b29#rankms=47_rankdc=71_reps=3_srate=0.6_class=H	U	0	0	0	Phase 4 MBP	0	0	U	Y	N	N	N	2	2016-11-04	15	2	TBD	TBD
2B3	283	2b3~rankms=34_rankdc=19_reps=5_srate=0.9_class=H	U	0	0	0	Phase 4 MBP	0	0	U	Y	N	N	N	2	2016-11-04	15	2	TBD	TBD
2B4	284	2b4#rankms=50_rankdc=31_reps=3_srate=0.8_class=H	U	0	0	0	Phase 4 MBP	0	0	U	Y	N	N	N	2	2016-11-04	15	2	TBD	TBD
2B52	285	2b52~rankms=20_rankdc=15_reps=2_srate=1.0_class=H	U	0	0	0	Phase 4 MBP	0	0	U	Y	N	N	N	2	2016-11-04	15	2	TBD	TBD
2B55	286	2b55~rankms=36_rankdc=20_reps=2_srate=1.0_class=H	U	0	0	0	Phase 4 MBP	0	0	U	Y	N	N	N	2	2016-11-04	15	2	TBD	TBD
2B6	287	2b6~rankms=52_rankdc=13_reps=6_srate=0.9_class=H	U	0	0	0	Phase 4 MBP	0	0	U	Y	N	N	N	2	2016-11-04	15	2	TBD	TBD
2B62	288	2b62#rankms=12_rankdc=35_reps=2_srate=0.8_class=H	U	0	0	0	Phase 4 MBP	0	0	U	Y	N	N	N	2	2016-11-04	15	2	TBD	TBD
2B63	289	2b63#rankms=1_rankdc=92_reps=2_srate=0.5_class=H	U	0	0	0	Phase 4 MBP	0	0	U	Y	N	N	N	2	2016-11-04	15	2	TBD	TBD
2B66	290	2b66#rankms=113_rankdc=38_reps=1_srate=1.0_class=H	U	0	0	0	Phase 4 MBP	0	0	U	Y	N	N	N	2	2016-11-04	15	2	TBD	TBD
2B67	291	2b67#rankms=35_rankdc=74_reps=2_srate=0.6_class=H	U	0	0	0	Phase 4 MBP	0	0	U	Y	N	N	N	2	2016-11-04	15	2	TBD	TBD
2B68	292	2b68#rankms=67_rankdc=34_reps=2_srate=0.9_class=H	U	0	0	0	Phase 4 MBP	0	0	U	Y	N	N	N	2	2016-11-04	15	2	TBD	TBD
2B7	293	2b7#rankms=110_rankdc=25_reps=2_srate=1.0_class=H	U	0	0	0	Phase 4 MBP	0	0	U	Y	N	N	N	2	2016-11-04	15	2	TBD	TBD
2B71	294	2b71~rankms=63_rankdc=12_reps=2_srate=0.9_class=H	U	0	0	0	Phase 4 MBP	0	0	U	Y	N	N	N	2	2016-11-04	15	2	TBD	TBD
3BC1	295	3bc1~rankms=45_rankdc=18_reps=2_srate=1.0_class=H	U	0	0	0	Phase 4 MBP	0	0	U	Y	N	N	N	2	2016-11-04	1	2	TBD	TBD
3BC3	296	3bc3~rankms=74_rankdc=24_reps=2_srate=1.0_class=H	U	0	0	0	Phase 4 MBP	0	0	U	Y	N	N	N	2	2016-11-04	1	2	TBD	TBD
3BC4	297	3bc4#rankms=39_rankdc=43_reps=2_srate=0.9_class=H	U	0	0	0	Phase 4 MBP	0	0	U	Y	N	N	N	2	2016-11-04	1	2	TBD	TBD
3BC5	298	3bc5#rankms=90_rankdc=26_reps=2_srate=1.0_class=H	U	0	0	0	Phase 4 MBP	0	0	U	Y	N	N	N	2	2016-11-04	1	2	TBD	TBD
4AB4	299	4ab4~rankms=23_rankdc=14_reps=2_srate=1.0_class=AH	U	0	0	0	Phase 4 MBP	0	0	U	Y	N	N	N	2	2016-11-04	19	2	TBD	TBD
4AB9	300	4ab9#rankms=36_rankdc=54_reps=2_srate=0.9_class=AH	U	0	0	0	Phase 4 MBP	0	0	U	Y	N	N	N	2	2016-11-04	19	2	TBD	TBD
4GW11	301	4gw11#rankms=14_rankdc=114_reps=1_srate=0.2_class=H	U	0	0	0	Phase 4 MBP	0	0	U	Y	N	N	N	2	2016-11-04	7	2	TBD	TBD
5BR3	302	5br3~rankms=35_rankdc=40_reps=2_srate=1.0_class=H	U	0	0	0	Phase 4 MBP	0	0	U	Y	N	N	N	2	2016-11-04	1	2	TBD	TBD
6BA2	303	6ba2#rankms=101_rankdc=37_reps=1_srate=1.0_class=AH	U	0	0	0	Phase 4 MBP	0	0	U	Y	N	N	N	2	2016-11-04	20	2	TBD	TBD
7BT1	304	7bt1~rankms=44_rankdc=25_reps=2_srate=0.9_class=ASH	U	0	0	0	Phase 4 MBP	0	0	U	Y	N	N	N	2	2016-11-04	1	2	TBD	TBD
7BT7	305	7bt7#rankms=31_rankdc=45_reps=1_srate=0.6_class=ASH	U	0	0	0	Phase 4 MBP	0	0	U	Y	N	N	N	2	2016-11-04	1	2	TBD	TBD
83AA70	306	83aa70#rankms=42_rankdc=70_reps=1_srate=0.8_class=A	U	0	0	0	Phase 4 MBP	0	0	U	Y	N	N	N	2	2016-11-04	3	2	TBD	TBD
89AA1	307	89aa1#rankms=83_rankdc=84_reps=1_srate=0.4_class=A	U	0	0	0	Phase 4 MBP	0	0	U	Y	N	N	N	2	2016-11-04	3	2	TBD	TBD
8BG2	308	8bg2~rankms=155_rankdc=60_reps=2_srate=0.9_class=ASH	U	0	0	0	Phase 4 MBP	0	0	U	Y	N	N	N	2	2016-11-04	22	2	TBD	TBD
8BG21	309	8bg21#rankms=133_rankdc=80_reps=1_srate=0.8_class=ASH	U	0	0	0	Phase 4 MBP	0	0	U	Y	N	N	N	2	2016-11-04	22	2	TBD	TBD
8BG3	310	8bg3~rankms=42_rankdc=16_reps=2_srate=0.8_class=ASH	U	0	0	0	Phase 4 MBP	0	0	U	Y	N	N	N	2	2016-11-04	22	2	TBD	TBD
8BG8	311	8bg8#rankms=60_rankdc=76_reps=2_srate=0.7_class=ASH	U	0	0	0	Phase 4 MBP	0	0	U	Y	N	N	N	2	2016-11-04	22	2	TBD	TBD
8BG9	312	8bg9~rankms=79_rankdc=50_reps=2_srate=0.7_class=ASH	U	0	0	0	Phase 4 MBP	0	0	U	Y	N	N	N	2	2016-11-04	22	2	TBD	TBD
TC72	313	tc72#rankms=51_rankdc=90_reps=2_srate=0.7_class=A	U	0	0	0	Phase 4 MBP	0	0	U	Y	N	N	N	2	2016-11-04	3	2	TBD	TBD
\.


--
-- Name: plant_id_seq; Type: SEQUENCE SET; Schema: public; Owner: dad
--

SELECT pg_catalog.setval('plant_id_seq', 1, false);


--
-- Data for Name: site; Type: TABLE DATA; Schema: public; Owner: dad
--

COPY site (site_key, id, location_code, name_long, notes, address, loc_lat, loc_long, elevation_ft, aspen_site_index, usda_soil_texture, drainage_class_usda, mean_annual_precip_in, mean_annual_temp_f, frost_free_period_days, depth_to_water_table_in, usda_map_url, web_url, web_photos, contact) FROM stdin;
TBD	1	TBD	0	To Be Determined	0	0	0	0	0	0	U	0	0	0	0	0	0	0	0
NA	2	NA	0	Does Not Apply	0	0	0	0	0	0	U	0	0	0	0	0	0	0	0
Bell-Nursery	3	BELLN	0	Pat McGovern's nursery site	4218 Bell Ave NE Grand Rapids, MI 49525	0	0	900	0	sand	WD	34	48	170	1000	http://pmcgovern.us/files/myf/USDA-Soil-Report-4218-BellAve.pdf	0	0	0
Costa-Nursery	4	COSTN	0	Ryan McGovern Nursery site	Grand Rapids	0	0	900	0	sand	WD	34	48	170	1000	0	0	0	0
Dykema-Nursery	5	DYKEN	0	Dykema nursery site	Grand Rapids	0	0	900	0	sand	ED	34	48	170	1000	0	0	0	0
Bell-Indoor	6	BELLI	0	Pat McGovern's Indoor Garden site	4218 Bell Ave NE Grand Rapids, MI 49525	0	0	900	0	0	U	-1	-1	-1	-1	0	0	0	0
Rockford-NE	7	RNE	0	Pat McGovern's Rockford NE site.   Started P. alba 1992.	0	0	0	900	0	0	WD	0	0	0	-1	0	0	0	0
MB-Escanabaa	8	MF	0	MB Escanaba site	0	0	0	0	0	0	U	-1	-1	-1	-1	0	0	0	0
PostNE-West	9	PNEW	0	Post NE  Planting starts on West edge	0	0	0	0	0	0	WD	-1	-1	-1	-1	0	0	0	0
\.


--
-- Name: site_id_seq; Type: SEQUENCE SET; Schema: public; Owner: dad
--

SELECT pg_catalog.setval('site_id_seq', 1, false);


--
-- Data for Name: taxa; Type: TABLE DATA; Schema: public; Owner: dad
--

COPY taxa (taxa_key, id, notes, species, species_hybrid, common_name, binomial_name, kingdom, family, genus, web_photos, web_url) FROM stdin;
TBD	1	To Be Determined	0	NA	0	0	0	0	0	0	0
NA	2	Does Not Apply - See Taxa table for separate hybrid taxa definitions.	NA	0	0	0	0	0	0	0	0
A	3	Native to Europe, naturalized in some areas of USA.	P. alba Linnaeus	0	White Poplar	0	Plantae	Salicaceae	Populus	0	http://en.wikipedia.org/wiki/Populus_alba
GT	4	Occurs naturally, susceptible to BLD	0	P. grandidentata x P. tremuloides	A.k.a P. xbarnesii	P. xsmithii Boivin	Plantae	Salicaceae	Populus	0	0
TG	5	Occurs naturally, susceptible to BLD	0	P. tremuloides x P. grandidentata	A.k.a P. xbarnesii	P. xsmithii Boivin	Plantae	Salicaceae	Populus	0	0
AG	6	Occurs where P. alba females are present.	0	P. alba x P. grandidentata	AG or R	P. xrouleauiana Bovin	Plantae	Salicaceae	Populus	0	0
GA	7	Not common in the wild since most P. albas are females and P. grandidentata seed has more exacting requirements.	0	P. grandidentata x P. alba	GA or R	P. xrouleauiana Bovin	Plantae	Salicaceae	Populus	0	0
AT	8	Not as common in the wild as AG	0	P. alba x P. tremuloides	0	P. xheimburgeri Boivin	Plantae	Salicaceae	Populus	0	0
AE	9	A valuable cross - used by itself or with CAGs	0	P. alba x P. tremula	gray poplar	P. xcanescens Smith	Plantae	Salicaceae	Populus	0	0
G	10	Native to NE USA.	P. grandidentata Michaux	0	Big Tooth aspen	0	Plantae	Salicaceae	Populus	0	http://en.wikipedia.org/wiki/Populus_grandidentata
T	11	Native to Northern North America	P. tremuloides Michaux	0	Small Tooth aspen	0	Plantae	Salicaceae	Populus	0	http://en.wikipedia.org/wiki/Populus_tremuloides
E	12	Native to Europe	P. tremula Linnaeus	0	European Aspen	0	Plantae	Salicaceae	Populus	0	http://en.wikipedia.org/wiki/Populus_tremula
CAG	13	A double hybrid cross pioneered by the Canadians and known for diversity with some good rooting individuals despite poor rooting parents.	0	(P. alba x P. grandidentata) x P. canescens	CAG or B	0	Plantae	Salicaceae	Populus	0	0
CAGW	14	Describes an open pollinated (Wind) CAG cross.  They may have potential for interesting recombinations.	0	(P. canescens x (P. alba x P. grandidentata)) x OP	CAGW or BW	0	Plantae	Salicaceae	Populus	0	0
B	15	Alternate name for CAG crosses for brevity.  A double hybrid cross pioneered by the Canadians and known for diversity with some good rooting individuals despite poor rooting parents.	0	(P. alba x P. grandidentata) x P. canescens	CAG or B	0	Plantae	Salicaceae	Populus	0	0
R	16	Alternate name for AG/GA crosses (P. xrouleauiana) for brevity.	0	P. alba x P. grandidentata (and reciprocal)	AG or GA or R	P. xrouleauiana Bovin	Plantae	Salicaceae	Populus	0	0
S	17	Alternate name for the TG/GT smithii (P. xsmithii Boivin) crosses for brevity 	0	P. tremuloides x P. grandidentata (and reciprocal)	TG or GT	P. xsmithii Boivin	Plantae	Salicaceae	Populus	0	0
W	18	W stands for Wind pollinated. Therefore the exact male parent is unknown.	Wind Pollinated	0	Open Pollinated	NA	NA	NA	NA	0	0
AB	19	Describes a P alba x CAG back cross. They may have potential for interesting recombinations.	0	P. alba x (P. canescens x (P. alba x P. Grandidentata))	AB	NA	NA	NA	NA	0	0
BA	20	Describes a CAG x P alba back cross. They may have potential for interesting recombinations.	0	(P. canescens x (P. alba x P. Grandidentata)) x P. Alba	BA	NA	NA	NA	NA	0	0
GB	21	Describes a G x CAG back cross. They may have potential for interesting recombinations.	0	P. grandidentata x (P. canescens x (P. alba x P. Grandidentata))	GB	NA	NA	NA	NA	0	0
BG	22	Describes a B x CAG back cross. They may have potential for interesting recombinations.	0	(P. canescens x (P. alba x P. Grandidentata)) x P. Grandidentata	BG	NA	NA	NA	NA	0	0
\.


--
-- Name: taxa_id_seq; Type: SEQUENCE SET; Schema: public; Owner: dad
--

SELECT pg_catalog.setval('taxa_id_seq', 1, false);


--
-- Data for Name: test_detail; Type: TABLE DATA; Schema: public; Owner: dad
--

COPY test_detail (test_detail_key, id, notes, notes2, notes3, start_quantity, end_quantity, this_start_date, score_date, stock_type, stock_length_cm, stock_dia_mm, is_plus_ynu, collar_median_dia_mm, collar_1_1_median_dia, stool_collar_median_dia_mm, field_cuttings_ft, height_cm, leaf_score, id_plant, id_family, id_test_spec, row_nbr, column_nbr, replication_nbr, plot_nbr, block_nbr) FROM stdin;
TBD	-1	Dummy record used for id_prev_test_detail null values	1	0	-1	-1	1111-11-11	1111-11-11	U     	-1	-1	0	-1	-1	-1	-1	-1	-1	1	2	2	-1	-1	-1	-1	-1
TBD	1	To Be Determined	1	0	-1	-1	1111-11-11	1111-11-11	U     	-1	-1	0	-1	-1	-1	-1	-1	-1	1	2	2	-1	-1	-1	-1	-1
NA	2	Does Not Apply	2	0	-1	-1	1111-11-11	1111-11-11	U     	-1	-1	0	-1	-1	-1	-1	-1	-1	2	2	2	-1	-1	-1	-1	-1
pip-190	3	tag marked 83aa190 but not in DB	0	0	1	1	2010-03-25	2010-11-01	1-0   	10	-1	U	-1	-1	-1	-1	238.8	-1	2	140	7	-1	2	-1	-1	-1
83aa107	4	Has little tomentose on bark	0	0	1	1	2010-03-25	2010-11-01	1-0   	10	-1	U	-1	-1	-1	-1	383.5	-1	137	2	7	-1	2	-1	-1	-1
83aa106	5	Has Knotty Poplar trait real strong, need to propagate more	0	0	1	1	2010-03-25	2010-11-01	1-0   	10	-1	Y	-1	-1	-1	-1	302.3	-1	136	2	7	-1	2	-1	-1	-1
83aa105	6	0	0	0	1	1	2010-03-25	2010-11-01	1-0   	10	-1	U	-1	-1	-1	-1	170.2	-1	135	2	7	-1	2	-1	-1	-1
83aa104	7	Had #1 dia in 2009, 3 boles totaled 311 hgt.	0	0	1	1	2010-03-25	2010-11-01	1-0   	10	-1	Y	-1	-1	-1	-1	388.6	-1	116	2	7	-1	2	-1	-1	-1
83aa103	8	0	0	0	1	1	2010-03-25	2010-11-01	1-0   	10	-1	U	-1	-1	-1	-1	198.1	-1	115	2	7	-1	2	-1	-1	-1
83aa101	9	0	0	0	1	1	2010-03-25	2010-11-01	1-0   	10	-1	U	-1	-1	-1	-1	251.5	-1	113	2	7	-1	2	-1	-1	-1
83aa203	10	0	0	0	6	6	2010-03-25	2010-11-01	1-1   	10	-1	U	-1	-1	-1	-1	223.5	-1	127	2	7	-1	2	-1	-1	-1
83aa203	11	Whip Planting - 63 Whip, grew 76 planted 2' deep	0	0	1	1	2010-03-25	2010-11-01	DC    	160	-1	U	-1	-1	-1	-1	193	-1	127	2	7	-1	2	-1	-1	-1
76aa217	12	Whip Planting - 72 Whip, grew 48 planted 2' deep	0	0	1	1	2010-03-25	2010-11-01	DC    	183	-1	U	-1	-1	-1	-1	121.9	-1	124	2	7	-1	2	-1	-1	-1
83aa214	13	Whip Planting - 100 Whip, grew 37 planted 2' deep	0	0	1	1	2010-03-25	2010-11-01	DC    	254	-1	U	-1	-1	-1	-1	94	-1	2	140	7	-1	2	-1	-1	-1
83aa206	14	Whip Planting - 87 Whip, grew 40 planted 2' deep	0	0	1	1	2010-03-25	2010-11-01	DC    	221	-1	U	-1	-1	-1	-1	101.6	-1	129	2	7	-1	2	-1	-1	-1
83aa209	15	Whip Planting - 78 Whip, grew 33 planted 2' deep	0	0	1	1	2010-03-25	2010-11-01	DC    	199	-1	Y	-1	-1	-1	-1	83.8	-1	131	2	7	-1	2	-1	-1	-1
83aa211	16	Whip Planting - 89 Whip, grew 43 planted 2' deep	0	0	1	1	2010-03-25	2010-11-01	DC    	226	-1	U	-1	-1	-1	-1	109.2	-1	2	140	7	-1	2	-1	-1	-1
prince	17	suckers from source	0	0	4	4	2010-04-10	2010-11-01	1-0   	10	-1	U	-1	-1	-1	-1	137.2	-1	7	2	7	-1	3	-1	-1	-1
jamie	18	cuttings from RNE upper branches.  Used #16 IBA.	0	0	21	0	2010-04-10	2010-11-01	DC    	15	-1	U	-1	-1	-1	-1	0	-1	23	2	7	-1	3	-1	-1	-1
ebl	19	suckers from source, very bushy	0	0	2	2	2010-04-10	2010-11-01	1-0   	30	-1	U	-1	-1	-1	-1	66	-1	8	2	7	-1	3	-1	-1	-1
nfa	20	suckers from source, very bushy	0	0	2	2	2010-04-10	2010-11-01	1-0   	30	-1	U	-1	-1	-1	-1	137.2	-1	19	2	7	-1	3	-1	-1	-1
j2	21	suckers from source	0	0	1	1	2010-04-10	2010-11-01	1-0   	30	-1	U	-1	-1	-1	-1	129.5	-1	158	2	7	-1	3	-1	-1	-1
83aa206	22	0	0	0	1	1	2010-04-10	2010-11-01	1-0   	30	-1	Y	-1	-1	-1	-1	195.6	-1	129	2	7	-1	3	-1	-1	-1
83aa204	23	Best performing in this row. This clone did well as cuttings, very competitive.	0	0	1	1	2010-04-10	2010-11-01	1-0   	30	-1	U	-1	-1	-1	-1	228.6	-1	128	2	7	-1	3	-1	-1	-1
83aa202	24	NOT pip-202	0	0	1	1	2010-04-10	2010-11-01	1-0   	30	-1	U	-1	-1	-1	-1	139.7	-1	126	2	7	-1	3	-1	-1	-1
41aa111	25	A P3 Parent clone, need more...	0	0	10	1	2010-04-10	2010-11-01	DC    	10	-1	U	-1	-1	-1	-1	25.4	-1	138	2	7	-1	4	-1	-1	-1
nfa	26	0	0	0	54	8	2010-04-10	2010-11-01	DC    	10	-1	U	-1	-1	-1	-1	81.3	-1	19	2	7	-1	4	-1	-1	-1
ebl	27	0	0	0	26	8	2010-04-10	2010-11-01	DC    	15	-1	U	-1	-1	-1	-1	81.3	-1	8	2	7	-1	4	-1	-1	-1
a266	28	Back Edge Death Area (BEDA) - Do not score with 2010 PIP results	0	0	14	0	2010-04-10	2010-11-01	DC    	10	-1	U	-1	-1	-1	-1	0	-1	9	2	7	-1	4	-1	-1	-1
83aa204	29	Awesome! By far the best clone for cutting performance in 2010.  4 trees had height ranges from 103 to 88 and the first 2 cuttings (from South) had 20 mm diameters at the base.  This is tested as PIP-204 in 2009.	0	0	7	6	2010-04-10	2010-11-01	DC    	10	-1	Y	-1	-1	-1	-1	228.6	-1	128	2	7	-1	5	-1	-1	-1
pip58	30	nice	0	0	7	7	2010-04-10	2010-11-01	DC    	10	-1	Y	-1	-1	-1	-1	139.7	-1	2	140	7	-1	5	-1	-1	-1
83aa107	31	PIP-183, This was noted in 2009 for having aspen like bark, being greener and having much less tomentose.  It still applies in 2010.	0	0	6	4	2010-04-10	2010-11-01	DC    	10	-1	U	-1	-1	-1	-1	91.4	-1	137	2	7	-1	5	-1	-1	-1
pip202	32	Not 83AA202 !!	0	0	3	1	2010-04-10	2010-11-01	DC    	10	-1	U	-1	-1	-1	-1	101.6	-1	2	140	7	-1	5	-1	-1	-1
pip48	33	0	0	0	6	2	2010-04-10	2010-11-01	DC    	10	-1	U	-1	-1	-1	-1	45.7	-1	2	140	7	-1	5	-1	-1	-1
40aa6mf	34	Used #16 IBA	0	0	10	0	2010-04-10	2010-11-01	DC    	15	-1	U	-1	-1	-1	-1	0	-1	142	2	7	-1	5	-1	-1	-1
33aa11	35	0	0	0	6	0	2010-04-10	2010-11-01	DC    	15	-1	U	-1	-1	-1	-1	0	-1	139	2	7	-1	5	-1	-1	-1
aa4102	36	Back Edge Death Area (BEDA) - Do not score with 2010 PIP results	0	0	15	0	2010-04-10	2010-11-01	DC    	15	-1	U	-1	-1	-1	-1	0	-1	35	2	7	-1	5	-1	-1	-1
pip206	37	NOT 83AA206 !!	0	0	8	2	2010-04-10	2010-11-01	DC    	10	-1	U	-1	-1	-1	-1	121.9	-1	2	140	7	-1	6	-1	-1	-1
pip203	38	NOT 83AA203 !!	0	0	10	2	2010-04-10	2010-11-01	DC    	10	-1	U	-1	-1	-1	-1	78.7	-1	2	140	7	-1	6	-1	-1	-1
83aa206	39	NOT PIP-206	0	0	21	14	2010-04-10	2010-11-01	DC    	10	-1	U	-1	-1	-1	-1	111.8	-1	129	2	7	-1	6	-1	-1	-1
83aa203	40	PIP-2010 control clone - 95BC, 43BC, 87C, 97A, 74A, 21A	0	0	32	20	2010-04-10	2010-11-01	DC    	10	-1	U	-1	-1	-1	-1	76.2	-1	127	2	7	-1	6	-1	-1	-1
83aa209	41	Noted for its vigor/poor rooting. had 18% rooting in 2009	0	0	16	9	2010-04-10	2010-11-01	DC    	10	-1	Y	-1	-1	-1	-1	139.7	-1	131	2	7	-1	6	-1	-1	-1
83aa217	42	0	0	0	13	6	2010-04-10	2010-11-01	DC    	10	-1	U	-1	-1	-1	-1	73.7	-1	2	140	7	-1	6	-1	-1	-1
83aa214	43	0	0	0	20	10	2010-04-10	2010-11-01	DC    	10	-1	U	-1	-1	-1	-1	71.1	-1	2	140	7	-1	6	-1	-1	-1
pip63	44	Back Edge Death Area (BEDA) - Do not score with 2010 PIP results	0	0	5	2	2010-04-10	2010-11-01	DC    	10	-1	U	-1	-1	-1	-1	48.3	-1	2	140	7	-1	6	-1	-1	-1
pip189	45	Back Edge Death Area (BEDA) - Do not score with 2010 PIP results.  This had the #1 PIP score in 2009.	0	0	4	1	2010-04-10	2010-11-01	DC    	10	-1	U	-1	-1	-1	-1	58.4	-1	2	140	7	-1	6	-1	-1	-1
pip190	46	Back Edge Death Area (BEDA) - Do not score with 2010 PIP results	0	0	4	0	2010-04-10	2010-11-01	DC    	10	-1	U	-1	-1	-1	-1	0	-1	2	140	7	-1	6	-1	-1	-1
pip181	47	0	0	0	16	11	2010-04-10	2010-11-01	DC    	10	-1	U	-1	-1	-1	-1	96.5	-1	2	140	7	-1	7	-1	-1	-1
pip187	48	Not found in PIP spreadsheet, could it be 188?	0	0	10	9	2010-04-10	2010-11-01	DC    	10	-1	Y	-1	-1	-1	-1	149.9	-1	2	140	7	-1	7	-1	-1	-1
pip197	49	0	0	0	10	5	2010-04-10	2010-11-01	DC    	10	-1	U	-1	-1	-1	-1	78.7	-1	2	140	7	-1	7	-1	-1	-1
pip193	50	0	0	0	9	3	2010-04-10	2010-11-01	DC    	10	-1	U	-1	-1	-1	-1	61	-1	2	140	7	-1	7	-1	-1	-1
pip206	51	0	0	0	7	3	2010-04-10	2010-11-01	DC    	10	-1	U	-1	-1	-1	-1	121.9	-1	2	140	7	-1	7	-1	-1	-1
pip196	52	0	0	0	11	4	2010-04-10	2010-11-01	DC    	10	-1	U	-1	-1	-1	-1	101.6	-1	2	140	7	-1	7	-1	-1	-1
pip182	53	0	0	0	13	11	2010-04-10	2010-11-01	DC    	10	-1	Y	-1	-1	-1	-1	119.4	-1	2	140	7	-1	7	-1	-1	-1
pip184	54	0	0	0	9	4	2010-04-10	2010-11-01	DC    	10	-1	U	-1	-1	-1	-1	83.8	-1	2	140	7	-1	7	-1	-1	-1
pip194	55	0	0	0	14	8	2010-04-10	2010-11-01	DC    	10	-1	U	-1	-1	-1	-1	96.5	-1	2	140	7	-1	7	-1	-1	-1
pip200	56	0	0	0	10	6	2010-04-10	2010-11-01	DC    	10	-1	U	-1	-1	-1	-1	73.7	-1	2	140	7	-1	7	-1	-1	-1
pip199	57	Yellow tagged	0	0	10	8	2010-04-10	2010-11-01	DC    	10	-1	Y	-1	-1	-1	-1	96.5	-1	2	140	7	-1	7	-1	-1	-1
pip195	58	0	0	0	12	6	2010-04-10	2010-11-01	DC    	10	-1	U	-1	-1	-1	-1	94	-1	2	140	7	-1	7	-1	-1	-1
pip185	59	0	0	0	11	5	2010-04-10	2010-11-01	DC    	10	-1	U	-1	-1	-1	-1	76.2	-1	2	140	7	-1	7	-1	-1	-1
pip186	60	Back Edge Death Area (BEDA) - Do not score with 2010 PIP results	0	0	12	2	2010-04-10	2010-11-01	DC    	10	-1	U	-1	-1	-1	-1	50.8	-1	2	140	7	-1	7	-1	-1	-1
pip198	61	Back Edge Death Area (BEDA) - Do not score with 2010 PIP results	0	0	11	0	2010-04-10	2010-11-01	DC    	10	-1	U	-1	-1	-1	-1	0	-1	2	140	7	-1	7	-1	-1	-1
pip180	62	0	0	0	11	9	2010-04-10	2010-11-01	DC    	10	-1	Y	-1	-1	-1	-1	137.2	-1	2	140	7	-1	8	-1	-1	-1
pip164	63	0	0	0	15	12	2010-04-10	2010-11-01	DC    	10	-1	Y	-1	-1	-1	-1	137.2	-1	2	140	7	-1	8	-1	-1	-1
pip171	64	0	0	0	16	12	2010-04-10	2010-11-01	DC    	10	-1	Y	-1	-1	-1	-1	114.3	-1	2	140	7	-1	8	-1	-1	-1
pip170	65	0	0	0	12	8	2010-04-10	2010-11-01	DC    	10	-1	U	-1	-1	-1	-1	68.6	-1	2	140	7	-1	8	-1	-1	-1
pip175	66	0	0	0	14	7	2010-04-10	2010-11-01	DC    	10	-1	U	-1	-1	-1	-1	83.8	-1	2	140	7	-1	8	-1	-1	-1
pip154	67	0	0	0	16	9	2010-04-10	2010-11-01	DC    	10	-1	U	-1	-1	-1	-1	71.1	-1	2	140	7	-1	8	-1	-1	-1
pip176	68	0	0	0	10	3	2010-04-10	2010-11-01	DC    	10	-1	U	-1	-1	-1	-1	58.4	-1	2	140	7	-1	8	-1	-1	-1
pip173	69	0	0	0	16	9	2010-04-10	2010-11-01	DC    	10	-1	U	-1	-1	-1	-1	81.3	-1	2	140	7	-1	8	-1	-1	-1
pip172	70	0	0	0	10	5	2010-04-10	2010-11-01	DC    	10	-1	U	-1	-1	-1	-1	76.2	-1	2	140	7	-1	8	-1	-1	-1
pip156	71	0	0	0	13	5	2010-04-10	2010-11-01	DC    	10	-1	U	-1	-1	-1	-1	50.8	-1	2	140	7	-1	8	-1	-1	-1
pip191	72	Back Edge Death Area (BEDA) - Do not score with 2010 PIP results	0	0	8	1	2010-04-10	2010-11-01	DC    	10	-1	U	-1	-1	-1	-1	48.3	-1	2	140	7	-1	8	-1	-1	-1
pip201	73	0	0	0	7	3	2010-04-10	2010-11-01	DC    	10	-1	U	-1	-1	-1	-1	58.4	-1	2	140	7	-1	8	-1	-1	-1
pip188	74	0	0	0	8	0	2010-04-10	2010-11-01	DC    	10	-1	U	-1	-1	-1	-1	0	-1	2	140	7	-1	8	-1	-1	-1
pip159	75	Check this for selection??	0	0	11	10	2010-04-10	2010-11-01	DC    	10	-1	Y	-1	-1	-1	-1	76.2	-1	2	140	7	-1	9	-1	-1	-1
pip160	76	0	0	0	18	16	2010-04-10	2010-11-01	DC    	10	-1	Y	-1	-1	-1	-1	101.6	-1	2	140	7	-1	9	-1	-1	-1
pip161	77	0	0	0	14	6	2010-04-10	2010-11-01	DC    	10	-1	U	-1	-1	-1	-1	58.4	-1	2	140	7	-1	9	-1	-1	-1
pip168	78	0	0	0	12	11	2010-04-10	2010-11-01	DC    	10	-1	U	-1	-1	-1	-1	71.1	-1	2	140	7	-1	9	-1	-1	-1
pip177	79	0	0	0	13	10	2010-04-10	2010-11-01	DC    	10	-1	U	-1	-1	-1	-1	63.5	-1	2	140	7	-1	9	-1	-1	-1
pip162	80	0	0	0	16	14	2010-04-10	2010-11-01	DC    	10	-1	U	-1	-1	-1	-1	86.4	-1	2	140	7	-1	9	-1	-1	-1
pip167	81	0	0	0	11	5	2010-04-10	2010-11-01	DC    	10	-1	U	-1	-1	-1	-1	81.3	-1	2	140	7	-1	9	-1	-1	-1
pip174	82	0	0	0	13	10	2010-04-10	2010-11-01	DC    	10	-1	U	-1	-1	-1	-1	91.4	-1	2	140	7	-1	9	-1	-1	-1
pip178	83	0	0	0	12	1	2010-04-10	2010-11-01	DC    	10	-1	U	-1	-1	-1	-1	78.7	-1	2	140	7	-1	9	-1	-1	-1
pip166	84	83xA166 - Strong early performer that was cut back to make more cuttings indoors (ASP tests)	0	0	11	9	2010-04-10	2010-11-01	DC    	10	-1	Y	-1	-1	-1	-1	71.1	-1	2	140	7	-1	9	-1	-1	-1
pip179	85	0	0	0	13	1	2010-04-10	2010-11-01	DC    	10	-1	U	-1	-1	-1	-1	91.4	-1	2	140	7	-1	9	-1	-1	-1
pip87	86	0	0	0	12	7	2010-04-10	2010-11-01	DC    	10	-1	U	-1	-1	-1	-1	66	-1	2	140	7	-1	10	-1	-1	-1
pip69	87	0	0	0	11	7	2010-04-10	2010-11-01	DC    	10	-1	U	-1	-1	-1	-1	94	-1	2	140	7	-1	10	-1	-1	-1
pip74	88	0	0	0	17	14	2010-04-10	2010-11-01	DC    	10	-1	U	-1	-1	-1	-1	101.6	-1	2	140	7	-1	10	-1	-1	-1
pip157	89	0	0	0	10	9	2010-04-10	2010-11-01	DC    	10	-1	Y	-1	-1	-1	-1	83.8	-1	2	140	7	-1	10	-1	-1	-1
pip153	90	0	0	0	11	7	2010-04-10	2010-11-01	DC    	10	-1	U	-1	-1	-1	-1	58.4	-1	2	140	7	-1	10	-1	-1	-1
pip155	91	0	0	0	11	8	2010-04-10	2010-11-01	DC    	10	-1	U	-1	-1	-1	-1	78.7	-1	2	140	7	-1	10	-1	-1	-1
pip151	92	0	0	0	8	6	2010-04-10	2010-11-01	DC    	10	-1	U	-1	-1	-1	-1	94	-1	2	140	7	-1	10	-1	-1	-1
pip165	93	0	0	0	14	7	2010-04-10	2010-11-01	DC    	10	-1	U	-1	-1	-1	-1	63.5	-1	2	140	7	-1	10	-1	-1	-1
pip163	94	0	0	0	16	9	2010-04-10	2010-11-01	DC    	10	-1	U	-1	-1	-1	-1	101.6	-1	2	140	7	-1	10	-1	-1	-1
pip152	95	0	0	0	14	5	2010-04-10	2010-11-01	DC    	10	-1	U	-1	-1	-1	-1	91.4	-1	2	140	7	-1	10	-1	-1	-1
pip158	96	0	0	0	15	5	2010-04-10	2010-11-01	DC    	10	-1	U	-1	-1	-1	-1	83.8	-1	2	140	7	-1	10	-1	-1	-1
pip169	97	0	0	0	15	4	2010-04-10	2010-11-01	DC    	10	-1	U	-1	-1	-1	-1	73.7	-1	2	140	7	-1	10	-1	-1	-1
83xaa107	98	Stock Started as ASP material. Tallest is 113	0	0	16	16	2010-04-10	2010-11-01	ASP   	10	-1	Y	-1	-1	-1	-1	139.7	-1	137	2	7	-1	11	-1	-1	-1
zoss	99	This is likely an AG or canescens clone	0	0	3	3	2010-04-10	2010-11-01	ASP   	10	-1	Y	-1	-1	-1	-1	111.8	-1	157	2	7	-1	11	-1	-1	-1
83aa2mf	100	0	0	0	2	2	2010-04-10	2010-11-01	ASP   	10	-1	U	-1	-1	-1	-1	0	-1	144	2	7	-1	11	-1	-1	-1
83aa1mf	101	0	0	0	5	5	2010-04-10	2010-11-01	ASP   	10	-1	U	-1	-1	-1	-1	121.9	-1	143	2	7	-1	11	-1	-1	-1
40aa6mf	102	0	0	0	2	2	2010-04-10	2010-11-01	ASP   	10	-1	U	-1	-1	-1	-1	154.9	-1	142	2	7	-1	11	-1	-1	-1
83aa1mf	103	0	0	0	2	1	2010-04-10	2010-11-01	ASP   	10	-1	U	-1	-1	-1	-1	198.1	-1	143	2	7	-1	11	-1	-1	-1
100aa01	104	Planted in Summer	0	0	14	14	2010-04-10	2010-11-01	ASP   	10	-1	Y	-1	-1	-1	-1	101.6	-1	153	2	7	-1	12	-1	-1	-1
100xaa10	105	tallest=89 quite branchy	0	0	14	63	2010-04-10	2010-11-01	SEL   	10	-1	U	-1	-1	-1	-1	101.6	-1	2	158	7	-1	12	-1	-1	-1
100aa04	106	0	0	0	15	11	2010-04-10	2010-11-01	SEL   	10	-1	Y	-1	-1	-1	-1	91.4	-1	156	2	7	-1	13	-1	-1	-1
100aa03	107	0	0	0	12	12	2010-04-10	2010-11-01	SEL   	10	-1	Y	-1	-1	-1	-1	101.6	-1	155	2	7	-1	13	-1	-1	-1
100aa02	108	0	0	0	9	9	2010-04-10	2010-11-01	SEL   	10	-1	Y	-1	-1	-1	-1	78.7	-1	154	2	7	-1	13	-1	-1	-1
100xaa10	109	tallest=49, SASP rejects	0	0	100	6	2010-06-19	2010-11-01	SEL   	10	-1	U	-1	-1	-1	-1	76.2	-1	2	158	8	-1	7	-1	-1	-1
87xaa10	110	tallest=53	0	0	60	48	2010-06-19	2010-11-01	SEL   	10	-1	U	-1	-1	-1	-1	96.5	-1	2	164	8	-1	7	-1	-1	-1
101xaa10	111	tallest=48	0	0	60	33	2010-06-19	2010-11-01	SEL   	10	-1	U	-1	-1	-1	-1	96.5	-1	2	156	8	-1	7	-1	-1	-1
102xaa10	112	tallest=30	0	0	30	16	2010-06-19	2010-11-01	SEL   	10	-1	U	-1	-1	-1	-1	99.1	-1	2	168	8	-1	7	-1	-1	-1
91xaa10	113	tallest=58	0	0	75	54	2010-06-19	2010-11-01	SEL   	10	-1	U	-1	-1	-1	-1	88.9	-1	2	154	8	-1	7	-1	-1	-1
91xaa10	114	tallest=54	0	0	75	32	2010-06-19	2010-11-01	SEL   	10	-1	U	-1	-1	-1	-1	83.8	-1	2	154	8	-1	8	-1	-1	-1
98xaa10	115	tallest=53	0	0	150	75	2010-06-19	2010-11-01	SEL   	10	-1	U	-1	-1	-1	-1	83.8	-1	2	155	8	-1	8	-1	-1	-1
100xaa10	116	tallest=58	0	0	100	75	2010-06-19	2010-11-01	SEL   	10	-1	U	-1	-1	-1	-1	101.6	-1	2	158	8	-1	8	-1	-1	-1
104xaa10	117	tallest=61	0	0	100	105	2010-06-19	2010-11-01	SEL   	10	-1	U	-1	-1	-1	-1	104.1	-1	2	169	8	-1	8	-1	-1	-1
104xaa10	118	tallest=54	0	0	100	18	2010-06-19	2010-11-01	SEL   	10	-1	U	-1	-1	-1	-1	104.1	-1	2	169	8	-1	9	-1	-1	-1
103xaa10	119	tallest=60	0	0	150	120	2010-06-19	2010-11-01	SEL   	10	-1	U	-1	-1	-1	-1	91.4	-1	2	170	8	-1	9	-1	-1	-1
97xaa10	120	tallest=66	0	0	160	120	2010-06-19	2010-11-01	SEL   	10	-1	U	-1	-1	-1	-1	101.6	-1	2	159	8	-1	9	-1	-1	-1
86xaa10	121	tallest=60	0	0	160	150	2010-06-19	2010-11-01	SEL   	10	-1	U	-1	-1	-1	-1	101.6	-1	2	167	8	-1	10	-1	-1	-1
93xaa10	122	tallest=71	0	0	250	120	2010-06-19	2010-11-01	SEL   	10	-1	Y	-1	-1	-1	-1	101.6	-1	2	166	8	-1	10	-1	-1	-1
93xaa10	123	tallest=56	0	0	250	195	2010-06-19	2010-11-01	SEL   	10	-1	U	-1	-1	-1	-1	109.2	-1	2	166	8	-1	11	-1	-1	-1
94xaa10	124	tallest=59	0	0	100	75	2010-06-19	2010-11-01	SEL   	10	-1	U	-1	-1	-1	-1	99.1	-1	2	161	8	-1	11	-1	-1	-1
94xaa10	125	tallest=60	0	0	100	90	2010-06-19	2010-11-01	SEL   	10	-1	U	-1	-1	-1	-1	96.5	-1	2	161	8	-1	12	-1	-1	-1
99xaa10	126	tallest=67	0	0	200	120	2010-06-19	2010-11-01	SEL   	10	-1	U	-1	-1	-1	-1	101.6	-1	2	157	8	-1	12	-1	-1	-1
96xaa10	127	tallest=57	0	0	75	27	2010-06-19	2010-11-01	SEL   	10	-1	U	-1	-1	-1	-1	99.1	-1	2	157	8	-1	12	-1	-1	-1
96xaa10	128	tallest=63	0	0	75	60	2010-06-19	2010-11-01	SEL   	10	-1	U	-1	-1	-1	-1	106.7	-1	2	160	8	-1	13	-1	-1	-1
89xaa10	129	tallest=66 (6 @ 66)	0	0	300	225	2010-06-19	2010-11-01	SEL   	10	-1	U	-1	-1	-1	-1	104.1	-1	2	153	8	-1	13	-1	-1	-1
92xaa10	130	tallest=64 (drought loss)	0	0	200	160	2010-06-19	2010-11-01	SEL   	10	-1	U	-1	-1	-1	-1	96.5	-1	2	152	8	-1	14	-1	-1	-1
90xaa10	131	tallest=60	0	0	125	60	2010-06-19	2010-11-01	SEL   	10	-1	U	-1	-1	-1	-1	96.5	-1	2	165	8	-1	14	-1	-1	-1
90xaa10	132	tallest=56 (1 with variagated leaves)	0	0	125	120	2010-06-19	2010-11-01	SEL   	10	-1	U	-1	-1	-1	-1	96.5	-1	2	165	8	-1	15	-1	-1	-1
95xaa10	133	tallest=54	0	0	60	75	2010-06-19	2010-11-01	SEL   	10	-1	U	-1	-1	-1	-1	94	-1	2	162	8	-1	15	-1	-1	-1
88xaa10	134	tallest=58	0	0	150	105	2010-06-19	2010-11-01	SEL   	10	-1	U	-1	-1	-1	-1	104.1	-1	2	163	8	-1	15	-1	-1	-1
88xaa10	135	tallest=64	0	0	150	135	2010-06-19	2010-11-01	SEL   	10	-1	U	-1	-1	-1	-1	96.5	-1	2	163	8	-1	16	-1	-1	-1
76xaa02	136	Seed was frozen till 2007. 1-1 stock South to North. Tallest was #5 - 85.  See PIP notes for #'s 5,7,8,9,11	0	0	11	11	2008-04-01	2008-11-01	SEL   	15	-1	U	-1	-1	-1	-1	137.2	-1	2	129	4	-1	-1	-1	-1	-1
76xaa02	137	0	0	0	6	2	2008-04-01	2008-11-01	SEL   	15	-1	U	-1	-1	-1	-1	132.1	-1	2	129	4	-1	-1	-1	-1	-1
76xaa02	138	0	0	0	4	1	2008-04-01	2008-11-01	SEL   	15	-1	U	-1	-1	-1	-1	61	-1	2	129	4	-1	-1	-1	-1	-1
76xaa02	139	0	0	0	4	2	2008-04-01	2008-11-01	SEL   	15	-1	U	-1	-1	-1	-1	71.1	-1	2	129	4	-1	-1	-1	-1	-1
76xaa02	140	Wide crown? Close nodes. One was 85!  	0	0	4	4	2008-04-01	2008-11-01	SEL   	15	-1	U	-1	-1	-1	-1	127	-1	2	129	4	-1	-1	-1	-1	-1
76xaa02	141	Fastigate?  Was 	0	0	4	1	2008-04-01	2008-11-01	SEL   	15	-1	U	-1	-1	-1	-1	167.6	-1	2	129	4	-1	-1	-1	-1	-1
76xaa02	142	Fastigate?	0	0	4	3	2008-04-01	2008-11-01	SEL   	15	-1	U	-1	-1	-1	-1	127	-1	2	129	4	-1	-1	-1	-1	-1
76xaa02	143	Fastigate?	0	0	4	1	2008-04-01	2008-11-01	SEL   	15	-1	U	-1	-1	-1	-1	66	-1	2	129	4	-1	-1	-1	-1	-1
83xaa04	144	These were part of 200 (1 flat) seedlings raised for MSU.  Planted 20 - 13 survived.  The ID numbers here were carried over to the PIP tests...	0	0	20	13	2008-04-01	2008-11-01	SEL   	10	-1	U	-1	-1	-1	-1	121.9	-1	2	140	4	-1	-1	-1	-1	-1
83xaa04	145	0	0	0	1	1	2008-04-01	2008-11-01	SEL   	10	-1	U	-1	-1	-1	-1	66	-1	2	140	3	-1	-1	-1	-1	-1
83aa203	146	May be PIP #3	0	0	1	1	2008-04-01	2008-11-01	SEL   	10	-1	U	-1	-1	-1	-1	129.5	-1	127	2	3	-1	-1	-1	-1	-1
83xaa04	147	0	0	0	1	1	2008-04-01	2008-11-01	SEL   	10	-1	U	-1	-1	-1	-1	101.6	-1	2	140	3	-1	-1	-1	-1	-1
83xaa04	148	May be PIP #5	0	0	1	1	2008-04-01	2008-11-01	SEL   	10	-1	U	-1	-1	-1	-1	119.4	-1	2	140	3	-1	-1	-1	-1	-1
83xaa04	149	0	0	0	1	1	2008-04-01	2008-11-01	SEL   	10	-1	U	-1	-1	-1	-1	101.6	-1	2	140	3	-1	-1	-1	-1	-1
83xaa04	150	0	0	0	1	1	2008-04-01	2008-11-01	SEL   	10	-1	U	-1	-1	-1	-1	99.1	-1	2	140	3	-1	-1	-1	-1	-1
83aa208	151	0	0	0	1	1	2008-04-01	2008-11-01	SEL   	10	-1	U	-1	-1	-1	-1	99.1	-1	130	2	3	-1	-1	-1	-1	-1
83xaa04	152	May be PIP #9	0	0	1	1	2008-04-01	2008-11-01	SEL   	10	-1	U	-1	-1	-1	-1	182.9	-1	2	140	3	-1	-1	-1	-1	-1
83xaa04	153	0	0	0	1	1	2008-04-01	2008-11-01	SEL   	10	-1	U	-1	-1	-1	-1	61	-1	2	140	3	-1	-1	-1	-1	-1
83xaa04	154	0	0	0	1	1	2008-04-01	2008-11-01	SEL   	10	-1	U	-1	-1	-1	-1	94	-1	2	140	3	-1	-1	-1	-1	-1
83xaa04	155	0	0	0	1	1	2008-04-01	2008-11-01	SEL   	10	-1	U	-1	-1	-1	-1	83.8	-1	2	140	3	-1	-1	-1	-1	-1
83xaa04	156	0	0	0	1	1	2008-04-01	2008-11-01	SEL   	10	-1	U	-1	-1	-1	-1	81.3	-1	2	140	3	-1	-1	-1	-1	-1
76aa218	157	PIP09-T5=0	0	0	10	2	2009-04-04	2009-11-01	DC    	10	-1	U	-1	-1	-1	-1	91.4	-1	161	2	6	-1	-1	-1	-1	-1
76aa217	158	Nice - vigorous, PIP09-T5=18	0	0	20	12	2009-04-04	2009-11-01	DC    	10	-1	U	-1	-1	-1	-1	76.2	-1	124	2	6	-1	-1	-1	-1	-1
76aa214	159	PIP09-T5=4	0	0	10	6	2009-04-04	2009-11-01	DC    	10	-1	U	-1	-1	-1	-1	127	-1	123	2	6	-1	-1	-1	-1	-1
76aa211	160	Short 1-0 parent stock, PIP09-T5=16	0	0	10	4	2009-04-04	2009-11-01	DC    	10	-1	U	-1	-1	-1	-1	91.4	-1	160	2	6	-1	-1	-1	-1	-1
76aa205	161	PIP09-T5=46	0	0	12	7	2009-04-04	2009-11-01	DC    	10	-1	U	-1	-1	-1	-1	121.9	-1	159	2	6	-1	-1	-1	-1	-1
83aa209	162	Huge 1-0 parent stock, Large leaves, wavy, syliptic, PIP09-T5=28	0	0	11	2	2009-04-04	2009-11-01	DC    	10	-1	U	-1	-1	-1	-1	157.5	-1	131	2	6	-1	-1	-1	-1	-1
83aa208	163	PIP09-T5=70	0	0	4	2	2009-04-04	2009-11-01	DC    	10	-1	U	-1	-1	-1	-1	88.9	-1	130	2	6	-1	-1	-1	-1	-1
83aa206	164	NIce! Tallest=81, 100% rooting if 4 is counted.  PIP09-T5=100	0	0	4	3	2009-04-04	2009-11-01	DC    	10	-1	U	-1	-1	-1	-1	121.9	-1	129	2	6	-1	-1	-1	-1	-1
83aa203	165	Dark green leaves - Bugs like leaves...  The PIP-09-T5 test had incredible callus cluster roots at cutting base.  PIP09-T5=66	0	0	6	5	2009-04-04	2009-11-01	DC    	10	-1	U	-1	-1	-1	-1	142.2	-1	127	2	6	-1	-1	-1	-1	-1
pip120	166	Tallest=31 Dia 5-9mm (Dykema PIP cuttings)	0	0	11	11	2010-05-10	2010-11-01	DC    	10	-1	Y	-1	-1	-1	-1	22	-1	2	140	8	-1	3	-1	-1	-1
pip101	167	Tallest=32   (Dykema PIP cuttings)	0	0	12	9	2010-05-10	2010-11-01	DC    	10	-1	U	-1	-1	-1	-1	25	-1	2	140	8	-1	3	-1	-1	-1
pip115	168	Tallest=37   (Dykema PIP cuttings)	0	0	12	10	2010-05-10	2010-11-01	DC    	10	-1	Y	-1	-1	-1	-1	24	-1	2	140	8	-1	3	-1	-1	-1
pip129	169	Tallest=37   (Dykema PIP cuttings)	0	0	14	11	2010-05-10	2010-11-01	DC    	10	-1	Y	-1	-1	-1	-1	23	-1	2	140	8	-1	3	-1	-1	-1
pip37	170	Tallest=43   (Dykema PIP cuttings)	0	0	15	10	2010-05-10	2010-11-01	DC    	10	-1	Y	-1	-1	-1	-1	33	-1	2	140	8	-1	4	-1	-1	-1
pip31	171	Tallest=37   (Dykema PIP cuttings)	0	0	14	11	2010-05-10	2010-11-01	DC    	10	-1	Y	-1	-1	-1	-1	29	-1	2	140	8	-1	4	-1	-1	-1
pip9	172	Tallest=49 biased  (Dykema PIP cuttings)	0	0	11	8	2010-05-10	2010-11-01	DC    	10	-1	U	-1	-1	-1	-1	31	-1	2	140	8	-1	5	-1	-1	-1
csse willow	173	Willow - Sole survivor from CSSE curly willow grown from seed	0	0	2	1	2011-04-17	2011-09-01	1-0   	15	3	Y	-1	-1	-1	-1	-1	-1	1	1	13	-1	1	-1	-1	-1
93xaa10	174	Flat 2 all 1-0 stock (select 2)	0	0	12	10	2011-04-17	2011-09-01	1-0   	15	4	Y	-1	-1	-1	-1	-1	-1	2	166	13	-1	3	-1	-1	-1
83aa221	175	PIP120 ? Check notes (select 2)	0	0	12	12	2011-04-17	2011-09-01	1-0   	30	4	Y	-1	-1	-1	-1	-1	-1	2	140	13	-1	4	-1	-1	-1
90aa101	176	Variegated 10% on 5/26/11 (Reverted)	0	0	1	1	2011-04-17	2011-09-01	1-0   	40	5	N	-1	-1	-1	-1	-1	-1	147	2	13	-1	5	-1	-1	-1
94aa101	177	Variegated 50% on 5/26/11, 50% on 9/1/11	0	0	1	1	2011-04-17	2011-09-01	1-0   	40	5	Y	-1	-1	-1	-1	-1	-1	148	2	13	-1	6	-1	-1	-1
87aa101	178	Variegated 0% on 5/26/11 looked dead.  (Reverted)	0	0	1	1	2011-04-17	2011-09-01	1-0   	30	4	N	-1	-1	-1	-1	-1	-1	146	2	13	-1	7	-1	-1	-1
88xaa10	179	Nice 5/26/11 Begin Row (right side)	0	0	6	2	2011-04-17	2011-09-01	DC    	15	14	N	-1	-1	-1	-1	-1	-1	2	163	13	-1	8	-1	-1	-1
88xaa10	180	0	0	0	6	5	2011-04-17	2011-09-01	DC    	-1	-1	N	-1	-1	-1	-1	-1	-1	2	163	13	-1	9	-1	-1	-1
88xaa10	181	0	0	0	5	3	2011-04-17	2011-09-01	DC    	-1	-1	N	-1	-1	-1	-1	-1	-1	2	163	13	-1	10	-1	-1	-1
88xaa10	182	0	0	0	6	6	2011-04-17	2011-09-01	DC    	-1	-1	N	-1	-1	-1	-1	-1	-1	2	163	13	-1	11	-1	-1	-1
88xaa10	183	0	0	0	6	5	2011-04-17	2011-09-01	DC    	-1	-1	N	-1	-1	-1	-1	-1	-1	2	163	13	-1	12	-1	-1	-1
88xaa10	184	0	0	0	5	5	2011-04-17	2011-09-01	DC    	-1	-1	N	-1	-1	-1	-1	-1	-1	2	163	13	-1	13	-1	-1	-1
88xaa10	185	0	0	0	6	5	2011-04-17	2011-09-01	DC    	-1	-1	N	-1	-1	-1	-1	-1	-1	2	163	13	-1	14	-1	-1	-1
88xaa10	186	0	0	0	6	6	2011-04-17	2011-09-01	DC    	-1	5	Y	-1	-1	-1	-1	-1	-1	2	163	13	-1	15	-1	-1	-1
88xaa10	187	0	0	0	5	4	2011-04-17	2011-09-01	DC    	-1	-1	N	-1	-1	-1	-1	-1	-1	2	163	13	-1	16	-1	-1	-1
88xaa10	188	0	0	0	6	5	2011-04-17	2011-09-01	DC    	-1	-1	N	-1	-1	-1	-1	-1	-1	2	163	13	-1	17	-1	-1	-1
88xaa10	189	0	0	0	5	4	2011-04-17	2011-09-01	DC    	-1	-1	N	-1	-1	-1	-1	-1	-1	2	163	13	-1	18	-1	-1	-1
88xaa10	190	0	0	0	6	4	2011-04-17	2011-09-01	DC    	-1	-1	N	-1	-1	-1	-1	-1	-1	2	163	13	-1	19	-1	-1	-1
88xaa10	191	0	0	0	6	3	2011-04-17	2011-09-01	DC    	-1	-1	N	-1	-1	-1	-1	-1	-1	2	163	13	-1	20	-1	-1	-1
88xaa10	192	0	0	0	6	5	2011-04-17	2011-09-01	DC    	-1	-1	N	-1	-1	-1	-1	-1	-1	2	163	13	-1	21	-1	-1	-1
88xaa10	193	0	0	0	6	5	2011-04-17	2011-09-01	DC    	-1	-1	N	-1	-1	-1	-1	-1	-1	2	163	13	-1	22	-1	-1	-1
88xaa10	194	0	0	0	6	5	2011-04-17	2011-09-01	DC    	-1	-1	N	-1	-1	-1	-1	-1	-1	2	163	13	-1	23	-1	-1	-1
88xaa10	195	end row	0	0	5	3	2011-04-17	2011-09-01	DC    	-1	-1	N	-1	-1	-1	-1	-1	-1	2	163	13	-1	24	-1	-1	-1
88xaa10	196	begin row	0	0	6	5	2011-04-17	2011-09-01	DC    	-1	-1	N	-1	-1	-1	-1	-1	-1	2	163	13	-1	25	-1	-1	-1
88xaa10	197	0	0	0	6	3	2011-04-17	2011-09-01	DC    	-1	-1	N	-1	-1	-1	-1	-1	-1	2	163	13	-1	26	-1	-1	-1
88xaa10	198	0	0	0	5	3	2011-04-17	2011-09-01	DC    	-1	-1	N	-1	-1	-1	-1	-1	-1	2	163	13	-1	27	-1	-1	-1
88xaa10	199	0	0	0	6	4	2011-04-17	2011-09-01	DC    	-1	-1	N	-1	-1	-1	-1	-1	-1	2	163	13	-1	28	-1	-1	-1
88xaa10	200	0	0	0	6	4	2011-04-17	2011-09-01	DC    	-1	-1	N	-1	-1	-1	-1	-1	-1	2	163	13	-1	29	-1	-1	-1
88xaa10	201	0	0	0	5	4	2011-04-17	2011-09-01	DC    	-1	-1	N	-1	-1	-1	-1	-1	-1	2	163	13	-1	30	-1	-1	-1
88xaa10	202	0	0	0	6	1	2011-04-17	2011-09-01	DC    	-1	-1	N	-1	-1	-1	-1	-1	-1	2	163	13	-1	31	-1	-1	-1
88xaa10	203	0	0	0	6	4	2011-04-17	2011-09-01	DC    	-1	-1	N	-1	-1	-1	-1	-1	-1	2	163	13	-1	32	-1	-1	-1
88xaa10	204	0	0	0	5	2	2011-04-17	2011-09-01	DC    	-1	-1	N	-1	-1	-1	-1	-1	-1	2	163	13	-1	33	-1	-1	-1
88xaa10	205	0	0	0	6	5	2011-04-17	2011-09-01	DC    	-1	-1	N	-1	-1	-1	-1	-1	-1	2	163	13	-1	34	-1	-1	-1
88xaa10	206	0	0	0	6	3	2011-04-17	2011-09-01	DC    	-1	-1	N	-1	-1	-1	-1	-1	-1	2	163	13	-1	35	-1	-1	-1
88xaa10	207	0	0	0	5	3	2011-04-17	2011-09-01	DC    	-1	-1	N	-1	-1	-1	-1	-1	-1	2	163	13	-1	36	-1	-1	-1
88xaa10	208	0	0	0	6	4	2011-04-17	2011-09-01	DC    	-1	-1	N	-1	-1	-1	-1	-1	-1	2	163	13	-1	37	-1	-1	-1
88xaa10	209	0	0	0	5	1	2011-04-17	2011-09-01	DC    	-1	-1	N	-1	-1	-1	-1	-1	-1	2	163	13	-1	38	-1	-1	-1
88xaa10	210	0	0	0	6	4	2011-04-17	2011-09-01	DC    	-1	-1	N	-1	-1	-1	-1	-1	-1	2	163	13	-1	39	-1	-1	-1
89xaa10	211	0	0	0	6	5	2011-04-17	2011-09-01	DC    	-1	-1	N	-1	-1	-1	-1	-1	-1	2	153	13	-1	40	-1	-1	-1
89xaa10	212	0	0	0	6	5	2011-04-17	2011-09-01	DC    	-1	-1	N	-1	-1	-1	-1	-1	-1	2	153	13	-1	41	-1	-1	-1
89xaa10	213	0	0	0	6	6	2011-04-17	2011-09-01	DC    	-1	5	N	-1	-1	-1	-1	-1	-1	2	153	13	-1	42	-1	-1	-1
89xaa10	214	0	0	0	6	5	2011-04-17	2011-09-01	DC    	-1	-1	N	-1	-1	-1	-1	-1	-1	2	153	13	-1	43	-1	-1	-1
89xaa10	215	0	0	0	6	6	2011-04-17	2011-09-01	DC    	-1	-1	N	-1	-1	-1	-1	-1	-1	2	153	13	-1	44	-1	-1	-1
89xaa10	216	0	0	0	6	5	2011-04-17	2011-09-01	DC    	-1	-1	N	-1	-1	-1	-1	-1	-1	2	153	13	-1	45	-1	-1	-1
89xaa10	217	0	0	0	6	3	2011-04-17	2011-09-01	DC    	-1	-1	N	-1	-1	-1	-1	-1	-1	2	153	13	-1	46	-1	-1	-1
89xaa10	218	0	0	0	5	3	2011-04-17	2011-09-01	DC    	-1	-1	N	-1	-1	-1	-1	-1	-1	2	153	13	-1	47	-1	-1	-1
89xaa10	219	end row	0	0	6	5	2011-04-17	2011-09-01	DC    	-1	-1	N	-1	-1	-1	-1	-1	-1	2	153	13	-1	48	-1	-1	-1
89xaa10	220	begin row	0	0	6	2	2011-04-17	2011-09-01	DC    	-1	-1	N	-1	-1	-1	-1	-1	-1	2	153	13	-1	49	-1	-1	-1
89xaa10	221	0	0	0	6	6	2011-04-17	2011-09-01	DC    	-1	-1	N	-1	-1	-1	-1	-1	-1	2	153	13	-1	50	-1	-1	-1
89xaa10	222	0	0	0	5	1	2011-04-17	2011-09-01	DC    	-1	-1	N	-1	-1	-1	-1	-1	-1	2	153	13	-1	51	-1	-1	-1
89xaa10	223	0	0	0	5	2	2011-04-17	2011-09-01	DC    	-1	-1	N	-1	-1	-1	-1	-1	-1	2	153	13	-1	52	-1	-1	-1
89xaa10	224	0	0	0	6	2	2011-04-17	2011-09-01	DC    	-1	-1	N	-1	-1	-1	-1	-1	-1	2	153	13	-1	53	-1	-1	-1
89xaa10	225	0	0	0	5	4	2011-04-17	2011-09-01	DC    	-1	-1	N	-1	-1	-1	-1	-1	-1	2	153	13	-1	54	-1	-1	-1
89xaa10	226	0	0	0	5	2	2011-04-17	2011-09-01	DC    	-1	-1	N	-1	-1	-1	-1	-1	-1	2	153	13	-1	55	-1	-1	-1
89xaa10	227	0	0	0	6	4	2011-04-17	2011-09-01	DC    	-1	-1	N	-1	-1	-1	-1	-1	-1	2	153	13	-1	56	-1	-1	-1
89xaa10	228	0	0	0	5	4	2011-04-17	2011-09-01	DC    	-1	-1	N	-1	-1	-1	-1	-1	-1	2	153	13	-1	57	-1	-1	-1
89xaa10	229	0	0	0	5	3	2011-04-17	2011-09-01	DC    	-1	-1	N	-1	-1	-1	-1	-1	-1	2	153	13	-1	1	-1	-1	-1
89xaa10	230	0	0	0	5	5	2011-04-17	2011-09-01	DC    	-1	-1	N	-1	-1	-1	-1	-1	-1	2	153	13	-1	2	-1	-1	-1
89xaa10	231	0	0	0	6	6	2011-04-17	2011-09-01	DC    	-1	-1	N	-1	-1	-1	-1	-1	-1	2	153	13	-1	3	-1	-1	-1
89xaa10	232	0	0	0	6	5	2011-04-17	2011-09-01	DC    	-1	-1	Y	-1	-1	-1	-1	-1	-1	2	153	13	-1	4	-1	-1	-1
89xaa10	233	0	0	0	6	5	2011-04-17	2011-09-01	DC    	-1	-1	Y	-1	-1	-1	-1	-1	-1	2	153	13	-1	5	-1	-1	-1
89xaa10	234	end row	0	0	6	5	2011-04-17	2011-09-01	DC    	-1	-1	N	-1	-1	-1	-1	-1	-1	2	153	13	-1	6	-1	-1	-1
89xaa10	235	begin row	0	0	6	4	2011-04-17	2011-09-01	DC    	-1	-1	N	-1	-1	-1	-1	-1	-1	2	153	13	-1	7	-1	-1	-1
89xaa10	236	0	0	0	6	6	2011-04-17	2011-09-01	DC    	-1	-1	N	-1	-1	-1	-1	-1	-1	2	153	13	-1	8	-1	-1	-1
89xaa10	237	0	0	0	5	5	2011-04-17	2011-09-01	DC    	-1	-1	N	-1	-1	-1	-1	-1	-1	2	153	13	-1	9	-1	-1	-1
89xaa10	238	0	0	0	6	5	2011-04-17	2011-09-01	DC    	-1	-1	N	-1	-1	-1	-1	-1	-1	2	153	13	-1	10	-1	-1	-1
89xaa10	239	0	0	0	6	4	2011-04-17	2011-09-01	DC    	-1	-1	N	-1	-1	-1	-1	-1	-1	2	153	13	-1	11	-1	-1	-1
91xaa10	240	0	0	0	7	6	2011-04-17	2011-09-01	DC    	-1	-1	N	-1	-1	-1	-1	-1	-1	2	154	13	-1	12	-1	-1	-1
91xaa10	241	0	0	0	7	6	2011-04-17	2011-09-01	DC    	-1	8	Y	-1	-1	-1	-1	-1	-1	2	154	13	-1	13	-1	-1	-1
91xaa10	242	0	0	0	6	6	2011-04-17	2011-09-01	DC    	-1	-1	N	-1	-1	-1	-1	-1	-1	2	154	13	-1	14	-1	-1	-1
91xaa10	243	0	0	0	6	6	2011-04-17	2011-09-01	DC    	-1	-1	N	-1	-1	-1	-1	-1	-1	2	154	13	-1	15	-1	-1	-1
91xaa10	244	0	0	0	4	4	2011-04-17	2011-09-01	DC    	-1	-1	N	-1	-1	-1	-1	-1	-1	2	154	13	-1	16	-1	-1	-1
91xaa10	245	0	0	0	6	6	2011-04-17	2011-09-01	DC    	-1	-1	N	-1	-1	-1	-1	-1	-1	2	154	13	-1	17	-1	-1	-1
91xaa10	246	0	0	0	5	3	2011-04-17	2011-09-01	DC    	-1	-1	N	-1	-1	-1	-1	-1	-1	2	154	13	-1	18	-1	-1	-1
91xaa10	247	0	0	0	4	5	2011-04-17	2011-09-01	DC    	-1	-1	N	-1	-1	-1	-1	-1	-1	2	154	13	-1	19	-1	-1	-1
91xaa10	248	0	0	0	5	4	2011-04-17	2011-09-01	DC    	-1	-1	N	-1	-1	-1	-1	-1	-1	2	154	13	-1	20	-1	-1	-1
91xaa10	249	0	0	0	5	5	2011-04-17	2011-09-01	DC    	-1	-1	N	-1	-1	-1	-1	-1	-1	2	154	13	-1	21	-1	-1	-1
91xaa10	250	0	0	0	6	6	2011-04-17	2011-09-01	DC    	-1	-1	N	-1	-1	-1	-1	-1	-1	2	154	13	-1	22	-1	-1	-1
91xaa10	251	0	0	0	5	0	2011-04-17	2011-09-01	DC    	-1	-1	N	-1	-1	-1	-1	-1	-1	2	154	13	-1	23	-1	-1	-1
91xaa10	252	0	0	0	6	5	2011-04-17	2011-09-01	DC    	-1	-1	N	-1	-1	-1	-1	-1	-1	2	154	13	-1	24	-1	-1	-1
91xaa10	253	0	0	0	6	6	2011-04-17	2011-09-01	DC    	-1	-1	N	-1	-1	-1	-1	-1	-1	2	154	13	-1	25	-1	-1	-1
91xaa10	254	0	0	0	5	6	2011-04-17	2011-09-01	DC    	-1	-1	Y	-1	-1	-1	-1	-1	-1	2	154	13	-1	26	-1	-1	-1
91xaa10	255	end row	0	0	6	5	2011-04-17	2011-09-01	DC    	-1	-1	N	-1	-1	-1	-1	-1	-1	2	154	13	-1	27	-1	-1	-1
91xaa10	256	begin row	0	0	7	5	2011-04-17	2011-09-01	DC    	-1	-1	N	-1	-1	-1	-1	-1	-1	2	154	13	-1	28	-1	-1	-1
91xaa10	257	0	0	0	5	6	2011-04-17	2011-09-01	DC    	-1	-1	N	-1	-1	-1	-1	-1	-1	2	154	13	-1	29	-1	-1	-1
91xaa10	258	0	0	0	6	4	2011-04-17	2011-09-01	DC    	-1	-1	N	-1	-1	-1	-1	-1	-1	2	154	13	-1	30	-1	-1	-1
91xaa10	259	0	0	0	6	6	2011-04-17	2011-09-01	DC    	-1	-1	N	-1	-1	-1	-1	-1	-1	2	154	13	-1	31	-1	-1	-1
91xaa10	260	0	0	0	6	4	2011-04-17	2011-09-01	DC    	-1	-1	N	-1	-1	-1	-1	-1	-1	2	154	13	-1	32	-1	-1	-1
91xaa10	261	0	0	0	6	4	2011-04-17	2011-09-01	DC    	-1	-1	N	-1	-1	-1	-1	-1	-1	2	154	13	-1	33	-1	-1	-1
91xaa10	262	Best family selection	0	0	6	6	2011-04-17	2011-09-01	DC    	-1	5	Y	-1	-1	-1	-1	-1	-1	2	154	13	-1	34	-1	-1	-1
91xaa10	263	0	0	0	4	3	2011-04-17	2011-09-01	DC    	-1	-1	N	-1	-1	-1	-1	-1	-1	2	154	13	-1	35	-1	-1	-1
91xaa10	264	0	0	0	6	4	2011-04-17	2011-09-01	DC    	-1	4	Y	-1	-1	-1	-1	-1	-1	2	154	13	-1	36	-1	-1	-1
91xaa10	265	0	0	0	6	6	2011-04-17	2011-09-01	DC    	-1	-1	N	-1	-1	-1	-1	-1	-1	2	154	13	-1	37	-1	-1	-1
91xaa10	266	0	0	0	6	5	2011-04-17	2011-09-01	DC    	-1	5	Y	-1	-1	-1	-1	-1	-1	2	154	13	-1	38	-1	-1	-1
91xaa10	267	0	0	0	6	6	2011-04-17	2011-09-01	DC    	-1	-1	N	-1	-1	-1	-1	-1	-1	2	154	13	-1	39	-1	-1	-1
91xaa10	268	0	0	0	5	4	2011-04-17	2011-09-01	DC    	-1	-1	N	-1	-1	-1	-1	-1	-1	2	154	13	-1	40	-1	-1	-1
91xaa10	269	0	0	0	4	2	2011-04-17	2011-09-01	DC    	-1	-1	N	-1	-1	-1	-1	-1	-1	2	154	13	-1	41	-1	-1	-1
99xaa10	270	0	0	0	6	5	2011-04-17	2011-09-01	DC    	-1	-1	N	-1	-1	-1	-1	-1	-1	2	157	13	-1	42	-1	-1	-1
99xaa10	271	0	0	0	6	5	2011-04-17	2011-09-01	DC    	-1	-1	N	-1	-1	-1	-1	-1	-1	2	157	13	-1	43	-1	-1	-1
99xaa10	272	0	0	0	6	5	2011-04-17	2011-09-01	DC    	-1	-1	N	-1	-1	-1	-1	-1	-1	2	157	13	-1	44	-1	-1	-1
99xaa10	273	0	0	0	6	3	2011-04-17	2011-09-01	DC    	-1	-1	N	-1	-1	-1	-1	-1	-1	2	157	13	-1	45	-1	-1	-1
99xaa10	274	0	0	0	6	4	2011-04-17	2011-09-01	DC    	-1	-1	N	-1	-1	-1	-1	-1	-1	2	157	13	-1	46	-1	-1	-1
99xaa10	275	0	0	0	6	6	2011-04-17	2011-09-01	DC    	-1	4	N	-1	-1	-1	-1	-1	-1	2	157	13	-1	47	-1	-1	-1
99xaa10	276	0	0	0	6	4	2011-04-17	2011-09-01	DC    	-1	-1	N	-1	-1	-1	-1	-1	-1	2	157	13	-1	48	-1	-1	-1
99xaa10	277	0	0	0	4	4	2011-04-17	2011-09-01	DC    	-1	-1	N	-1	-1	-1	-1	-1	-1	2	157	13	-1	49	-1	-1	-1
99xaa10	278	0	0	0	6	6	2011-04-17	2011-09-01	DC    	-1	5	Y	-1	-1	-1	-1	-1	-1	2	157	13	-1	50	-1	-1	-1
99xaa10	279	0	0	0	7	6	2011-04-17	2011-09-01	DC    	-1	-1	N	-1	-1	-1	-1	-1	-1	2	157	13	-1	51	-1	-1	-1
99xaa10	280	0	0	0	2	2	2011-04-17	2011-09-01	DC    	-1	-1	N	-1	-1	-1	-1	-1	-1	2	157	13	-1	52	-1	-1	-1
99xaa10	281	0	0	0	5	5	2011-04-17	2011-09-01	DC    	-1	-1	N	-1	-1	-1	-1	-1	-1	2	157	13	-1	53	-1	-1	-1
99xaa10	282	0	0	0	6	5	2011-04-17	2011-09-01	DC    	-1	-1	N	-1	-1	-1	-1	-1	-1	2	157	13	-1	54	-1	-1	-1
99xaa10	283	end row	0	0	6	4	2011-04-17	2011-09-01	DC    	-1	-1	N	-1	-1	-1	-1	-1	-1	2	157	13	-1	55	-1	-1	-1
99xaa10	284	begin row	0	0	6	4	2011-04-17	2011-09-01	DC    	-1	-1	N	-1	-1	-1	-1	-1	-1	2	157	13	-1	56	-1	-1	-1
99xaa10	285	0	0	0	6	6	2011-04-17	2011-09-01	DC    	-1	-1	N	-1	-1	-1	-1	-1	-1	2	157	13	-1	57	-1	-1	-1
99xaa10	286	0	0	0	6	6	2011-04-17	2011-09-01	DC    	-1	-1	N	-1	-1	-1	-1	-1	-1	2	157	13	-1	58	-1	-1	-1
99xaa10	287	0	0	0	6	5	2011-04-17	2011-09-01	DC    	-1	-1	N	-1	-1	-1	-1	-1	-1	2	157	13	-1	59	-1	-1	-1
99xaa10	288	0	0	0	6	4	2011-04-17	2011-09-01	DC    	-1	-1	N	-1	-1	-1	-1	-1	-1	2	157	13	-1	60	-1	-1	-1
99xaa10	289	0	0	0	6	4	2011-04-17	2011-09-01	DC    	-1	-1	N	-1	-1	-1	-1	-1	-1	2	157	13	-1	61	-1	-1	-1
99xaa10	290	0	0	0	6	3	2011-04-17	2011-09-01	DC    	-1	-1	N	-1	-1	-1	-1	-1	-1	2	157	13	-1	62	-1	-1	-1
99xaa10	291	0	0	0	6	2	2011-04-17	2011-09-01	DC    	-1	-1	N	-1	-1	-1	-1	-1	-1	2	157	13	-1	63	-1	-1	-1
99xaa10	292	0	0	0	6	6	2011-04-17	2011-09-01	DC    	-1	-1	N	-1	-1	-1	-1	-1	-1	2	157	13	-1	64	-1	-1	-1
99xaa10	293	0	0	0	6	6	2011-04-17	2011-09-01	DC    	-1	5	Y	-1	-1	-1	-1	-1	-1	2	157	13	-1	65	-1	-1	-1
99xaa10	294	0	0	0	6	3	2011-04-17	2011-09-01	DC    	-1	-1	N	-1	-1	-1	-1	-1	-1	2	157	13	-1	66	-1	-1	-1
99xaa10	295	0	0	0	6	5	2011-04-17	2011-09-01	DC    	-1	-1	N	-1	-1	-1	-1	-1	-1	2	157	13	-1	67	-1	-1	-1
99xaa10	296	0	0	0	5	4	2011-04-17	2011-09-01	DC    	-1	-1	N	-1	-1	-1	-1	-1	-1	2	157	13	-1	68	-1	-1	-1
99xaa10	297	0	0	0	6	5	2011-04-17	2011-09-01	DC    	-1	-1	N	-1	-1	-1	-1	-1	-1	2	157	13	-1	69	-1	-1	-1
99xaa10	298	0	0	0	6	5	2011-04-17	2011-09-01	DC    	-1	-1	N	-1	-1	-1	-1	-1	-1	2	157	13	-1	70	-1	-1	-1
87xaa10	299	0	0	0	6	6	2011-04-17	2011-09-01	DC    	-1	6	N	-1	-1	-1	-1	-1	-1	2	164	13	-1	71	-1	-1	-1
87xaa10	300	0	0	0	6	3	2011-04-17	2011-09-01	DC    	-1	-1	N	-1	-1	-1	-1	-1	-1	2	164	13	-1	72	-1	-1	-1
87xaa10	301	0	0	0	6	6	2011-04-17	2011-09-01	DC    	-1	-1	N	-1	-1	-1	-1	-1	-1	2	164	13	-1	73	-1	-1	-1
87xaa10	302	0	0	0	6	2	2011-04-17	2011-09-01	DC    	-1	-1	N	-1	-1	-1	-1	-1	-1	2	164	13	-1	74	-1	-1	-1
87xaa10	303	0	0	0	6	5	2011-04-17	2011-09-01	DC    	-1	-1	N	-1	-1	-1	-1	-1	-1	2	164	13	-1	75	-1	-1	-1
87xaa10	304	0	0	0	6	5	2011-04-17	2011-09-01	DC    	-1	5	N	-1	-1	-1	-1	-1	-1	2	164	13	-1	76	-1	-1	-1
87xaa10	305	0	0	0	6	3	2011-04-17	2011-09-01	DC    	-1	-1	N	-1	-1	-1	-1	-1	-1	2	164	13	-1	77	-1	-1	-1
87xaa10	306	0	0	0	5	3	2011-04-17	2011-09-01	DC    	-1	-1	N	-1	-1	-1	-1	-1	-1	2	164	13	-1	78	-1	-1	-1
87xaa10	307	end row	0	0	6	2	2011-04-17	2011-09-01	DC    	-1	-1	N	-1	-1	-1	-1	-1	-1	2	164	13	-1	79	-1	-1	-1
87xaa10	308	begin row	0	0	6	5	2011-04-17	2011-09-01	DC    	-1	-1	N	-1	-1	-1	-1	-1	-1	2	164	13	-1	80	-1	-1	-1
87xaa10	309	0	0	0	6	4	2011-04-17	2011-09-01	DC    	-1	-1	N	-1	-1	-1	-1	-1	-1	2	164	13	-1	81	-1	-1	-1
87xaa10	310	0	0	0	6	6	2011-04-17	2011-09-01	DC    	-1	-1	N	-1	-1	-1	-1	-1	-1	2	164	13	-1	82	-1	-1	-1
87xaa10	311	0	0	0	4	1	2011-04-17	2011-09-01	DC    	-1	-1	N	-1	-1	-1	-1	-1	-1	2	164	13	-1	83	-1	-1	-1
87xaa10	312	0	0	0	6	6	2011-04-17	2011-09-01	DC    	-1	-1	N	-1	-1	-1	-1	-1	-1	2	164	13	-1	84	-1	-1	-1
87xaa10	313	0	0	0	6	4	2011-04-17	2011-09-01	DC    	-1	-1	N	-1	-1	-1	-1	-1	-1	2	164	13	-1	85	-1	-1	-1
87xaa10	314	0	0	0	5	3	2011-04-17	2011-09-01	DC    	-1	-1	N	-1	-1	-1	-1	-1	-1	2	164	13	-1	86	-1	-1	-1
87xaa10	315	0	0	0	6	3	2011-04-17	2011-09-01	DC    	-1	-1	N	-1	-1	-1	-1	-1	-1	2	164	13	-1	87	-1	-1	-1
100xaa10	316	Cutting stock from Dykema 2010	0	0	6	5	2011-04-17	2011-09-01	DC    	-1	-1	N	-1	-1	-1	-1	-1	-1	2	158	13	-1	1	-1	-1	-1
100xaa10	317	Cutting stock from Dykema 2010	0	0	6	6	2011-04-17	2011-09-01	DC    	-1	5	Y	-1	-1	-1	-1	-1	-1	2	158	13	-1	2	-1	-1	-1
100xaa10	318	Cutting stock from Dykema 2010	0	0	6	6	2011-04-17	2011-09-01	DC    	-1	-1	N	-1	-1	-1	-1	-1	-1	2	158	13	-1	3	-1	-1	-1
100xaa10	319	Cutting stock from Dykema 2010	0	0	6	6	2011-04-17	2011-09-01	DC    	-1	6	Y	-1	-1	-1	-1	-1	-1	2	158	13	-1	4	-1	-1	-1
100xaa10	320	Cutting stock from Dykema 2010	0	0	6	5	2011-04-17	2011-09-01	DC    	-1	-1	N	-1	-1	-1	-1	-1	-1	2	158	13	-1	5	-1	-1	-1
100xaa10	321	Cutting stock from Dykema 2010	0	0	6	5	2011-04-17	2011-09-01	DC    	-1	-1	N	-1	-1	-1	-1	-1	-1	2	158	13	-1	6	-1	-1	-1
100xaa10	322	Cutting stock from Dykema 2010	0	0	6	5	2011-04-17	2011-09-01	DC    	-1	-1	N	-1	-1	-1	-1	-1	-1	2	158	13	-1	7	-1	-1	-1
100xaa10	323	Cutting stock from Dykema 2010	0	0	5	5	2011-04-17	2011-09-01	DC    	-1	-1	N	-1	-1	-1	-1	-1	-1	2	158	13	-1	8	-1	-1	-1
100xaa10	324	PRAVL - Stock from Dykema 2010	PRAVL	0	6	6	2011-04-17	2011-09-01	DC    	-1	5	Y	-1	-1	-1	-1	-1	-1	2	158	13	-1	9	-1	-1	-1
100xaa10	325	Cutting stock from Dykema 2010	0	0	6	4	2011-04-17	2011-09-01	DC    	-1	-1	N	-1	-1	-1	-1	-1	-1	2	158	13	-1	10	-1	-1	-1
100xaa10	326	Cutting stock from Dykema 2010	0	0	5	3	2011-04-17	2011-09-01	DC    	-1	-1	N	-1	-1	-1	-1	-1	-1	2	158	13	-1	11	-1	-1	-1
100xaa10	327	Cutting stock from Dykema 2010	0	0	6	6	2011-04-17	2011-09-01	DC    	-1	-1	N	-1	-1	-1	-1	-1	-1	2	158	13	-1	12	-1	-1	-1
100xaa10	328	Cutting stock from Dykema 2010	0	0	6	6	2011-04-17	2011-09-01	DC    	-1	11	Y	-1	-1	-1	-1	-1	-1	2	158	13	-1	13	-1	-1	-1
100xaa10	329	end row	0	0	5	5	2011-04-17	2011-09-01	DC    	-1	-1	N	-1	-1	-1	-1	-1	-1	2	158	13	-1	14	-1	-1	-1
100xaa10	330	begin row	0	0	6	6	2011-04-17	2011-09-01	DC    	-1	11	Y	-1	-1	-1	-1	-1	-1	2	158	13	-1	15	-1	-1	-1
100xaa10	331	Cutting stock from Dykema 2010	0	0	6	6	2011-04-17	2011-09-01	DC    	-1	-1	N	-1	-1	-1	-1	-1	-1	2	158	13	-1	16	-1	-1	-1
100xaa10	332	Cutting stock from Dykema 2010	0	0	6	6	2011-04-17	2011-09-01	DC    	-1	-1	N	-1	-1	-1	-1	-1	-1	2	158	13	-1	17	-1	-1	-1
100xaa10	333	Cutting stock from Dykema 2010	0	0	6	3	2011-04-17	2011-09-01	DC    	-1	-1	N	-1	-1	-1	-1	-1	-1	2	158	13	-1	18	-1	-1	-1
100xaa10	334	Cutting stock from Dykema 2010	0	0	6	4	2011-04-17	2011-09-01	DC    	-1	-1	N	-1	-1	-1	-1	-1	-1	2	158	13	-1	19	-1	-1	-1
100xaa10	335	Cutting stock from Dykema 2010	0	0	6	6	2011-04-17	2011-09-01	DC    	-1	6	Y	-1	-1	-1	-1	-1	-1	2	158	13	-1	20	-1	-1	-1
100xaa10	336	Cutting stock from Dykema 2010	0	0	6	4	2011-04-17	2011-09-01	DC    	-1	7	Y	-1	-1	-1	-1	-1	-1	2	158	13	-1	21	-1	-1	-1
100xaa10	337	Cutting stock from Dykema 2010	0	0	6	4	2011-04-17	2011-09-01	DC    	-1	-1	N	-1	-1	-1	-1	-1	-1	2	158	13	-1	22	-1	-1	-1
100xaa10	338	Cutting stock from Dykema 2010	0	0	6	4	2011-04-17	2011-09-01	DC    	-1	-1	N	-1	-1	-1	-1	-1	-1	2	158	13	-1	23	-1	-1	-1
100xaa10	339	Cutting stock from Dykema 2010	0	0	6	6	2011-04-17	2011-09-01	DC    	-1	-1	N	-1	-1	-1	-1	-1	-1	2	158	13	-1	24	-1	-1	-1
100xaa10	340	Cutting stock from Dykema 2010	0	0	6	6	2011-04-17	2011-09-01	DC    	-1	-1	N	-1	-1	-1	-1	-1	-1	2	158	13	-1	25	-1	-1	-1
100xaa10	341	Cutting stock from Dykema 2010	0	0	5	5	2011-04-17	2011-09-01	DC    	-1	5	Y	-1	-1	-1	-1	-1	-1	2	158	13	-1	26	-1	-1	-1
100xaa10	342	Cutting stock from Dykema 2010	0	0	5	5	2011-04-17	2011-09-01	DC    	-1	-1	N	-1	-1	-1	-1	-1	-1	2	158	13	-1	27	-1	-1	-1
100xaa10	343	Cutting stock from Dykema 2010	0	0	5	4	2011-04-17	2011-09-01	DC    	-1	-1	N	-1	-1	-1	-1	-1	-1	2	158	13	-1	28	-1	-1	-1
100xaa10	344	Cutting stock from Dykema 2010	0	0	4	4	2011-04-17	2011-09-01	DC    	-1	-1	N	-1	-1	-1	-1	-1	-1	2	158	13	-1	29	-1	-1	-1
95xaa10	345	0	0	0	6	5	2011-04-17	2011-09-01	DC    	-1	12	N	-1	-1	-1	-1	-1	-1	2	162	13	-1	30	-1	-1	-1
95xaa10	346	0	0	0	6	6	2011-04-17	2011-09-01	DC    	-1	8	N	-1	-1	-1	-1	-1	-1	2	162	13	-1	31	-1	-1	-1
95xaa10	347	0	0	0	6	5	2011-04-17	2011-09-01	DC    	-1	-1	N	-1	-1	-1	-1	-1	-1	2	162	13	-1	32	-1	-1	-1
95xaa10	348	0	0	0	6	4	2011-04-17	2011-09-01	DC    	-1	-1	N	-1	-1	-1	-1	-1	-1	2	162	13	-1	33	-1	-1	-1
95xaa10	349	0	0	0	6	6	2011-04-17	2011-09-01	DC    	-1	-1	N	-1	-1	-1	-1	-1	-1	2	162	13	-1	34	-1	-1	-1
95xaa10	350	0	0	0	5	5	2011-04-17	2011-09-01	DC    	-1	-1	N	-1	-1	-1	-1	-1	-1	2	162	13	-1	35	-1	-1	-1
95xaa10	351	0	0	0	6	6	2011-04-17	2011-09-01	DC    	-1	-1	N	-1	-1	-1	-1	-1	-1	2	162	13	-1	36	-1	-1	-1
95xaa10	352	0	0	0	6	5	2011-04-17	2011-09-01	DC    	-1	-1	N	-1	-1	-1	-1	-1	-1	2	162	13	-1	37	-1	-1	-1
95xaa10	353	0	0	0	6	4	2011-04-17	2011-09-01	DC    	-1	-1	N	-1	-1	-1	-1	-1	-1	2	162	13	-1	38	-1	-1	-1
95xaa10	354	0	0	0	5	4	2011-04-17	2011-09-01	DC    	-1	-1	N	-1	-1	-1	-1	-1	-1	2	162	13	-1	39	-1	-1	-1
95xaa10	355	0	0	0	6	3	2011-04-17	2011-09-01	DC    	-1	-1	N	-1	-1	-1	-1	-1	-1	2	162	13	-1	40	-1	-1	-1
95xaa10	356	0	0	0	6	3	2011-04-17	2011-09-01	DC    	-1	-1	N	-1	-1	-1	-1	-1	-1	2	162	13	-1	41	-1	-1	-1
95xaa10	357	0	0	0	6	4	2011-04-17	2011-09-01	DC    	-1	-1	N	-1	-1	-1	-1	-1	-1	2	162	13	-1	42	-1	-1	-1
95xaa10	358	0	0	0	6	2	2011-04-17	2011-09-01	DC    	-1	-1	N	-1	-1	-1	-1	-1	-1	2	162	13	-1	43	-1	-1	-1
95xaa10	359	end row	0	0	6	3	2011-04-17	2011-09-01	DC    	-1	-1	N	-1	-1	-1	-1	-1	-1	2	162	13	-1	44	-1	-1	-1
95xaa10	360	begin row	0	0	6	5	2011-04-17	2011-09-01	DC    	-1	-1	N	-1	-1	-1	-1	-1	-1	2	162	13	-1	45	-1	-1	-1
95xaa10	361	0	0	0	6	2	2011-04-17	2011-09-01	DC    	-1	-1	N	-1	-1	-1	-1	-1	-1	2	162	13	-1	46	-1	-1	-1
95xaa10	362	0	0	0	6	6	2011-04-17	2011-09-01	DC    	-1	-1	N	-1	-1	-1	-1	-1	-1	2	162	13	-1	47	-1	-1	-1
95xaa10	363	0	0	0	5	4	2011-04-17	2011-09-01	DC    	-1	-1	N	-1	-1	-1	-1	-1	-1	2	162	13	-1	48	-1	-1	-1
95xaa10	364	0	0	0	6	4	2011-04-17	2011-09-01	DC    	-1	-1	N	-1	-1	-1	-1	-1	-1	2	162	13	-1	49	-1	-1	-1
95xaa10	365	0	0	0	6	4	2011-04-17	2011-09-01	DC    	-1	-1	N	-1	-1	-1	-1	-1	-1	2	162	13	-1	50	-1	-1	-1
95xaa10	366	0	0	0	6	2	2011-04-17	2011-09-01	DC    	-1	-1	N	-1	-1	-1	-1	-1	-1	2	162	13	-1	51	-1	-1	-1
95xaa10	367	0	0	0	5	5	2011-04-17	2011-09-01	DC    	-1	-1	N	-1	-1	-1	-1	-1	-1	2	162	13	-1	52	-1	-1	-1
95xaa10	368	0	0	0	6	3	2011-04-17	2011-09-01	DC    	-1	-1	N	-1	-1	-1	-1	-1	-1	2	162	13	-1	53	-1	-1	-1
95xaa10	369	0	0	0	6	5	2011-04-17	2011-09-01	DC    	-1	-1	N	-1	-1	-1	-1	-1	-1	2	162	13	-1	54	-1	-1	-1
95xaa10	370	0	0	0	6	5	2011-04-17	2011-09-01	DC    	-1	-1	N	-1	-1	-1	-1	-1	-1	2	162	13	-1	55	-1	-1	-1
95xaa10	371	0	0	0	6	6	2011-04-17	2011-09-01	DC    	-1	4	Y	-1	-1	-1	-1	-1	-1	2	162	13	-1	56	-1	-1	-1
95xaa10	372	0	0	0	6	5	2011-04-17	2011-09-01	DC    	-1	-1	N	-1	-1	-1	-1	-1	-1	2	162	13	-1	57	-1	-1	-1
95xaa10	373	0	0	0	5	4	2011-04-17	2011-09-01	DC    	-1	-1	N	-1	-1	-1	-1	-1	-1	2	162	13	-1	58	-1	-1	-1
95xaa10	374	0	0	0	6	4	2011-04-17	2011-09-01	DC    	-1	-1	N	-1	-1	-1	-1	-1	-1	2	162	13	-1	59	-1	-1	-1
102xaa10	375	0	0	0	6	6	2011-04-17	2011-09-01	DC    	-1	-1	N	-1	-1	-1	-1	-1	-1	2	168	13	-1	60	-1	-1	-1
102xaa10	376	0	0	0	6	5	2011-04-17	2011-09-01	DC    	-1	-1	N	-1	-1	-1	-1	-1	-1	2	168	13	-1	61	-1	-1	-1
102xaa10	377	0	0	0	6	6	2011-04-17	2011-09-01	DC    	-1	12	Y	-1	-1	-1	-1	-1	-1	2	168	13	-1	62	-1	-1	-1
102xaa10	378	0	0	0	6	4	2011-04-17	2011-09-01	DC    	-1	-1	N	-1	-1	-1	-1	-1	-1	2	168	13	-1	63	-1	-1	-1
102xaa10	379	0	0	0	6	2	2011-04-17	2011-09-01	DC    	-1	-1	N	-1	-1	-1	-1	-1	-1	2	168	13	-1	64	-1	-1	-1
102xaa10	380	end row	0	0	5	4	2011-04-17	2011-09-01	DC    	-1	-1	N	-1	-1	-1	-1	-1	-1	2	168	13	-1	65	-1	-1	-1
102xaa10	381	begin row	0	0	6	5	2011-04-17	2011-09-01	DC    	-1	8	Y	-1	-1	-1	-1	-1	-1	2	168	13	-1	66	-1	-1	-1
102xaa10	382	0	0	0	6	6	2011-04-17	2011-09-01	DC    	-1	-1	N	-1	-1	-1	-1	-1	-1	2	168	13	-1	67	-1	-1	-1
102xaa10	383	0	0	0	6	6	2011-04-17	2011-09-01	DC    	-1	-1	N	-1	-1	-1	-1	-1	-1	2	168	13	-1	68	-1	-1	-1
102xaa10	384	0	0	0	5	5	2011-04-17	2011-09-01	DC    	-1	-1	N	-1	-1	-1	-1	-1	-1	2	168	13	-1	69	-1	-1	-1
102xaa10	385	0	0	0	6	6	2011-04-17	2011-09-01	DC    	-1	4	Y	-1	-1	-1	-1	-1	-1	2	168	13	-1	70	-1	-1	-1
102xaa10	386	0	0	0	6	6	2011-04-17	2011-09-01	DC    	-1	-1	N	-1	-1	-1	-1	-1	-1	2	168	13	-1	71	-1	-1	-1
102xaa10	387	0	0	0	5	5	2011-04-17	2011-09-01	DC    	-1	-1	N	-1	-1	-1	-1	-1	-1	2	168	13	-1	72	-1	-1	-1
101xaa10	388	0	0	0	6	4	2011-04-17	2011-09-01	DC    	-1	-1	N	-1	-1	-1	-1	-1	-1	2	156	13	-1	73	-1	-1	-1
101xaa10	389	0	0	0	4	3	2011-04-17	2011-09-01	DC    	-1	-1	N	-1	-1	-1	-1	-1	-1	2	156	13	-1	74	-1	-1	-1
101xaa10	390	0	0	0	6	4	2011-04-17	2011-09-01	DC    	-1	-1	N	-1	-1	-1	-1	-1	-1	2	156	13	-1	75	-1	-1	-1
101xaa10	391	0	0	0	6	4	2011-04-17	2011-09-01	DC    	-1	-1	N	-1	-1	-1	-1	-1	-1	2	156	13	-1	76	-1	-1	-1
101xaa10	392	end row	0	0	5	2	2011-04-17	2011-09-01	DC    	-1	-1	N	-1	-1	-1	-1	-1	-1	2	156	13	-1	77	-1	-1	-1
101xaa10	393	begin row	0	0	6	5	2011-04-17	2011-09-01	DC    	-1	-1	N	-1	-1	-1	-1	-1	-1	2	156	13	-1	78	-1	-1	-1
101xaa10	394	0	0	0	5	3	2011-04-17	2011-09-01	DC    	-1	-1	N	-1	-1	-1	-1	-1	-1	2	156	13	-1	79	-1	-1	-1
101xaa10	395	0	0	0	5	3	2011-04-17	2011-09-01	DC    	-1	-1	N	-1	-1	-1	-1	-1	-1	2	156	13	-1	80	-1	-1	-1
101xaa10	396	0	0	0	6	4	2011-04-17	2011-09-01	DC    	-1	-1	N	-1	-1	-1	-1	-1	-1	2	156	13	-1	81	-1	-1	-1
101xaa10	397	0	0	0	4	2	2011-04-17	2011-09-01	DC    	-1	-1	N	-1	-1	-1	-1	-1	-1	2	156	13	-1	82	-1	-1	-1
83aa204	398	Vigorous clone, not the best rooter.	0	0	7	5	2011-04-17	2011-09-01	DC    	-1	-1	N	-1	-1	-1	-1	246	-1	128	2	13	-1	1	-1	-1	-1
83aa204	399	0	0	0	6	5	2011-04-17	2011-09-01	DC    	-1	-1	N	-1	-1	-1	-1	246	-1	128	2	13	-1	2	-1	-1	-1
83aa215	400	Nice, Get 2010 source details	0	0	11	10	2011-04-17	2011-09-01	DC    	-1	12	Y	-1	-1	-1	-1	-1	-1	2	140	13	-1	3	-1	-1	-1
83aa215	401	Nice, Get 2010 source details	0	0	8	6	2011-04-17	2011-09-01	DC    	-1	13	N	-1	-1	-1	-1	-1	-1	2	140	13	-1	4	-1	-1	-1
83aa212	402	Nice, Get 2010 source details	0	0	9	9	2011-04-17	2011-09-01	DC    	-1	10	Y	-1	-1	-1	-1	-1	-1	2	140	13	-1	5	-1	-1	-1
83aa212	403	Nice, Get 2010 source details	0	0	10	9	2011-04-17	2011-09-01	DC    	-1	12	N	-1	-1	-1	-1	-1	-1	2	140	13	-1	6	-1	-1	-1
a502	404	0	0	0	5	3	2011-04-17	2011-09-01	DC    	25	10	Y	-1	-1	-1	-1	-1	-1	11	2	13	-1	7	-1	-1	-1
a502	405	0	0	0	6	3	2011-04-17	2011-09-01	DC    	25	12	N	-1	-1	-1	-1	-1	-1	11	2	13	-1	8	-1	-1	-1
41aa111	406	0	0	0	9	3	2011-04-17	2011-09-01	DC    	25	-1	Y	-1	-1	-1	-1	-1	-1	138	2	13	-1	9	-1	-1	-1
41aa111	407	0	0	0	7	2	2011-04-17	2011-09-01	DC    	25	-1	N	-1	-1	-1	-1	-1	-1	138	2	13	-1	10	-1	-1	-1
83aa217	408	Not good	0	0	8	4	2011-04-17	2011-09-01	DC    	-1	10	N	-1	-1	-1	-1	-1	-1	2	140	13	-1	11	-1	-1	-1
83aa217	409	Not good	0	0	9	5	2011-04-17	2011-09-01	DC    	-1	10	N	-1	-1	-1	-1	-1	-1	2	140	13	-1	12	-1	-1	-1
83aa103	410	Check for spear leaf mutation	0	0	6	3	2011-04-17	2011-09-01	DC    	-1	13	N	-1	-1	-1	-1	-1	-1	115	2	13	-1	13	-1	-1	-1
83aa103	411	Check for spear leaf mutation	0	0	5	4	2011-04-17	2011-09-01	DC    	-1	13	N	-1	-1	-1	-1	-1	-1	115	2	13	-1	14	-1	-1	-1
83aa216	412	Very Nice	0	0	6	5	2011-04-17	2011-09-01	DC    	-1	12	Y	-1	-1	-1	-1	-1	-1	2	140	13	-1	15	-1	-1	-1
83aa216	413	Very Nice	0	0	6	6	2011-04-17	2011-09-01	DC    	-1	16	N	-1	-1	-1	-1	-1	-1	2	140	13	-1	16	-1	-1	-1
nfa	414	northFox alba	0	0	11	7	2011-04-17	2011-09-01	DC    	25	-1	Y	-1	-1	-1	-1	-1	-1	19	2	13	-1	17	-1	-1	-1
nfa	415	northFox alba	0	0	11	8	2011-04-17	2011-09-01	DC    	25	-1	N	-1	-1	-1	-1	-1	-1	19	2	13	-1	18	-1	-1	-1
ebl	416	EastBeltline alba	0	0	11	6	2011-04-17	2011-09-01	DC    	25	-1	Y	-1	-1	-1	-1	-1	-1	8	140	13	-1	19	-1	-1	-1
ebl	417	EastBeltline alba	0	0	11	7	2011-04-17	2011-09-01	DC    	25	-1	N	-1	-1	-1	-1	-1	-1	8	140	13	-1	20	-1	-1	-1
83aa104	418	Selected in 9/2009 for its remarkable growth performance. Compare now	0	0	7	3	2011-04-17	2011-09-01	DC    	-1	19	N	-1	-1	-1	-1	-1	-1	116	2	13	-1	21	-1	-1	-1
83aa104	419	Selected in 9/2009 for its remarkable growth performance. Compare now	0	0	8	4	2011-04-17	2011-09-01	DC    	-1	19	N	-1	-1	-1	-1	-1	-1	116	2	13	-1	22	-1	-1	-1
83aa107	420	Aspen like appearance	0	0	8	4	2011-04-17	2011-09-01	DC    	-1	12	Y	-1	-1	-1	-1	-1	-1	137	2	13	-1	23	-1	-1	-1
83aa107	421	Aspen like appearance	0	0	7	4	2011-04-17	2011-09-01	DC    	-1	12	N	-1	-1	-1	-1	-1	-1	137	2	13	-1	24	-1	-1	-1
83aa204	422	selected for 2012. Vigorous, but a fair rooter	0	0	9	7	2011-04-17	2011-09-01	DC    	-1	12	Y	-1	-1	-1	-1	203	-1	128	2	13	-1	25	-1	-1	-1
83aa204	423	0	0	0	10	6	2011-04-17	2011-09-01	DC    	-1	12	N	-1	-1	-1	-1	203	-1	128	2	13	-1	26	-1	-1	-1
83aa227	424	Nice, Get 2010 source details	0	0	6	5	2011-04-17	2011-09-01	DC    	-1	6	Y	-1	-1	-1	-1	-1	-1	2	140	13	-1	27	-1	-1	-1
83aa227	425	Nice, Get 2010 source details	0	0	5	5	2011-04-17	2011-09-01	DC    	-1	6	N	-1	-1	-1	-1	-1	-1	2	140	13	-1	28	-1	-1	-1
83aa211	426	0	0	0	5	2	2011-04-17	2011-09-01	DC    	-1	-1	N	-1	-1	-1	-1	-1	-1	2	140	13	-1	29	-1	-1	-1
83aa211	427	0	0	0	5	4	2011-04-17	2011-09-01	DC    	-1	-1	N	-1	-1	-1	-1	-1	-1	2	140	13	-1	30	-1	-1	-1
83aa106	428	Selected in 9/2009 for its numerous small side shoots. Are there?	0	0	6	4	2011-04-17	2011-09-01	DC    	-1	-1	N	-1	-1	-1	-1	-1	-1	136	2	13	-1	31	-1	-1	-1
83aa106	429	Selected in 9/2009 for its numerous small side shoots. Are there?	0	0	6	3	2011-04-17	2011-09-01	DC    	-1	-1	N	-1	-1	-1	-1	-1	-1	136	2	13	-1	32	-1	-1	-1
83aa228	430	0	0	0	8	2	2011-04-17	2011-09-01	DC    	-1	-1	N	-1	-1	-1	-1	-1	-1	2	140	13	-1	33	-1	-1	-1
83aa228	431	0	0	0	6	3	2011-04-17	2011-09-01	DC    	-1	-1	N	-1	-1	-1	-1	-1	-1	2	140	13	-1	34	-1	-1	-1
83aa214	432	0	0	0	4	3	2011-04-17	2011-09-01	DC    	-1	-1	N	-1	-1	-1	-1	-1	-1	2	140	13	-1	35	-1	-1	-1
83aa214	433	0	0	0	5	5	2011-04-17	2011-09-01	DC    	-1	-1	N	-1	-1	-1	-1	-1	-1	2	140	13	-1	36	-1	-1	-1
83aa204	434	0	0	0	9	6	2011-04-17	2011-09-01	DC    	-1	-1	N	-1	-1	-1	-1	178	-1	128	2	13	-1	37	-1	-1	-1
83aa204	435	0	0	0	9	3	2011-04-17	2011-09-01	DC    	-1	-1	N	-1	-1	-1	-1	178	-1	128	2	13	-1	38	-1	-1	-1
zoss	436	Get dia and length details	0	0	7	1	2011-04-17	2011-09-01	DC    	-1	-1	Y	-1	-1	-1	-1	-1	-1	157	2	13	-1	39	-1	-1	-1
zoss	437	0	0	0	7	2	2011-04-17	2011-09-01	DC    	-1	-1	N	-1	-1	-1	-1	-1	-1	157	2	13	-1	40	-1	-1	-1
83aa1mf	438	0	0	0	17	3	2011-04-17	2011-09-01	DC    	-1	10	Y	-1	-1	-1	-1	-1	-1	143	2	13	-1	41	-1	-1	-1
83aa1mf	439	0	0	0	17	5	2011-04-17	2011-09-01	DC    	-1	10	N	-1	-1	-1	-1	-1	-1	143	2	13	-1	42	-1	-1	-1
83aa2mf	440	0	0	0	8	5	2011-04-17	2011-09-01	DC    	-1	10	Y	-1	-1	-1	-1	-1	-1	144	2	13	-1	43	-1	-1	-1
83aa2mf	441	0	0	0	8	3	2011-04-17	2011-09-01	DC    	-1	10	N	-1	-1	-1	-1	-1	-1	144	2	13	-1	44	-1	-1	-1
83aa226	442	0	0	0	3	2	2011-04-17	2011-09-01	DC    	-1	-1	N	-1	-1	-1	-1	-1	-1	2	140	13	-1	45	-1	-1	-1
83aa226	443	0	0	0	4	4	2011-04-17	2011-09-01	DC    	-1	-1	N	-1	-1	-1	-1	-1	-1	2	140	13	-1	46	-1	-1	-1
83aa224	444	0	0	0	6	5	2011-04-17	2011-09-01	DC    	-1	-1	N	-1	-1	-1	-1	-1	-1	2	140	13	-1	47	-1	-1	-1
83aa223	445	0	0	0	5	3	2011-04-17	2011-09-01	DC    	-1	-1	N	-1	-1	-1	-1	-1	-1	2	140	13	-1	48	-1	-1	-1
83aa225	446	0	0	0	5	3	2011-04-17	2011-09-01	DC    	-1	-1	N	-1	-1	-1	-1	-1	-1	2	140	13	-1	49	-1	-1	-1
83aa222	447	0	0	0	11	10	2011-04-17	2011-09-01	DC    	-1	-1	N	-1	-1	-1	-1	-1	-1	2	140	13	-1	50	-1	-1	-1
83aa220	448	0	0	0	7	2	2011-04-17	2011-09-01	DC    	-1	-1	N	-1	-1	-1	-1	-1	-1	2	140	13	-1	51	-1	-1	-1
104xaa10	449	0	0	0	6	5	2011-04-25	2011-09-01	DC    	-1	6	N	-1	-1	-1	-1	-1	-1	2	169	13	-1	1	-1	-1	-1
104xaa10	450	0	0	0	11	11	2011-04-25	2011-09-01	DC    	-1	10	Y	-1	-1	-1	-1	-1	-1	2	169	13	-1	2	-1	-1	-1
104xaa10	451	0	0	0	40	10	2011-04-25	2011-09-01	DC    	-1	10	N	-1	-1	-1	-1	-1	-1	2	169	13	-1	3	-1	-1	-1
104xaa10	452	0	0	0	7	7	2011-04-25	2011-09-01	DC    	-1	6	N	-1	-1	-1	-1	-1	-1	2	169	13	-1	4	-1	-1	-1
104xaa10	453	0	0	0	6	6	2011-04-25	2011-09-01	DC    	-1	-1	N	-1	-1	-1	-1	-1	-1	2	169	13	-1	5	-1	-1	-1
104xaa10	454	0	0	0	6	4	2011-04-25	2011-09-01	DC    	-1	-1	N	-1	-1	-1	-1	-1	-1	2	169	13	-1	6	-1	-1	-1
104xaa10	455	0	0	0	6	5	2011-04-25	2011-09-01	DC    	-1	-1	N	-1	-1	-1	-1	-1	-1	2	169	13	-1	7	-1	-1	-1
104xaa10	456	0	0	0	6	6	2011-04-25	2011-09-01	DC    	-1	-1	N	-1	-1	-1	-1	-1	-1	2	169	13	-1	8	-1	-1	-1
104xaa10	457	PRAVL - Stock from Dykema 2010	PRAVL	0	6	6	2011-04-25	2011-09-01	DC    	-1	10	Y	-1	-1	-1	-1	-1	-1	2	169	13	-1	9	-1	-1	-1
104xaa10	458	0	0	0	6	4	2011-04-25	2011-09-01	DC    	-1	-1	N	-1	-1	-1	-1	-1	-1	2	169	13	-1	10	-1	-1	-1
104xaa10	459	0	0	0	6	6	2011-04-25	2011-09-01	DC    	-1	6	Y	-1	-1	-1	-1	-1	-1	2	169	13	-1	11	-1	-1	-1
104xaa10	460	0	0	0	6	5	2011-04-25	2011-09-01	DC    	-1	-1	N	-1	-1	-1	-1	-1	-1	2	169	13	-1	12	-1	-1	-1
104xaa10	461	0	0	0	6	3	2011-04-25	2011-09-01	DC    	-1	-1	N	-1	-1	-1	-1	-1	-1	2	169	13	-1	13	-1	-1	-1
104xaa10	462	0	0	0	6	4	2011-04-25	2011-09-01	DC    	-1	-1	N	-1	-1	-1	-1	-1	-1	2	169	13	-1	14	-1	-1	-1
104xaa10	463	end row	0	0	6	5	2011-04-25	2011-09-01	DC    	-1	10	Y	-1	-1	-1	-1	-1	-1	2	169	13	-1	15	-1	-1	-1
104xaa10	464	begin row (yes, this row is duplicated)	0	0	6	6	2011-04-25	2011-09-01	DC    	-1	-1	N	-1	-1	-1	-1	-1	-1	2	169	13	-1	15	-1	-1	-1
104xaa10	465	0	0	0	7	6	2011-04-25	2011-09-01	DC    	-1	-1	N	-1	-1	-1	-1	-1	-1	2	169	13	-1	16	-1	-1	-1
104xaa10	466	0	0	0	7	4	2011-04-25	2011-09-01	DC    	-1	-1	N	-1	-1	-1	-1	-1	-1	2	169	13	-1	17	-1	-1	-1
104xaa10	467	0	0	0	9	9	2011-04-25	2011-09-01	DC    	-1	11	Y	-1	-1	-1	-1	-1	-1	2	169	13	-1	18	-1	-1	-1
104xaa10	468	0	0	0	6	4	2011-04-25	2011-09-01	DC    	-1	-1	N	-1	-1	-1	-1	-1	-1	2	169	13	-1	19	-1	-1	-1
104xaa10	469	RF	0	0	6	6	2011-04-25	2011-09-01	DC    	-1	12	N	-1	-1	-1	-1	-1	-1	2	169	13	-1	20	-1	-1	-1
104xaa10	470	0	0	0	6	4	2011-04-25	2011-09-01	DC    	-1	-1	N	-1	-1	-1	-1	-1	-1	2	169	13	-1	21	-1	-1	-1
104xaa10	471	0	0	0	6	5	2011-04-25	2011-09-01	DC    	-1	-1	N	-1	-1	-1	-1	-1	-1	2	169	13	-1	22	-1	-1	-1
104xaa10	472	0	0	0	6	5	2011-04-25	2011-09-01	DC    	-1	-1	N	-1	-1	-1	-1	-1	-1	2	169	13	-1	23	-1	-1	-1
104xaa10	473	0	0	0	6	5	2011-04-25	2011-09-01	DC    	-1	-1	N	-1	-1	-1	-1	-1	-1	2	169	13	-1	24	-1	-1	-1
104xaa10	474	0	0	0	6	4	2011-04-25	2011-09-01	DC    	-1	-1	N	-1	-1	-1	-1	-1	-1	2	169	13	-1	25	-1	-1	-1
104xaa10	475	0	0	0	6	6	2011-04-25	2011-09-01	DC    	-1	-1	N	-1	-1	-1	-1	-1	-1	2	169	13	-1	26	-1	-1	-1
104xaa10	476	0	0	0	6	4	2011-04-25	2011-09-01	DC    	-1	-1	N	-1	-1	-1	-1	-1	-1	2	169	13	-1	27	-1	-1	-1
104xaa10	477	0	0	0	6	5	2011-04-25	2011-09-01	DC    	-1	-1	N	-1	-1	-1	-1	-1	-1	2	169	13	-1	28	-1	-1	-1
97xaa10	478	0	0	0	6	2	2011-04-25	2011-09-01	DC    	-1	-1	N	-1	-1	-1	-1	-1	-1	2	159	13	-1	29	-1	-1	-1
97xaa10	479	0	0	0	6	6	2011-04-25	2011-09-01	DC    	-1	9	Y	-1	-1	-1	-1	-1	-1	2	159	13	-1	30	-1	-1	-1
97xaa10	480	0	0	0	6	5	2011-04-25	2011-09-01	DC    	-1	-1	N	-1	-1	-1	-1	-1	-1	2	159	13	-1	31	-1	-1	-1
97xaa10	481	0	0	0	6	4	2011-04-25	2011-09-01	DC    	-1	-1	N	-1	-1	-1	-1	-1	-1	2	159	13	-1	32	-1	-1	-1
97xaa10	482	0	0	0	6	6	2011-04-25	2011-09-01	DC    	-1	-1	N	-1	-1	-1	-1	-1	-1	2	159	13	-1	33	-1	-1	-1
97xaa10	483	0	0	0	6	4	2011-04-25	2011-09-01	DC    	-1	-1	N	-1	-1	-1	-1	-1	-1	2	159	13	-1	34	-1	-1	-1
97xaa10	484	0	0	0	6	3	2011-04-25	2011-09-01	DC    	-1	-1	N	-1	-1	-1	-1	-1	-1	2	159	13	-1	35	-1	-1	-1
97xaa10	485	0	0	0	6	4	2011-04-25	2011-09-01	DC    	-1	-1	N	-1	-1	-1	-1	-1	-1	2	159	13	-1	36	-1	-1	-1
97xaa10	486	0	0	0	6	2	2011-04-25	2011-09-01	DC    	-1	-1	N	-1	-1	-1	-1	-1	-1	2	159	13	-1	37	-1	-1	-1
97xaa10	487	0	0	0	6	5	2011-04-25	2011-09-01	DC    	-1	-1	N	-1	-1	-1	-1	-1	-1	2	159	13	-1	38	-1	-1	-1
97xaa10	488	0	0	0	6	4	2011-04-25	2011-09-01	DC    	-1	-1	N	-1	-1	-1	-1	-1	-1	2	159	13	-1	39	-1	-1	-1
97xaa10	489	0	0	0	6	5	2011-04-25	2011-09-01	DC    	-1	-1	N	-1	-1	-1	-1	-1	-1	2	159	13	-1	40	-1	-1	-1
97xaa10	490	0	0	0	6	4	2011-04-25	2011-09-01	DC    	-1	-1	N	-1	-1	-1	-1	-1	-1	2	159	13	-1	41	-1	-1	-1
97xaa10	491	0	0	0	6	5	2011-04-25	2011-09-01	DC    	-1	-1	N	-1	-1	-1	-1	-1	-1	2	159	13	-1	42	-1	-1	-1
97xaa10	492	end row	0	0	6	6	2011-04-25	2011-09-01	DC    	-1	-1	N	-1	-1	-1	-1	-1	-1	2	159	13	-1	43	-1	-1	-1
97xaa10	493	begin row	0	0	5	4	2011-04-25	2011-09-01	DC    	-1	-1	N	-1	-1	-1	-1	-1	-1	2	159	13	-1	44	-1	-1	-1
97xaa10	494	0	0	0	6	6	2011-04-25	2011-09-01	DC    	-1	12	Y	-1	-1	-1	-1	-1	-1	2	159	13	-1	45	-1	-1	-1
97xaa10	495	0	0	0	6	3	2011-04-25	2011-09-01	DC    	-1	-1	N	-1	-1	-1	-1	-1	-1	2	159	13	-1	46	-1	-1	-1
97xaa10	496	0	0	0	5	4	2011-04-25	2011-09-01	DC    	-1	-1	N	-1	-1	-1	-1	-1	-1	2	159	13	-1	47	-1	-1	-1
97xaa10	497	0	0	0	6	4	2011-04-25	2011-09-01	DC    	-1	-1	N	-1	-1	-1	-1	-1	-1	2	159	13	-1	48	-1	-1	-1
97xaa10	498	0	0	0	6	1	2011-04-25	2011-09-01	DC    	-1	-1	N	-1	-1	-1	-1	-1	-1	2	159	13	-1	49	-1	-1	-1
97xaa10	499	0	0	0	7	7	2011-04-25	2011-09-01	DC    	-1	-1	N	-1	-1	-1	-1	-1	-1	2	159	13	-1	50	-1	-1	-1
97xaa10	500	0	0	0	6	5	2011-04-25	2011-09-01	DC    	-1	-1	N	-1	-1	-1	-1	-1	-1	2	159	13	-1	51	-1	-1	-1
97xaa10	501	0	0	0	6	3	2011-04-25	2011-09-01	DC    	-1	-1	N	-1	-1	-1	-1	-1	-1	2	159	13	-1	52	-1	-1	-1
97xaa10	502	0	0	0	6	6	2011-04-25	2011-09-01	DC    	-1	7	Y	-1	-1	-1	-1	-1	-1	2	159	13	-1	53	-1	-1	-1
97xaa10	503	0	0	0	6	6	2011-04-25	2011-09-01	DC    	-1	-1	N	-1	-1	-1	-1	-1	-1	2	159	13	-1	54	-1	-1	-1
97xaa10	504	0	0	0	6	6	2011-04-25	2011-09-01	DC    	-1	-1	N	-1	-1	-1	-1	-1	-1	2	159	13	-1	55	-1	-1	-1
97xaa10	505	0	0	0	6	4	2011-04-25	2011-09-01	DC    	-1	-1	N	-1	-1	-1	-1	-1	-1	2	159	13	-1	56	-1	-1	-1
97xaa10	506	0	0	0	6	6	2011-04-25	2011-09-01	DC    	-1	-1	N	-1	-1	-1	-1	-1	-1	2	159	13	-1	57	-1	-1	-1
40aa6mf	507	0	0	0	10	1	2011-04-25	2011-09-01	DC    	-1	-1	Y	-1	-1	-1	-1	-1	-1	140	2	13	-1	58	-1	-1	-1
40aa6mf	508	0	0	0	9	1	2011-04-25	2011-09-01	DC    	-1	-1	N	-1	-1	-1	-1	-1	-1	140	2	13	-1	59	-1	-1	-1
98xaa10	509	0	0	0	6	6	2011-04-25	2011-09-01	DC    	-1	-1	N	-1	-1	-1	-1	-1	-1	2	155	13	-1	60	-1	-1	-1
98xaa10	510	0	0	0	6	3	2011-04-25	2011-09-01	DC    	-1	-1	N	-1	-1	-1	-1	-1	-1	2	155	13	-1	61	-1	-1	-1
98xaa10	511	0	0	0	6	4	2011-04-25	2011-09-01	DC    	-1	-1	N	-1	-1	-1	-1	-1	-1	2	155	13	-1	62	-1	-1	-1
98xaa10	512	0	0	0	5	5	2011-04-25	2011-09-01	DC    	-1	5	N	-1	-1	-1	-1	-1	-1	2	155	13	-1	63	-1	-1	-1
98xaa10	513	0	0	0	6	5	2011-04-25	2011-09-01	DC    	-1	-1	N	-1	-1	-1	-1	-1	-1	2	155	13	-1	64	-1	-1	-1
98xaa10	514	0	0	0	6	5	2011-04-25	2011-09-01	DC    	-1	12	N	-1	-1	-1	-1	-1	-1	2	155	13	-1	65	-1	-1	-1
98xaa10	515	0	0	0	8	7	2011-04-25	2011-09-01	DC    	-1	-1	N	-1	-1	-1	-1	-1	-1	2	155	13	-1	66	-1	-1	-1
98xaa10	516	0	0	0	6	6	2011-04-25	2011-09-01	DC    	-1	5	N	-1	-1	-1	-1	-1	-1	2	155	13	-1	67	-1	-1	-1
98xaa10	517	0	0	0	6	6	2011-04-25	2011-09-01	DC    	-1	-1	N	-1	-1	-1	-1	-1	-1	2	155	13	-1	68	-1	-1	-1
100aa01	518	Cuttings from selected SASP 2010 1-0 stock. 	0	0	19	13	2011-04-25	2011-09-01	DC    	-1	8	Y	-1	-1	-1	-1	-1	-1	153	2	13	-1	1	-1	-1	-1
100aa01	519	Cuttings from selected SASP 2010 1-0 stock. Why North row 100%	0	0	19	19	2011-04-25	2011-09-01	DC    	-1	8	N	-1	-1	-1	-1	-1	-1	153	2	13	-1	2	-1	-1	-1
100aa02	520	Cuttings from selected SASP 2010 1-0 stock. 	0	0	13	11	2011-04-25	2011-09-01	DC    	-1	8	Y	-1	-1	-1	-1	-1	-1	154	2	13	-1	3	-1	-1	-1
100aa02	521	Cuttings from selected SASP 2010 1-0 stock. Why North row 100%	0	0	11	11	2011-04-25	2011-09-01	DC    	-1	8	N	-1	-1	-1	-1	-1	-1	154	2	13	-1	4	-1	-1	-1
100aa03	522	Cuttings from selected SASP 2010 1-0 stock. Best of 4 clones?	0	0	13	8	2011-04-25	2011-09-01	DC    	-1	8	Y	-1	-1	-1	-1	-1	-1	155	2	13	-1	5	-1	-1	-1
100aa03	523	Cuttings from selected SASP 2010 1-0 stock. Why North row ~100%	0	0	14	13	2011-04-25	2011-09-01	DC    	-1	8	N	-1	-1	-1	-1	-1	-1	155	2	13	-1	6	-1	-1	-1
100aa04	524	Cuttings from selected SASP 2010 1-0 stock. 	0	0	12	10	2011-04-25	2011-09-01	DC    	-1	8	Y	-1	-1	-1	-1	-1	-1	156	2	13	-1	7	-1	-1	-1
100aa04	525	Cuttings from selected SASP 2010 1-0 stock. 	0	0	12	8	2011-04-25	2011-09-01	DC    	-1	8	N	-1	-1	-1	-1	-1	-1	156	2	13	-1	8	-1	-1	-1
100xaa10	526	Cutting stock from Bell 2010 nursery	0	0	6	4	2011-04-25	2011-09-01	DC    	-1	-1	N	-1	-1	-1	-1	-1	-1	2	158	13	-1	9	-1	-1	-1
100xaa10	527	Cutting stock from Bell 2010 nursery	0	0	6	3	2011-04-25	2011-09-01	DC    	-1	-1	N	-1	-1	-1	-1	-1	-1	2	158	13	-1	10	-1	-1	-1
100xaa10	528	Cutting stock from Bell 2010 nursery	0	0	5	3	2011-04-25	2011-09-01	DC    	-1	0	N	-1	-1	-1	-1	-1	-1	2	158	13	-1	11	-1	-1	-1
100xaa10	529	Cutting stock from Bell 2010 nursery	0	0	6	3	2011-04-25	2011-09-01	DC    	-1	1	N	-1	-1	-1	-1	-1	-1	2	158	13	-1	12	-1	-1	-1
100xaa10	530	Cutting stock from Bell 2010 nursery	0	0	6	3	2011-04-25	2011-09-01	DC    	-1	2	N	-1	-1	-1	-1	-1	-1	2	158	13	-1	13	-1	-1	-1
100xaa10	531	Cutting stock from Bell 2010 nursery	0	0	6	4	2011-04-25	2011-09-01	DC    	-1	3	N	-1	-1	-1	-1	-1	-1	2	158	13	-1	14	-1	-1	-1
100xaa10	532	Cutting stock from Bell 2010 nursery (end row)	0	0	6	2	2011-04-25	2011-09-01	DC    	-1	4	N	-1	-1	-1	-1	-1	-1	2	158	13	-1	15	-1	-1	-1
100xaa10	533	Cutting stock from Bell 2010 nursery (begin row)	0	0	6	2	2011-04-25	2011-09-01	DC    	-1	5	N	-1	-1	-1	-1	-1	-1	2	158	13	-1	16	-1	-1	-1
100xaa10	534	Cutting stock from Bell 2010 nursery	0	0	6	4	2011-04-25	2011-09-01	DC    	-1	6	N	-1	-1	-1	-1	-1	-1	2	158	13	-1	17	-1	-1	-1
100xaa10	535	Cutting stock from Bell 2010 nursery PRAVL	0	0	6	6	2011-04-25	2011-09-01	DC    	-1	12	N	-1	-1	-1	-1	-1	-1	2	158	13	-1	18	-1	-1	-1
100xaa10	536	Cutting stock from Bell 2010 nursery	0	0	6	5	2011-04-25	2011-09-01	DC    	-1	-1	N	-1	-1	-1	-1	-1	-1	2	158	13	-1	19	-1	-1	-1
100xaa10	537	Cutting stock from Bell 2010 nursery	0	0	4	2	2011-04-25	2011-09-01	DC    	-1	-1	N	-1	-1	-1	-1	-1	-1	2	158	13	-1	20	-1	-1	-1
100xaa10	538	Cutting stock from Bell 2010 nursery	0	0	4	3	2011-04-25	2011-09-01	DC    	-1	-1	N	-1	-1	-1	-1	-1	-1	2	158	13	-1	21	-1	-1	-1
100xaa10	539	Cutting stock from Bell 2010 nursery	0	0	4	4	2011-04-25	2011-09-01	DC    	-1	4	N	-1	-1	-1	-1	-1	-1	2	158	13	-1	22	-1	-1	-1
100xaa10	540	Cutting stock from Bell 2010 nursery	0	0	6	5	2011-04-25	2011-09-01	DC    	-1	-1	N	-1	-1	-1	-1	-1	-1	2	158	13	-1	23	-1	-1	-1
83aa218	541	Nice, Get 2010 source details	0	0	9	9	2011-04-25	2011-09-01	DC    	-1	13	Y	-1	-1	-1	-1	-1	-1	2	140	13	-1	24	-1	-1	-1
83aa218	542	Nice, Get 2010 source details	0	0	8	5	2011-04-25	2011-09-01	DC    	-1	10	N	-1	-1	-1	-1	-1	-1	2	140	13	-1	25	-1	-1	-1
83aa203	543	0	0	0	4	3	2011-04-25	2011-09-01	DC    	-1	-1	N	-1	-1	-1	-1	-1	-1	127	2	13	-1	26	-1	-1	-1
83aa203	544	0	0	0	4	3	2011-04-25	2011-09-01	DC    	-1	-1	N	-1	-1	-1	-1	-1	-1	127	2	13	-1	27	-1	-1	-1
83aa209	545	0	0	0	7	5	2011-04-25	2011-09-01	DC    	-1	-1	N	-1	-1	-1	-1	-1	-1	131	2	13	-1	28	-1	-1	-1
83aa209	546	0	0	0	7	2	2011-04-25	2011-09-01	DC    	-1	-1	N	-1	-1	-1	-1	-1	-1	131	2	13	-1	29	-1	-1	-1
83aa207	547	0	0	0	5	3	2011-04-25	2011-09-01	DC    	-1	-1	N	-1	-1	-1	-1	-1	-1	2	140	13	-1	30	-1	-1	-1
83aa207	548	0	0	0	5	1	2011-04-25	2011-09-01	DC    	-1	-1	N	-1	-1	-1	-1	-1	-1	2	140	13	-1	31	-1	-1	-1
83aa206	549	0	0	0	8	6	2011-04-25	2011-09-01	DC    	-1	10	Y	-1	-1	-1	-1	170	-1	129	2	13	-1	32	-1	-1	-1
83aa206	550	0	0	0	9	4	2011-04-25	2011-09-01	DC    	-1	6	N	-1	-1	-1	-1	170	-1	129	2	13	-1	33	-1	-1	-1
83aa203	551	0	0	0	7	5	2011-04-25	2011-09-01	DC    	-1	-1	N	-1	-1	-1	-1	-1	-1	127	2	13	-1	34	-1	-1	-1
83aa203	552	0	0	0	6	3	2011-04-25	2011-09-01	DC    	-1	-1	N	-1	-1	-1	-1	-1	-1	127	2	13	-1	35	-1	-1	-1
83aa226	553	0	0	0	3	1	2011-04-25	2011-09-01	DC    	-1	-1	N	-1	-1	-1	-1	-1	-1	2	140	13	-1	36	-1	-1	-1
83aa226	554	0	0	0	4	4	2011-04-25	2011-09-01	DC    	-1	-1	N	-1	-1	-1	-1	-1	-1	2	140	13	-1	37	-1	-1	-1
83aa206	555	0	0	0	5	5	2011-04-25	2011-09-01	DC    	-1	12	N	-1	-1	-1	-1	170	-1	129	2	13	-1	38	-1	-1	-1
83aa206	556	0	0	0	6	6	2011-04-25	2011-09-01	DC    	-1	10	N	-1	-1	-1	-1	170	-1	129	2	13	-1	39	-1	-1	-1
83aa213	557	0	0	0	7	7	2011-04-25	2011-09-01	DC    	-1	-1	N	-1	-1	-1	-1	-1	-1	2	140	13	-1	40	-1	-1	-1
83aa213	558	0	0	0	6	5	2011-04-25	2011-09-01	DC    	-1	-1	N	-1	-1	-1	-1	-1	-1	2	140	13	-1	41	-1	-1	-1
101xaa10	559	0	0	0	5	4	2011-04-25	2011-09-01	DC    	-1	-1	N	-1	-1	-1	-1	-1	-1	2	156	13	-1	42	-1	-1	-1
101xaa10	560	0	0	0	5	5	2011-04-25	2011-09-01	DC    	-1	5	Y	-1	-1	-1	-1	-1	-1	2	156	13	-1	43	-1	-1	-1
101xaa10	561	0	0	0	6	6	2011-04-25	2011-09-01	DC    	-1	5	Y	-1	-1	-1	-1	-1	-1	2	156	13	-1	44	-1	-1	-1
101xaa10	562	0	0	0	5	5	2011-04-25	2011-09-01	DC    	-1	-1	N	-1	-1	-1	-1	-1	-1	2	156	13	-1	45	-1	-1	-1
101xaa10	563	0	0	0	6	4	2011-04-25	2011-09-01	DC    	-1	-1	N	-1	-1	-1	-1	-1	-1	2	156	13	-1	46	-1	-1	-1
101xaa10	564	0	0	0	6	6	2011-04-25	2011-09-01	DC    	-1	5	Y	-1	-1	-1	-1	-1	-1	2	156	13	-1	47	-1	-1	-1
101xaa10	565	0	0	0	5	5	2011-04-25	2011-09-01	DC    	-1	4	Y	-1	-1	-1	-1	-1	-1	2	156	13	-1	48	-1	-1	-1
101xaa10	566	0	0	0	6	4	2011-04-25	2011-09-01	DC    	-1	-1	N	-1	-1	-1	-1	-1	-1	2	156	13	-1	49	-1	-1	-1
101xaa10	567	0	0	0	4	4	2011-04-25	2011-09-01	DC    	-1	-1	N	-1	-1	-1	-1	-1	-1	2	156	13	-1	50	-1	-1	-1
101xaa10	568	end row	0	0	5	4	2011-04-25	2011-09-01	DC    	-1	-1	N	-1	-1	-1	-1	-1	-1	2	156	13	-1	51	-1	-1	-1
101xaa10	569	begin row	0	0	6	5	2011-04-25	2011-09-01	DC    	-1	-1	N	-1	-1	-1	-1	-1	-1	2	156	13	-1	52	-1	-1	-1
101xaa10	570	0	0	0	4	2	2011-04-25	2011-09-01	DC    	-1	-1	N	-1	-1	-1	-1	-1	-1	2	156	13	-1	53	-1	-1	-1
101xaa10	571	0	0	0	6	4	2011-04-25	2011-09-01	DC    	-1	-1	N	-1	-1	-1	-1	-1	-1	2	156	13	-1	54	-1	-1	-1
101xaa10	572	0	0	0	5	3	2011-04-25	2011-09-01	DC    	-1	-1	N	-1	-1	-1	-1	-1	-1	2	156	13	-1	55	-1	-1	-1
101xaa10	573	0	0	0	6	5	2011-04-25	2011-09-01	DC    	-1	-1	N	-1	-1	-1	-1	-1	-1	2	156	13	-1	56	-1	-1	-1
101xaa10	574	0	0	0	4	4	2011-04-25	2011-09-01	DC    	-1	-1	N	-1	-1	-1	-1	-1	-1	2	156	13	-1	57	-1	-1	-1
101xaa10	575	0	0	0	5	4	2011-04-25	2011-09-01	DC    	-1	-1	N	-1	-1	-1	-1	-1	-1	2	156	13	-1	58	-1	-1	-1
101xaa10	576	0	0	0	5	5	2011-04-25	2011-09-01	DC    	-1	-1	N	-1	-1	-1	-1	-1	-1	2	156	13	-1	59	-1	-1	-1
101xaa10	577	0	0	0	4	4	2011-04-25	2011-09-01	DC    	-1	-1	N	-1	-1	-1	-1	-1	-1	2	156	13	-1	60	-1	-1	-1
101xaa10	578	0	0	0	1	1	2011-04-25	2011-09-01	DC    	-1	-1	N	-1	-1	-1	-1	-1	-1	2	156	13	-1	61	-1	-1	-1
83aa204	579	Cutting stock was 6 with 1 stubby root section. Intended as a 1yr stool.	0	0	4	4	2011-04-25	2011-09-01	DC    	-1	-1	N	-1	-1	-1	-1	-1	-1	128	2	13	-1	62	-1	-1	-1
98xaa10	580	0	0	0	6	5	2011-04-25	2011-09-01	DC    	-1	-1	N	-1	-1	-1	-1	-1	-1	2	155	13	-1	1	-1	-1	-1
98xaa10	581	0	0	0	5	4	2011-04-25	2011-09-01	DC    	-1	-1	N	-1	-1	-1	-1	-1	-1	2	155	13	-1	2	-1	-1	-1
98xaa10	582	0	0	0	6	6	2011-04-25	2011-09-01	DC    	-1	4	Y	-1	-1	-1	-1	-1	-1	2	155	13	-1	3	-1	-1	-1
98xaa10	583	0	0	0	5	4	2011-04-25	2011-09-01	DC    	-1	-1	N	-1	-1	-1	-1	-1	-1	2	155	13	-1	4	-1	-1	-1
98xaa10	584	0	0	0	6	6	2011-04-25	2011-09-01	DC    	-1	-1	N	-1	-1	-1	-1	-1	-1	2	155	13	-1	5	-1	-1	-1
98xaa10	585	0	0	0	6	4	2011-04-25	2011-09-01	DC    	-1	5	Y	-1	-1	-1	-1	-1	-1	2	155	13	-1	6	-1	-1	-1
98xaa10	586	0	0	0	5	4	2011-04-25	2011-09-01	DC    	-1	-1	N	-1	-1	-1	-1	-1	-1	2	155	13	-1	7	-1	-1	-1
98xaa10	587	0	0	0	5	5	2011-04-25	2011-09-01	DC    	-1	-1	N	-1	-1	-1	-1	-1	-1	2	155	13	-1	8	-1	-1	-1
98xaa10	588	0	0	0	6	5	2011-04-25	2011-09-01	DC    	-1	-1	N	-1	-1	-1	-1	-1	-1	2	155	13	-1	9	-1	-1	-1
98xaa10	589	end row	0	0	5	4	2011-04-25	2011-09-01	DC    	-1	4	Y	-1	-1	-1	-1	-1	-1	2	155	13	-1	10	-1	-1	-1
98xaa10	590	begin row	0	0	6	4	2011-04-25	2011-09-01	DC    	-1	-1	N	-1	-1	-1	-1	-1	-1	2	155	13	-1	11	-1	-1	-1
98xaa10	591	0	0	0	6	6	2011-04-25	2011-09-01	DC    	-1	5	Y	-1	-1	-1	-1	-1	-1	2	155	13	-1	12	-1	-1	-1
98xaa10	592	0	0	0	5	5	2011-04-25	2011-09-01	DC    	-1	6	Y	-1	-1	-1	-1	-1	-1	2	155	13	-1	13	-1	-1	-1
98xaa10	593	0	0	0	6	6	2011-04-25	2011-09-01	DC    	-1	-1	N	-1	-1	-1	-1	-1	-1	2	155	13	-1	14	-1	-1	-1
98xaa10	594	0	0	0	5	5	2011-04-25	2011-09-01	DC    	-1	-1	N	-1	-1	-1	-1	-1	-1	2	155	13	-1	15	-1	-1	-1
98xaa10	595	0	0	0	5	5	2011-04-25	2011-09-01	DC    	-1	4	Y	-1	-1	-1	-1	-1	-1	2	155	13	-1	16	-1	-1	-1
98xaa10	596	0	0	0	6	5	2011-04-25	2011-09-01	DC    	-1	-1	N	-1	-1	-1	-1	-1	-1	2	155	13	-1	17	-1	-1	-1
98xaa10	597	0	0	0	5	5	2011-04-25	2011-09-01	DC    	-1	-1	N	-1	-1	-1	-1	-1	-1	2	155	13	-1	18	-1	-1	-1
98xaa10	598	0	0	0	6	5	2011-04-25	2011-09-01	DC    	-1	-1	N	-1	-1	-1	-1	-1	-1	2	155	13	-1	19	-1	-1	-1
98xaa10	599	0	0	0	5	5	2011-04-25	2011-09-01	DC    	-1	4	Y	-1	-1	-1	-1	-1	-1	2	155	13	-1	20	-1	-1	-1
98xaa10	600	0	0	0	5	5	2011-04-25	2011-09-01	DC    	-1	-1	N	-1	-1	-1	-1	-1	-1	2	155	13	-1	21	-1	-1	-1
90xaa10	601	0	0	0	6	5	2011-04-25	2011-09-01	DC    	-1	13	Y	-1	-1	-1	-1	-1	-1	2	165	13	-1	22	-1	-1	-1
90xaa10	602	0	0	0	6	5	2011-04-25	2011-09-01	DC    	-1	-1	N	-1	-1	-1	-1	-1	-1	2	165	13	-1	23	-1	-1	-1
90xaa10	603	0	0	0	5	5	2011-04-25	2011-09-01	DC    	-1	-1	N	-1	-1	-1	-1	-1	-1	2	165	13	-1	24	-1	-1	-1
90xaa10	604	0	0	0	6	2	2011-04-25	2011-09-01	DC    	-1	-1	N	-1	-1	-1	-1	-1	-1	2	165	13	-1	25	-1	-1	-1
90xaa10	605	0	0	0	6	4	2011-04-25	2011-09-01	DC    	-1	-1	N	-1	-1	-1	-1	-1	-1	2	165	13	-1	26	-1	-1	-1
90xaa10	606	0	0	0	6	6	2011-04-25	2011-09-01	DC    	-1	12	Y	-1	-1	-1	-1	-1	-1	2	165	13	-1	27	-1	-1	-1
90xaa10	607	0	0	0	6	6	2011-04-25	2011-09-01	DC    	-1	7	N	-1	-1	-1	-1	-1	-1	2	165	13	-1	28	-1	-1	-1
90xaa10	608	0	0	0	6	4	2011-04-25	2011-09-01	DC    	-1	-1	N	-1	-1	-1	-1	-1	-1	2	165	13	-1	29	-1	-1	-1
90xaa10	609	0	0	0	6	4	2011-04-25	2011-09-01	DC    	-1	12	Y	-1	-1	-1	-1	-1	-1	2	165	13	-1	30	-1	-1	-1
90xaa10	610	0	0	0	6	3	2011-04-25	2011-09-01	DC    	-1	-1	N	-1	-1	-1	-1	-1	-1	2	165	13	-1	31	-1	-1	-1
90xaa10	611	0	0	0	6	3	2011-04-25	2011-09-01	DC    	-1	-1	N	-1	-1	-1	-1	-1	-1	2	165	13	-1	32	-1	-1	-1
90xaa10	612	0	0	0	6	4	2011-04-25	2011-09-01	DC    	-1	-1	N	-1	-1	-1	-1	-1	-1	2	165	13	-1	33	-1	-1	-1
90xaa10	613	0	0	0	6	4	2011-04-25	2011-09-01	DC    	-1	-1	N	-1	-1	-1	-1	-1	-1	2	165	13	-1	34	-1	-1	-1
90xaa10	614	end row	0	0	6	5	2011-04-25	2011-09-01	DC    	-1	-1	N	-1	-1	-1	-1	-1	-1	2	165	13	-1	35	-1	-1	-1
90xaa10	615	begin row	0	0	6	6	2011-04-25	2011-09-01	DC    	-1	-1	N	-1	-1	-1	-1	-1	-1	2	165	13	-1	36	-1	-1	-1
90xaa10	616	0	0	0	6	4	2011-04-25	2011-09-01	DC    	-1	-1	N	-1	-1	-1	-1	-1	-1	2	165	13	-1	37	-1	-1	-1
90xaa10	617	0	0	0	6	4	2011-04-25	2011-09-01	DC    	-1	5	Y	-1	-1	-1	-1	-1	-1	2	165	13	-1	38	-1	-1	-1
90xaa10	618	0	0	0	6	5	2011-04-25	2011-09-01	DC    	-1	5	Y	-1	-1	-1	-1	-1	-1	2	165	13	-1	39	-1	-1	-1
90xaa10	619	0	0	0	6	6	2011-04-25	2011-09-01	DC    	-1	-1	N	-1	-1	-1	-1	-1	-1	2	165	13	-1	40	-1	-1	-1
90xaa10	620	0	0	0	6	6	2011-04-25	2011-09-01	DC    	-1	8	Y	-1	-1	-1	-1	-1	-1	2	165	13	-1	41	-1	-1	-1
90xaa10	621	0	0	0	6	5	2011-04-25	2011-09-01	DC    	-1	-1	N	-1	-1	-1	-1	-1	-1	2	165	13	-1	42	-1	-1	-1
90xaa10	622	0	0	0	6	4	2011-04-25	2011-09-01	DC    	-1	-1	N	-1	-1	-1	-1	-1	-1	2	165	13	-1	43	-1	-1	-1
90xaa10	623	0	0	0	6	4	2011-04-25	2011-09-01	DC    	-1	-1	N	-1	-1	-1	-1	-1	-1	2	165	13	-1	44	-1	-1	-1
90xaa10	624	0	0	0	6	5	2011-04-25	2011-09-01	DC    	-1	-1	N	-1	-1	-1	-1	-1	-1	2	165	13	-1	45	-1	-1	-1
90xaa10	625	0	0	0	6	4	2011-04-25	2011-09-01	DC    	-1	-1	N	-1	-1	-1	-1	-1	-1	2	165	13	-1	46	-1	-1	-1
90xaa10	626	0	0	0	6	5	2011-04-25	2011-09-01	DC    	-1	-1	N	-1	-1	-1	-1	-1	-1	2	165	13	-1	47	-1	-1	-1
90xaa10	627	0	0	0	6	6	2011-04-25	2011-09-01	DC    	-1	8	Y	-1	-1	-1	-1	-1	-1	2	165	13	-1	48	-1	-1	-1
90xaa10	628	0	0	0	6	6	2011-04-25	2011-09-01	DC    	-1	9	Y	-1	-1	-1	-1	-1	-1	2	165	13	-1	49	-1	-1	-1
90xaa10	629	0	0	0	6	4	2011-04-25	2011-09-01	DC    	-1	-1	N	-1	-1	-1	-1	-1	-1	2	165	13	-1	50	-1	-1	-1
86xaa10	630	0	0	0	6	6	2011-04-25	2011-09-01	DC    	-1	10	N	-1	-1	-1	-1	-1	-1	2	167	13	-1	51	-1	-1	-1
86xaa10	631	0	0	0	6	6	2011-04-25	2011-09-01	DC    	-1	-1	N	-1	-1	-1	-1	-1	-1	2	167	13	-1	52	-1	-1	-1
86xaa10	632	0	0	0	5	4	2011-04-25	2011-09-01	DC    	-1	-1	N	-1	-1	-1	-1	-1	-1	2	167	13	-1	53	-1	-1	-1
86xaa10	633	0	0	0	6	5	2011-04-25	2011-09-01	DC    	-1	6	N	-1	-1	-1	-1	-1	-1	2	167	13	-1	54	-1	-1	-1
86xaa10	634	0	0	0	5	4	2011-04-25	2011-09-01	DC    	-1	6	N	-1	-1	-1	-1	-1	-1	2	167	13	-1	55	-1	-1	-1
86xaa10	635	0	0	0	6	6	2011-04-25	2011-09-01	DC    	-1	-1	N	-1	-1	-1	-1	-1	-1	2	167	13	-1	56	-1	-1	-1
86xaa10	636	0	0	0	5	6	2011-04-25	2011-09-01	DC    	-1	12	N	-1	-1	-1	-1	-1	-1	2	167	13	-1	57	-1	-1	-1
86xaa10	637	0	0	0	6	4	2011-04-25	2011-09-01	DC    	-1	-1	N	-1	-1	-1	-1	-1	-1	2	167	13	-1	58	-1	-1	-1
86xaa10	638	end row	0	0	5	4	2011-04-25	2011-09-01	DC    	-1	-1	N	-1	-1	-1	-1	-1	-1	2	167	13	-1	59	-1	-1	-1
86xaa10	639	begin row	0	0	6	5	2011-04-25	2011-09-01	DC    	-1	-1	N	-1	-1	-1	-1	-1	-1	2	167	13	-1	60	-1	-1	-1
86xaa10	640	0	0	0	6	4	2011-04-25	2011-09-01	DC    	-1	-1	N	-1	-1	-1	-1	-1	-1	2	167	13	-1	61	-1	-1	-1
86xaa10	641	First Tree is vigorous	0	0	6	5	2011-04-25	2011-09-01	DC    	-1	8	N	-1	-1	-1	-1	-1	-1	2	167	13	-1	62	-1	-1	-1
86xaa10	642	0	0	0	5	5	2011-04-25	2011-09-01	DC    	-1	-1	N	-1	-1	-1	-1	-1	-1	2	167	13	-1	63	-1	-1	-1
86xaa10	643	0	0	0	6	3	2011-04-25	2011-09-01	DC    	-1	-1	N	-1	-1	-1	-1	-1	-1	2	167	13	-1	64	-1	-1	-1
86xaa10	644	0	0	0	6	4	2011-04-25	2011-09-01	DC    	-1	-1	N	-1	-1	-1	-1	-1	-1	2	167	13	-1	65	-1	-1	-1
86xaa10	645	0	0	0	6	5	2011-04-25	2011-09-01	DC    	-1	-1	N	-1	-1	-1	-1	-1	-1	2	167	13	-1	66	-1	-1	-1
86xaa10	646	0	0	0	6	5	2011-04-25	2011-09-01	DC    	-1	-1	N	-1	-1	-1	-1	-1	-1	2	167	13	-1	67	-1	-1	-1
86xaa10	647	0	0	0	5	2	2011-04-25	2011-09-01	DC    	-1	-1	N	-1	-1	-1	-1	-1	-1	2	167	13	-1	68	-1	-1	-1
93xaa10	648	0	0	0	6	6	2011-05-06	2011-09-01	DC    	-1	-1	N	-1	-1	-1	-1	-1	-1	2	166	13	-1	1	-1	-1	-1
93xaa10	649	0	0	0	6	6	2011-05-06	2011-09-01	DC    	-1	-1	N	-1	-1	-1	-1	-1	-1	2	166	13	-1	2	-1	-1	-1
93xaa10	650	0	0	0	6	3	2011-05-06	2011-09-01	DC    	-1	-1	N	-1	-1	-1	-1	-1	-1	2	166	13	-1	3	-1	-1	-1
93xaa10	651	0	0	0	6	6	2011-05-06	2011-09-01	DC    	-1	-1	N	-1	-1	-1	-1	-1	-1	2	166	13	-1	4	-1	-1	-1
93xaa10	652	0	0	0	6	6	2011-05-06	2011-09-01	DC    	-1	-1	N	-1	-1	-1	-1	-1	-1	2	166	13	-1	5	-1	-1	-1
93xaa10	653	0	0	0	6	6	2011-05-06	2011-09-01	DC    	-1	-1	N	-1	-1	-1	-1	-1	-1	2	166	13	-1	6	-1	-1	-1
93xaa10	654	0	0	0	6	5	2011-05-06	2011-09-01	DC    	-1	-1	N	-1	-1	-1	-1	-1	-1	2	166	13	-1	7	-1	-1	-1
93xaa10	655	0	0	0	6	5	2011-05-06	2011-09-01	DC    	-1	12	Y	-1	-1	-1	-1	-1	-1	2	166	13	-1	8	-1	-1	-1
93xaa10	656	0	0	0	5	4	2011-05-06	2011-09-01	DC    	-1	-1	N	-1	-1	-1	-1	-1	-1	2	166	13	-1	9	-1	-1	-1
93xaa10	657	0	0	0	6	5	2011-05-06	2011-09-01	DC    	-1	8	Y	-1	-1	-1	-1	-1	-1	2	166	13	-1	10	-1	-1	-1
93xaa10	658	0	0	0	6	3	2011-05-06	2011-09-01	DC    	-1	-1	N	-1	-1	-1	-1	-1	-1	2	166	13	-1	11	-1	-1	-1
93xaa10	659	0	0	0	6	5	2011-05-06	2011-09-01	DC    	-1	6	Y	-1	-1	-1	-1	-1	-1	2	166	13	-1	12	-1	-1	-1
93xaa10	660	0	0	0	6	6	2011-05-06	2011-09-01	DC    	-1	-1	N	-1	-1	-1	-1	-1	-1	2	166	13	-1	13	-1	-1	-1
93xaa10	661	0	0	0	6	5	2011-05-06	2011-09-01	DC    	-1	-1	N	-1	-1	-1	-1	-1	-1	2	166	13	-1	14	-1	-1	-1
93xaa10	662	end row	0	0	6	3	2011-05-06	2011-09-01	DC    	-1	-1	N	-1	-1	-1	-1	-1	-1	2	166	13	-1	15	-1	-1	-1
93xaa10	663	begin row	0	0	6	3	2011-05-06	2011-09-01	DC    	-1	-1	N	-1	-1	-1	-1	-1	-1	2	166	13	-1	16	-1	-1	-1
93xaa10	664	0	0	0	6	4	2011-05-06	2011-09-01	DC    	-1	-1	N	-1	-1	-1	-1	-1	-1	2	166	13	-1	17	-1	-1	-1
93xaa10	665	0	0	0	6	3	2011-05-06	2011-09-01	DC    	-1	-1	N	-1	-1	-1	-1	-1	-1	2	166	13	-1	18	-1	-1	-1
93xaa10	666	0	0	0	6	6	2011-05-06	2011-09-01	DC    	-1	-1	N	-1	-1	-1	-1	-1	-1	2	166	13	-1	19	-1	-1	-1
93xaa10	667	0	0	0	6	3	2011-05-06	2011-09-01	DC    	-1	-1	N	-1	-1	-1	-1	-1	-1	2	166	13	-1	20	-1	-1	-1
93xaa10	668	0	0	0	6	3	2011-05-06	2011-09-01	DC    	-1	-1	N	-1	-1	-1	-1	-1	-1	2	166	13	-1	21	-1	-1	-1
93xaa10	669	0	0	0	6	5	2011-05-06	2011-09-01	DC    	-1	-1	N	-1	-1	-1	-1	-1	-1	2	166	13	-1	22	-1	-1	-1
93xaa10	670	0	0	0	6	4	2011-05-06	2011-09-01	DC    	-1	-1	N	-1	-1	-1	-1	-1	-1	2	166	13	-1	23	-1	-1	-1
93xaa10	671	0	0	0	6	6	2011-05-06	2011-09-01	DC    	-1	-1	N	-1	-1	-1	-1	-1	-1	2	166	13	-1	24	-1	-1	-1
93xaa10	672	0	0	0	6	4	2011-05-06	2011-09-01	DC    	-1	-1	N	-1	-1	-1	-1	-1	-1	2	166	13	-1	25	-1	-1	-1
93xaa10	673	0	0	0	6	4	2011-05-06	2011-09-01	DC    	-1	-1	N	-1	-1	-1	-1	-1	-1	2	166	13	-1	26	-1	-1	-1
93xaa10	674	0	0	0	6	5	2011-05-06	2011-09-01	DC    	-1	5	Y	-1	-1	-1	-1	-1	-1	2	166	13	-1	27	-1	-1	-1
93xaa10	675	0	0	0	6	4	2011-05-06	2011-09-01	DC    	-1	-1	N	-1	-1	-1	-1	-1	-1	2	166	13	-1	28	-1	-1	-1
93xaa10	676	0	0	0	6	6	2011-05-06	2011-09-01	DC    	-1	-1	N	-1	-1	-1	-1	-1	-1	2	166	13	-1	29	-1	-1	-1
93xaa10	677	PRAVL - Stock from Dykema 2010	PRAVL	0	6	6	2011-05-06	2011-09-01	DC    	-1	12	Y	-1	-1	-1	-1	-1	-1	2	166	13	-1	30	-1	-1	-1
103xaa10	678	0	0	0	6	6	2011-05-06	2011-09-01	DC    	-1	-1	N	-1	-1	-1	-1	-1	-1	2	170	13	-1	31	-1	-1	-1
103xaa10	679	0	0	0	6	6	2011-05-06	2011-09-01	DC    	-1	5	N	-1	-1	-1	-1	-1	-1	2	170	13	-1	32	-1	-1	-1
103xaa10	680	0	0	0	6	6	2011-05-06	2011-09-01	DC    	-1	4	N	-1	-1	-1	-1	-1	-1	2	170	13	-1	33	-1	-1	-1
103xaa10	681	0	0	0	6	5	2011-05-06	2011-09-01	DC    	-1	-1	N	-1	-1	-1	-1	-1	-1	2	170	13	-1	34	-1	-1	-1
103xaa10	682	0	0	0	6	3	2011-05-06	2011-09-01	DC    	-1	-1	N	-1	-1	-1	-1	-1	-1	2	170	13	-1	35	-1	-1	-1
103xaa10	683	Remove tags marked with P	0	0	5	4	2011-05-06	2011-09-01	DC    	-1	5	Y	-1	-1	-1	-1	-1	-1	2	170	13	-1	36	-1	-1	-1
103xaa10	684	0	0	0	5	2	2011-05-06	2011-09-01	DC    	-1	-1	N	-1	-1	-1	-1	-1	-1	2	170	13	-1	37	-1	-1	-1
103xaa10	685	Remove tags marked with P	0	0	6	6	2011-05-06	2011-09-01	DC    	-1	4	Y	-1	-1	-1	-1	-1	-1	2	170	13	-1	38	-1	-1	-1
103xaa10	686	0	0	0	6	4	2011-05-06	2011-09-01	DC    	-1	-1	N	-1	-1	-1	-1	-1	-1	2	170	13	-1	39	-1	-1	-1
103xaa10	687	0	0	0	6	3	2011-05-06	2011-09-01	DC    	-1	-1	N	-1	-1	-1	-1	-1	-1	2	170	13	-1	40	-1	-1	-1
103xaa10	688	end row	0	0	6	5	2011-05-06	2011-09-01	DC    	-1	-1	N	-1	-1	-1	-1	-1	-1	2	170	13	-1	41	-1	-1	-1
103xaa10	689	begin row	0	0	6	4	2011-05-06	2011-09-01	DC    	-1	-1	N	-1	-1	-1	-1	-1	-1	2	170	13	-1	42	-1	-1	-1
103xaa10	690	0	0	0	6	3	2011-05-06	2011-09-01	DC    	-1	-1	N	-1	-1	-1	-1	-1	-1	2	170	13	-1	43	-1	-1	-1
103xaa10	691	0	0	0	6	4	2011-05-06	2011-09-01	DC    	-1	-1	N	-1	-1	-1	-1	-1	-1	2	170	13	-1	44	-1	-1	-1
103xaa10	692	0	0	0	6	5	2011-05-06	2011-09-01	DC    	-1	-1	N	-1	-1	-1	-1	-1	-1	2	170	13	-1	45	-1	-1	-1
103xaa10	693	0	0	0	6	4	2011-05-06	2011-09-01	DC    	-1	-1	N	-1	-1	-1	-1	-1	-1	2	170	13	-1	46	-1	-1	-1
103xaa10	694	0	0	0	6	3	2011-05-06	2011-09-01	DC    	-1	-1	N	-1	-1	-1	-1	-1	-1	2	170	13	-1	47	-1	-1	-1
103xaa10	695	0	0	0	6	5	2011-05-06	2011-09-01	DC    	-1	-1	N	-1	-1	-1	-1	-1	-1	2	170	13	-1	48	-1	-1	-1
103xaa10	696	0	0	0	6	3	2011-05-06	2011-09-01	DC    	-1	-1	N	-1	-1	-1	-1	-1	-1	2	170	13	-1	49	-1	-1	-1
103xaa10	697	0	0	0	6	5	2011-05-06	2011-09-01	DC    	-1	-1	N	-1	-1	-1	-1	-1	-1	2	170	13	-1	50	-1	-1	-1
103xaa10	698	0	0	0	6	3	2011-05-06	2011-09-01	DC    	-1	-1	N	-1	-1	-1	-1	-1	-1	2	170	13	-1	51	-1	-1	-1
103xaa10	699	0	0	0	6	5	2011-05-06	2011-09-01	DC    	-1	-1	N	-1	-1	-1	-1	-1	-1	2	170	13	-1	52	-1	-1	-1
86xaa10	700	0	0	0	6	5	2011-05-06	2011-09-01	DC    	-1	-1	N	-1	-1	-1	-1	-1	-1	2	167	13	-1	1	-1	-1	-1
86xaa10	701	0	0	0	6	6	2011-05-06	2011-09-01	DC    	-1	5	Y	-1	-1	-1	-1	-1	-1	2	167	13	-1	2	-1	-1	-1
86xaa10	702	0	0	0	6	5	2011-05-06	2011-09-01	DC    	-1	-1	N	-1	-1	-1	-1	-1	-1	2	167	13	-1	3	-1	-1	-1
86xaa10	703	0	0	0	6	4	2011-05-06	2011-09-01	DC    	-1	-1	N	-1	-1	-1	-1	-1	-1	2	167	13	-1	4	-1	-1	-1
86xaa10	704	0	0	0	6	5	2011-05-06	2011-09-01	DC    	-1	5	Y	-1	-1	-1	-1	-1	-1	2	167	13	-1	5	-1	-1	-1
86xaa10	705	Yes, this row this column number duplicated	0	0	5	5	2011-05-06	2011-09-01	DC    	-1	5	Y	-1	-1	-1	-1	-1	-1	2	167	13	-1	5	-1	-1	-1
86xaa10	706	0	0	0	6	5	2011-05-06	2011-09-01	DC    	-1	-1	N	-1	-1	-1	-1	-1	-1	2	167	13	-1	6	-1	-1	-1
86xaa10	707	0	0	0	6	3	2011-05-06	2011-09-01	DC    	-1	-1	N	-1	-1	-1	-1	-1	-1	2	167	13	-1	7	-1	-1	-1
86xaa10	708	0	0	0	6	2	2011-05-06	2011-09-01	DC    	-1	-1	N	-1	-1	-1	-1	-1	-1	2	167	13	-1	8	-1	-1	-1
86xaa10	709	0	0	0	6	5	2011-05-06	2011-09-01	DC    	-1	9	Y	-1	-1	-1	-1	-1	-1	2	167	13	-1	9	-1	-1	-1
86xaa10	710	0	0	0	6	3	2011-05-06	2011-09-01	DC    	-1	-1	N	-1	-1	-1	-1	-1	-1	2	167	13	-1	10	-1	-1	-1
103xaa10	711	0	0	0	6	6	2011-05-06	2011-09-01	DC    	-1	-1	N	-1	-1	-1	-1	-1	-1	2	170	13	-1	11	-1	-1	-1
103xaa10	712	0	0	0	6	6	2011-05-06	2011-09-01	DC    	-1	4	Y	-1	-1	-1	-1	-1	-1	2	170	13	-1	12	-1	-1	-1
103xaa10	713	0	0	0	6	4	2011-05-06	2011-09-01	DC    	-1	-1	N	-1	-1	-1	-1	-1	-1	2	170	13	-1	13	-1	-1	-1
103xaa10	714	end row	0	0	6	4	2011-05-06	2011-09-01	DC    	-1	-1	N	-1	-1	-1	-1	-1	-1	2	170	13	-1	14	-1	-1	-1
103xaa10	715	begin row	0	0	6	4	2011-05-06	2011-09-01	DC    	-1	-1	N	-1	-1	-1	-1	-1	-1	2	170	13	-1	15	-1	-1	-1
103xaa10	716	0	0	0	6	5	2011-05-06	2011-09-01	DC    	-1	-1	N	-1	-1	-1	-1	-1	-1	2	170	13	-1	16	-1	-1	-1
103xaa10	717	0	0	0	6	5	2011-05-06	2011-09-01	DC    	-1	-1	N	-1	-1	-1	-1	-1	-1	2	170	13	-1	17	-1	-1	-1
103xaa10	718	0	0	0	6	3	2011-05-06	2011-09-01	DC    	-1	-1	N	-1	-1	-1	-1	-1	-1	2	170	13	-1	18	-1	-1	-1
96xaa10	719	0	0	0	6	5	2011-05-06	2011-09-01	DC    	-1	-1	N	-1	-1	-1	-1	-1	-1	2	160	13	-1	19	-1	-1	-1
96xaa10	720	0	0	0	6	4	2011-05-06	2011-09-01	DC    	-1	-1	N	-1	-1	-1	-1	-1	-1	2	160	13	-1	20	-1	-1	-1
96xaa10	721	0	0	0	6	6	2011-05-06	2011-09-01	DC    	-1	-1	N	-1	-1	-1	-1	-1	-1	2	160	13	-1	21	-1	-1	-1
96xaa10	722	0	0	0	6	6	2011-05-06	2011-09-01	DC    	-1	5	Y	-1	-1	-1	-1	-1	-1	2	160	13	-1	22	-1	-1	-1
96xaa10	723	0	0	0	6	4	2011-05-06	2011-09-01	DC    	-1	-1	N	-1	-1	-1	-1	-1	-1	2	160	13	-1	23	-1	-1	-1
96xaa10	724	0	0	0	6	5	2011-05-06	2011-09-01	DC    	-1	-1	N	-1	-1	-1	-1	-1	-1	2	160	13	-1	24	-1	-1	-1
96xaa10	725	0	0	0	6	5	2011-05-06	2011-09-01	DC    	-1	-1	N	-1	-1	-1	-1	-1	-1	2	160	13	-1	25	-1	-1	-1
96xaa10	726	0	0	0	5	3	2011-05-06	2011-09-01	DC    	-1	-1	N	-1	-1	-1	-1	-1	-1	2	160	13	-1	26	-1	-1	-1
96xaa10	727	0	0	0	6	5	2011-05-06	2011-09-01	DC    	-1	-1	N	-1	-1	-1	-1	-1	-1	2	160	13	-1	27	-1	-1	-1
96xaa10	728	0	0	0	6	4	2011-05-06	2011-09-01	DC    	-1	-1	N	-1	-1	-1	-1	-1	-1	2	160	13	-1	28	-1	-1	-1
96xaa10	729	0	0	0	6	5	2011-05-06	2011-09-01	DC    	-1	-1	N	-1	-1	-1	-1	-1	-1	2	160	13	-1	29	-1	-1	-1
96xaa10	730	0	0	0	5	3	2011-05-06	2011-09-01	DC    	-1	-1	N	-1	-1	-1	-1	-1	-1	2	160	13	-1	30	-1	-1	-1
96xaa10	731	0	0	0	6	3	2011-05-06	2011-09-01	DC    	-1	12	Y	-1	-1	-1	-1	-1	-1	2	160	13	-1	31	-1	-1	-1
96xaa10	732	0	0	0	5	1	2011-05-06	2011-09-01	DC    	-1	-1	N	-1	-1	-1	-1	-1	-1	2	160	13	-1	32	-1	-1	-1
96xaa10	733	end row	0	0	6	6	2011-05-06	2011-09-01	DC    	-1	-1	N	-1	-1	-1	-1	-1	-1	2	160	13	-1	33	-1	-1	-1
96xaa10	734	begin row	0	0	6	5	2011-05-06	2011-09-01	DC    	-1	-1	N	-1	-1	-1	-1	-1	-1	2	160	13	-1	34	-1	-1	-1
96xaa10	735	0	0	0	6	3	2011-05-06	2011-09-01	DC    	-1	-1	N	-1	-1	-1	-1	-1	-1	2	160	13	-1	35	-1	-1	-1
96xaa10	736	0	0	0	5	4	2011-05-06	2011-09-01	DC    	-1	-1	N	-1	-1	-1	-1	-1	-1	2	160	13	-1	36	-1	-1	-1
96xaa10	737	0	0	0	5	4	2011-05-06	2011-09-01	DC    	-1	-1	N	-1	-1	-1	-1	-1	-1	2	160	13	-1	37	-1	-1	-1
96xaa10	738	0	0	0	6	5	2011-05-06	2011-09-01	DC    	-1	-1	N	-1	-1	-1	-1	-1	-1	2	160	13	-1	38	-1	-1	-1
96xaa10	739	0	0	0	6	4	2011-05-06	2011-09-01	DC    	-1	-1	N	-1	-1	-1	-1	-1	-1	2	160	13	-1	39	-1	-1	-1
96xaa10	740	0	0	0	6	4	2011-05-06	2011-09-01	DC    	-1	-1	N	-1	-1	-1	-1	-1	-1	2	160	13	-1	40	-1	-1	-1
96xaa10	741	0	0	0	6	4	2011-05-06	2011-09-01	DC    	-1	-1	N	-1	-1	-1	-1	-1	-1	2	160	13	-1	41	-1	-1	-1
96xaa10	742	0	0	0	6	3	2011-05-06	2011-09-01	DC    	-1	-1	N	-1	-1	-1	-1	-1	-1	2	160	13	-1	42	-1	-1	-1
96xaa10	743	0	0	0	6	3	2011-05-06	2011-09-01	DC    	-1	-1	N	-1	-1	-1	-1	-1	-1	2	160	13	-1	43	-1	-1	-1
96xaa10	744	0	0	0	6	2	2011-05-06	2011-09-01	DC    	-1	-1	N	-1	-1	-1	-1	-1	-1	2	160	13	-1	44	-1	-1	-1
96xaa10	745	0	0	0	6	3	2011-05-06	2011-09-01	DC    	-1	-1	N	-1	-1	-1	-1	-1	-1	2	160	13	-1	45	-1	-1	-1
96xaa10	746	0	0	0	6	5	2011-05-06	2011-09-01	DC    	-1	-1	N	-1	-1	-1	-1	-1	-1	2	160	13	-1	46	-1	-1	-1
96xaa10	747	0	0	0	6	2	2011-05-06	2011-09-01	DC    	-1	-1	N	-1	-1	-1	-1	-1	-1	2	160	13	-1	47	-1	-1	-1
96xaa10	748	0	0	0	6	6	2011-05-06	2011-09-01	DC    	-1	-1	N	-1	-1	-1	-1	-1	-1	2	160	13	-1	48	-1	-1	-1
92xaa10	749	0	0	0	6	4	2011-05-06	2011-09-01	DC    	-1	-1	N	-1	-1	-1	-1	-1	-1	2	152	13	-1	1	-1	-1	-1
92xaa10	750	0	0	0	6	5	2011-05-06	2011-09-01	DC    	-1	-1	N	-1	-1	-1	-1	-1	-1	2	152	13	-1	2	-1	-1	-1
92xaa10	751	0	0	0	6	5	2011-05-06	2011-09-01	DC    	-1	6	Y	-1	-1	-1	-1	-1	-1	2	152	13	-1	3	-1	-1	-1
92xaa10	752	0	0	0	6	4	2011-05-06	2011-09-01	DC    	-1	-1	N	-1	-1	-1	-1	-1	-1	2	152	13	-1	4	-1	-1	-1
92xaa10	753	0	0	0	6	5	2011-05-06	2011-09-01	DC    	-1	-1	N	-1	-1	-1	-1	-1	-1	2	152	13	-1	5	-1	-1	-1
92xaa10	754	0	0	0	6	5	2011-05-06	2011-09-01	DC    	-1	5	Y	-1	-1	-1	-1	-1	-1	2	152	13	-1	6	-1	-1	-1
92xaa10	755	0	0	0	6	5	2011-05-06	2011-09-01	DC    	-1	-1	N	-1	-1	-1	-1	-1	-1	2	152	13	-1	7	-1	-1	-1
92xaa10	756	0	0	0	6	5	2011-05-06	2011-09-01	DC    	-1	-1	N	-1	-1	-1	-1	-1	-1	2	152	13	-1	8	-1	-1	-1
92xaa10	757	0	0	0	6	4	2011-05-06	2011-09-01	DC    	-1	9	Y	-1	-1	-1	-1	-1	-1	2	152	13	-1	9	-1	-1	-1
92xaa10	758	0	0	0	6	5	2011-05-06	2011-09-01	DC    	-1	-1	N	-1	-1	-1	-1	-1	-1	2	152	13	-1	10	-1	-1	-1
92xaa10	759	0	0	0	6	3	2011-05-06	2011-09-01	DC    	-1	-1	N	-1	-1	-1	-1	-1	-1	2	152	13	-1	11	-1	-1	-1
92xaa10	760	0	0	0	6	5	2011-05-06	2011-09-01	DC    	-1	-1	N	-1	-1	-1	-1	-1	-1	2	152	13	-1	12	-1	-1	-1
92xaa10	761	0	0	0	6	4	2011-05-06	2011-09-01	DC    	-1	-1	N	-1	-1	-1	-1	-1	-1	2	152	13	-1	13	-1	-1	-1
92xaa10	762	0	0	0	6	4	2011-05-06	2011-09-01	DC    	-1	-1	N	-1	-1	-1	-1	-1	-1	2	152	13	-1	14	-1	-1	-1
92xaa10	763	end row	0	0	6	3	2011-05-06	2011-09-01	DC    	-1	-1	N	-1	-1	-1	-1	-1	-1	2	152	13	-1	15	-1	-1	-1
92xaa10	764	begin row	0	0	6	3	2011-05-06	2011-09-01	DC    	-1	-1	N	-1	-1	-1	-1	-1	-1	2	152	13	-1	16	-1	-1	-1
92xaa10	765	0	0	0	6	4	2011-05-06	2011-09-01	DC    	-1	-1	N	-1	-1	-1	-1	-1	-1	2	152	13	-1	17	-1	-1	-1
92xaa10	766	0	0	0	6	3	2011-05-06	2011-09-01	DC    	-1	-1	N	-1	-1	-1	-1	-1	-1	2	152	13	-1	18	-1	-1	-1
92xaa10	767	0	0	0	6	4	2011-05-06	2011-09-01	DC    	-1	-1	N	-1	-1	-1	-1	-1	-1	2	152	13	-1	19	-1	-1	-1
92xaa10	768	0	0	0	6	4	2011-05-06	2011-09-01	DC    	-1	-1	N	-1	-1	-1	-1	-1	-1	2	152	13	-1	20	-1	-1	-1
92xaa10	769	0	0	0	6	3	2011-05-06	2011-09-01	DC    	-1	-1	N	-1	-1	-1	-1	-1	-1	2	152	13	-1	21	-1	-1	-1
92xaa10	770	0	0	0	6	3	2011-05-06	2011-09-01	DC    	-1	-1	N	-1	-1	-1	-1	-1	-1	2	152	13	-1	22	-1	-1	-1
92xaa10	771	0	0	0	6	3	2011-05-06	2011-09-01	DC    	-1	-1	N	-1	-1	-1	-1	-1	-1	2	152	13	-1	23	-1	-1	-1
92xaa10	772	0	0	0	6	3	2011-05-06	2011-09-01	DC    	-1	-1	N	-1	-1	-1	-1	-1	-1	2	152	13	-1	24	-1	-1	-1
92xaa10	773	0	0	0	6	2	2011-05-06	2011-09-01	DC    	-1	-1	N	-1	-1	-1	-1	-1	-1	2	152	13	-1	25	-1	-1	-1
92xaa10	774	0	0	0	6	4	2011-05-06	2011-09-01	DC    	-1	-1	N	-1	-1	-1	-1	-1	-1	2	152	13	-1	26	-1	-1	-1
92xaa10	775	0	0	0	6	5	2011-05-06	2011-09-01	DC    	-1	-1	N	-1	-1	-1	-1	-1	-1	2	152	13	-1	27	-1	-1	-1
92xaa10	776	0	0	0	6	2	2011-05-06	2011-09-01	DC    	-1	-1	N	-1	-1	-1	-1	-1	-1	2	152	13	-1	28	-1	-1	-1
92xaa10	777	0	0	0	6	0	2011-05-06	2011-09-01	DC    	-1	-1	N	-1	-1	-1	-1	-1	-1	2	152	13	-1	29	-1	-1	-1
92xaa10	778	0	0	0	6	3	2011-05-06	2011-09-01	DC    	-1	-1	N	-1	-1	-1	-1	-1	-1	2	152	13	-1	30	-1	-1	-1
94xaa10	779	0	0	0	6	5	2011-05-06	2011-09-01	DC    	-1	-1	N	-1	-1	-1	-1	-1	-1	2	161	13	-1	31	-1	-1	-1
94xaa10	780	0	0	0	6	2	2011-05-06	2011-09-01	DC    	-1	-1	N	-1	-1	-1	-1	-1	-1	2	161	13	-1	32	-1	-1	-1
94xaa10	781	0	0	0	6	5	2011-05-06	2011-09-01	DC    	-1	-1	N	-1	-1	-1	-1	-1	-1	2	161	13	-1	33	-1	-1	-1
94xaa10	782	0	0	0	6	2	2011-05-06	2011-09-01	DC    	-1	-1	N	-1	-1	-1	-1	-1	-1	2	161	13	-1	34	-1	-1	-1
94xaa10	783	0	0	0	6	3	2011-05-06	2011-09-01	DC    	-1	-1	N	-1	-1	-1	-1	-1	-1	2	161	13	-1	35	-1	-1	-1
94xaa10	784	0	0	0	6	5	2011-05-06	2011-09-01	DC    	-1	-1	N	-1	-1	-1	-1	-1	-1	2	161	13	-1	36	-1	-1	-1
94xaa10	785	0	0	0	6	4	2011-05-06	2011-09-01	DC    	-1	-1	N	-1	-1	-1	-1	-1	-1	2	161	13	-1	37	-1	-1	-1
94xaa10	786	0	0	0	6	3	2011-05-06	2011-09-01	DC    	-1	-1	N	-1	-1	-1	-1	-1	-1	2	161	13	-1	38	-1	-1	-1
94xaa10	787	0	0	0	6	5	2011-05-06	2011-09-01	DC    	-1	-1	N	-1	-1	-1	-1	-1	-1	2	161	13	-1	39	-1	-1	-1
94xaa10	788	end row	0	0	6	4	2011-05-06	2011-09-01	DC    	-1	10	Y	-1	-1	-1	-1	-1	-1	2	161	13	-1	40	-1	-1	-1
94xaa10	789	begin row	0	0	6	5	2011-05-06	2011-09-01	DC    	-1	-1	N	-1	-1	-1	-1	-1	-1	2	161	13	-1	41	-1	-1	-1
94xaa10	790	0	0	0	6	5	2011-05-06	2011-09-01	DC    	-1	-1	N	-1	-1	-1	-1	-1	-1	2	161	13	-1	42	-1	-1	-1
94xaa10	791	0	0	0	5	3	2011-05-06	2011-09-01	DC    	-1	-1	N	-1	-1	-1	-1	-1	-1	2	161	13	-1	43	-1	-1	-1
94xaa10	792	0	0	0	5	4	2011-05-06	2011-09-01	DC    	-1	-1	N	-1	-1	-1	-1	-1	-1	2	161	13	-1	44	-1	-1	-1
94xaa10	793	0	0	0	6	6	2011-05-06	2011-09-01	DC    	-1	5	Y	-1	-1	-1	-1	-1	-1	2	161	13	-1	45	-1	-1	-1
94xaa10	794	0	0	0	6	4	2011-05-06	2011-09-01	DC    	-1	-1	N	-1	-1	-1	-1	-1	-1	2	161	13	-1	46	-1	-1	-1
94xaa10	795	0	0	0	6	4	2011-05-06	2011-09-01	DC    	-1	-1	N	-1	-1	-1	-1	-1	-1	2	161	13	-1	47	-1	-1	-1
94xaa10	796	0	0	0	6	3	2011-05-06	2011-09-01	DC    	-1	-1	N	-1	-1	-1	-1	-1	-1	2	161	13	-1	48	-1	-1	-1
94xaa10	797	0	0	0	6	4	2011-05-06	2011-09-01	DC    	-1	-1	N	-1	-1	-1	-1	-1	-1	2	161	13	-1	49	-1	-1	-1
94xaa10	798	0	0	0	6	3	2011-05-06	2011-09-01	DC    	-1	-1	N	-1	-1	-1	-1	-1	-1	2	161	13	-1	50	-1	-1	-1
94xaa10	799	0	0	0	6	6	2011-05-06	2011-09-01	DC    	-1	6	Y	-1	-1	-1	-1	-1	-1	2	161	13	-1	1	-1	-1	-1
94xaa10	800	0	0	0	6	4	2011-05-06	2011-09-01	DC    	-1	-1	N	-1	-1	-1	-1	-1	-1	2	161	13	-1	2	-1	-1	-1
94xaa10	801	0	0	0	6	3	2011-05-06	2011-09-01	DC    	-1	-1	N	-1	-1	-1	-1	-1	-1	2	161	13	-1	3	-1	-1	-1
94xaa10	802	0	0	0	6	6	2011-05-06	2011-09-01	DC    	-1	10	N	-1	-1	-1	-1	-1	-1	2	161	13	-1	4	-1	-1	-1
94xaa10	803	0	0	0	6	4	2011-05-06	2011-09-01	DC    	-1	-1	N	-1	-1	-1	-1	-1	-1	2	161	13	-1	5	-1	-1	-1
94xaa10	804	0	0	0	6	5	2011-05-06	2011-09-01	DC    	-1	-1	N	-1	-1	-1	-1	-1	-1	2	161	13	-1	6	-1	-1	-1
94xaa10	805	0	0	0	6	6	2011-05-06	2011-09-01	DC    	-1	5	N	-1	-1	-1	-1	-1	-1	2	161	13	-1	7	-1	-1	-1
94xaa10	806	0	0	0	6	4	2011-05-06	2011-09-01	DC    	-1	-1	N	-1	-1	-1	-1	-1	-1	2	161	13	-1	8	-1	-1	-1
94xaa10	807	0	0	0	6	5	2011-05-06	2011-09-01	DC    	-1	-1	N	-1	-1	-1	-1	-1	-1	2	161	13	-1	9	-1	-1	-1
15ag4mf	808	WASP stock started from Brads rootlings, planted as ASP plugs. Tallest was 10' on 9/1/11	0	0	100	100	2011-06-01	2011-09-01	ASP   	8	2	Y	-1	-1	-1	-1	-1	-1	26	2	13	-1	10	-1	-1	-1
83aa204	809	Cuttings started from sylleptic stems. Planted as ASP plugs. Tallest was 8' on 9/1/11	0	0	110	110	2011-06-01	2011-09-01	WASP  	8	2	N	-1	-1	-1	-1	-1	-1	128	2	13	-1	1	-1	-1	-1
41aa111	810	0	0	0	5	5	2011-06-01	2011-09-01	1-0   	-1	-1	N	-1	-1	-1	-1	-1	-1	138	2	13	-1	2	-1	-1	-1
41aa111	811	0	0	0	10	10	2011-06-01	2011-09-01	WASP  	8	-1	N	-1	-1	-1	-1	-1	-1	138	2	13	-1	3	-1	-1	-1
a502	812	0	0	0	7	7	2011-06-01	2011-09-01	WASP  	8	-1	N	-1	-1	-1	-1	-1	-1	11	2	13	-1	4	-1	-1	-1
83aa204	813	SCP - Somclonal Propagation (Induced shoots on cutting top)	0	0	14	14	2011-07-02	2011-09-01	SCP   	12	-1	N	-1	-1	-1	-1	-1	-1	128	2	13	-1	1	-1	-1	-1
1xcagw	814	0	0	0	7	7	2011-07-02	2011-09-01	SEL   	-1	-1	Y	-1	-1	-1	-1	-1	-1	2	171	13	-1	2	-1	-1	-1
1xaw11	815	Seeded 5/14/11, Planted 7/2/11. 3 have AG characteristics	0	0	48	23	2011-07-02	2011-09-01	SEL   	-1	-1	Y	-1	-1	-1	-1	-1	-1	2	172	13	-1	3	-1	-1	-1
1xcagw	816	Seeded 5/30/11, Planted 7/16/11	0	0	22	22	2011-07-16	2011-09-01	SEL   	-1	-1	N	-1	-1	-1	-1	-1	-1	2	171	13	-1	4	-1	-1	-1
1xcagw	817	Seeded 5/30/11, Planted 7/16/11. About 60/40% Alba/Aspen characteristics. Losses from rabbits.	0	0	130	122	2011-07-16	2011-09-01	SEL   	-1	-1	N	-1	-1	-1	-1	-1	-1	2	171	13	-1	1	-1	-1	-1
1xcagw	818	Seeded 5/30/11, Planted 7/16/11. About 60/40% Alba/Aspen characteristics. Losses from rabbits.	0	0	130	96	2011-07-16	2011-09-01	SEL   	-1	-1	N	-1	-1	-1	-1	-1	-1	2	171	13	-1	2	-1	-1	-1
90xaa10	819	 2012: Start rep 1, row 1, (FYI: NOTES2 = 2011-ID, which is id_prev_test_detail). Biased = edge effect	969	0	10	9	2012-04-06	2012-09-12	DC    	15	-1	U	0.7	-1	-1	-1	-1	4	1	1	14	1	1	1	-1	-1
86xaa10	820	Biased = 1, edge effect	993	0	10	8	2012-04-06	2012-09-12	DC    	15	-1	U	0.5	-1	-1	-1	-1	4	1	1	14	1	2	1	-1	-1
103xaa10	821	Biased = 1, edge effect	1036	0	10	6	2012-04-06	2012-09-12	DC    	15	-1	U	0.5	-1	-1	-1	-1	4	1	1	14	1	3	1	-1	-1
92xaa10	822	Biased = 1, edge effect	1105	0	10	9	2012-04-06	2012-09-12	DC    	15	-1	U	0.6	-1	-1	-1	-1	4	1	1	14	1	4	1	-1	-1
98xaa10	823	Biased = 1, edge effect, leaf spots on lower leaves	936	0	10	9	2012-04-06	2012-09-12	DC    	15	-1	U	0.7	-1	-1	-1	-1	3	1	1	14	1	5	1	-1	-1
86xaa10	824	Biased = 1, edge effect, nice!	1060	0	10	8	2012-04-06	2012-09-12	DC    	15	-1	U	1	-1	-1	-1	-1	4	1	1	14	1	6	1	-1	-1
92xaa10	825	Biased = 1, edge effect	1108	0	10	6	2012-04-06	2012-09-12	DC    	15	-1	U	0.7	-1	-1	-1	-1	3	1	1	14	1	7	1	-1	-1
90xaa10	826	Biased = 1, edge effect. Nice! Largest dia=23mm at collar.	968	0	10	6	2012-04-06	2012-09-12	DC    	15	-1	U	1.2	-1	-1	-1	-1	4	1	1	14	1	8	1	-1	-1
86xaa10	827	Biased = 1, edge effect	1056	0	10	8	2012-04-06	2012-09-12	DC    	15	-1	U	0.8	-1	-1	-1	-1	4	1	1	14	1	9	1	-1	-1
98xaa10	828	Biased = 1, edge effect. short...	942	0	10	7	2012-04-06	2012-09-12	DC    	15	-1	U	1.2	-1	-1	-1	-1	3	1	1	14	1	10	1	-1	-1
93xaa10	829	Biased = 1, edge effect. Nice! Largest dia=23mm at collar.	1028	0	10	5	2012-04-06	2012-09-12	DC    	15	-1	U	0.9	-1	-1	-1	-1	4	1	1	14	1	11	1	-1	-1
98xaa10	830	Biased = -2, nursery bad spot - needs soil test.	946	0	10	4	2012-04-06	2012-09-12	DC    	15	-1	U	0.8	-1	-1	-1	-1	4	1	1	14	1	12	1	-1	-1
90xaa10	831	Biased = -2, nursery bad spot - needs soil test.	960	0	10	5	2012-04-06	2012-09-12	DC    	15	-1	U	1.1	-1	-1	-1	-1	3	1	1	14	1	13	1	-1	-1
90xaa10	832	Biased = -2, nursery bad spot - needs soil test.	971	0	10	4	2012-04-06	2012-09-12	DC    	15	-1	U	1.1	-1	-1	-1	-1	4	1	1	14	1	14	1	-1	-1
83aa204	833	Biased = -2, nursery bad spot - needs soil test.	773	0	10	4	2012-04-06	2012-09-12	DC    	15	-1	U	0.7	-1	-1	-1	-1	4	1	1	14	1	15	1	-1	-1
83aa204	834	Biased = -2, nursery bad spot - needs soil test. Interesting - poor	773	0	10	2	2012-04-06	2012-09-12	DC    	15	-1	U	0.7	-1	-1	-1	-1	4	1	1	14	1	16	1	-1	-1
100xaa10	835	Biased = -2, nursery bad spot - needs soil test.	670	0	10	7	2012-04-06	2012-09-12	DC    	15	-1	U	0.4	-1	-1	-1	-1	3	1	1	14	1	17	1	-1	-1
102xaa10	836	Biased = -2, nursery bad spot - needs soil test.	728	0	10	7	2012-04-06	2012-09-12	DC    	15	-1	U	0.5	-1	-1	-1	-1	3	1	1	14	1	18	1	-1	-1
100xaa10	837	Biased = -2, nursery bad spot - needs soil test.	668	0	10	6	2012-04-06	2012-09-12	DC    	15	-1	U	0.7	-1	-1	-1	-1	3	1	1	14	1	19	1	-1	-1
102xaa10	838	Biased = -2, nursery bad spot - needs soil test.	736	0	10	8	2012-04-06	2012-09-12	DC    	15	-1	U	0.7	-1	-1	-1	-1	3	1	1	14	1	20	1	-1	-1
100aa03	839	Biased = -2, nursery bad spot - needs soil test.	873	0	10	6	2012-04-06	2012-09-12	DC    	15	-1	U	0.5	-1	-1	-1	-1	4	1	1	14	1	21	1	-1	-1
83aa216	840	Biased = -2, nursery bad spot - needs soil test.	763	0	10	3	2012-04-06	2012-09-12	DC    	15	-1	U	1.4	-1	-1	-1	-1	4	1	1	14	1	22	1	-1	-1
83aa206	841	Biased = -2, nursery bad spot - needs soil test.	900	0	10	6	2012-04-06	2012-09-12	DC    	15	-1	U	0.7	-1	-1	-1	-1	4	1	1	14	1	23	1	-1	-1
104xaa10	842	Biased = -2, nursery bad spot - needs soil test.	801	0	10	0	2012-04-06	2012-09-12	DC    	15	-1	U	0	-1	-1	-1	-1	4	1	1	14	1	24	1	-1	-1
104xaa10	843	End rep1, row1.  Biased = -2, nursery bad spot - needs soil test.	818	0	10	7	2012-04-06	2012-09-12	DC    	15	-1	U	0.5	-1	-1	-1	-1	4	1	1	14	1	25	1	-1	-1
92xaa10	844	Start rep1, row 2, col 1. Biased=edge of row	1102	0	10	7	2012-04-06	2012-09-12	DC    	15	-1	U	1	-1	-1	-1	-1	4	1	1	14	2	1	1	-1	-1
103xaa10	845	Nice!	1034	0	10	9	2012-04-06	2012-09-12	DC    	15	-1	U	1	-1	-1	-1	-1	4	1	1	14	2	2	1	-1	-1
96xaa10	846	Bad	1073	0	10	4	2012-04-06	2012-09-12	DC    	15	-1	U	0.7	-1	-1	-1	-1	4	1	1	14	2	3	1	-1	-1
98xaa10	847	0	933	0	10	9	2012-04-06	2012-09-12	DC    	15	-1	U	0.7	-1	-1	-1	-1	4	1	1	14	2	4	1	-1	-1
93xaa10	848	0	1025	0	10	7	2012-04-06	2012-09-12	DC    	15	-1	U	0.7	-1	-1	-1	-1	4	1	1	14	2	5	1	-1	-1
86xaa10	849	0	1052	0	10	9	2012-04-06	2012-09-12	DC    	15	-1	U	0.5	-1	-1	-1	-1	4	1	1	14	2	6	1	-1	-1
86xaa10	850	0	1055	0	10	8	2012-04-06	2012-09-12	DC    	15	-1	U	0.7	-1	-1	-1	-1	4	1	1	14	2	7	1	-1	-1
103xaa10	851	0	1063	0	10	5	2012-04-06	2012-09-12	DC    	15	-1	U	0.5	-1	-1	-1	-1	4	1	1	14	2	8	1	-1	-1
93xaa10	852	0	1006	0	10	2	2012-04-06	2012-09-12	DC    	15	-1	U	0.7	-1	-1	-1	-1	4	1	1	14	2	9	1	-1	-1
90xaa10	853	0	978	0	10	6	2012-04-06	2012-09-12	DC    	15	-1	U	1	-1	-1	-1	-1	4	1	1	14	2	10	1	-1	-1
98xaa10	854	0	943	0	10	4	2012-04-06	2012-09-12	DC    	15	-1	U	0.6	-1	-1	-1	-1	4	1	1	14	2	11	1	-1	-1
93xaa10	855	0	1010	0	10	5	2012-04-06	2012-09-12	DC    	15	-1	U	0.8	-1	-1	-1	-1	4	1	1	14	2	12	1	-1	-1
93xaa10	856	Biased= -2, Bad nusery area.	1008	0	10	3	2012-04-06	2012-09-12	DC    	15	-1	U	0.6	-1	-1	-1	-1	4	1	1	14	2	13	1	-1	-1
100xaa10	857	Biased= -2, Bad nusery area.	679	0	10	3	2012-04-06	2012-09-12	DC    	15	-1	U	0.5	-1	-1	-1	-1	3	1	1	14	2	14	1	-1	-1
100xaa10	858	Biased= -2, Bad nusery area.	687	0	10	6	2012-04-06	2012-09-12	DC    	15	-1	U	0.9	-1	-1	-1	-1	4	1	1	14	2	15	1	-1	-1
95xaa10	859	Biased= -2, Bad nusery area.	722	0	10	8	2012-04-06	2012-09-12	DC    	15	-1	U	0.5	-1	-1	-1	-1	4	1	1	14	2	16	1	-1	-1
83aa212	860	Biased= -2, Bad nusery area.	753	0	10	5	2012-04-06	2012-09-12	DC    	15	-1	U	0.6	-1	-1	-1	-1	3	1	1	14	2	17	1	-1	-1
102xaa10	861	Biased= -2, Bad nusery area.	732	0	10	6	2012-04-06	2012-09-12	DC    	15	-1	U	0.7	-1	-1	-1	-1	3	1	1	14	2	18	1	-1	-1
83aa215	862	Biased= -2, Bad nusery area.	751	0	10	7	2012-04-06	2012-09-12	DC    	15	-1	U	0.8	-1	-1	-1	-1	4	1	1	14	2	19	1	-1	-1
104xaa10	863	Biased= -2, Bad nusery area.	814	0	10	6	2012-04-06	2012-09-12	DC    	15	-1	U	0.5	-1	-1	-1	-1	2	1	1	14	2	20	1	-1	-1
83aa206	864	Biased= -2, Bad nusery area.	900	0	10	1	2012-04-06	2012-09-12	DC    	15	-1	U	0.9	-1	-1	-1	-1	3	1	1	14	2	21	1	-1	-1
104xaa10	865	Biased= -2, Bad nusery area.	808	0	10	2	2012-04-06	2012-09-12	DC    	15	-1	U	0.8	-1	-1	-1	-1	3	1	1	14	2	22	1	-1	-1
100xaa10	866	Biased= -2, Bad nusery area.	886	0	10	5	2012-04-06	2012-09-12	DC    	15	-1	U	0.9	-1	-1	-1	-1	3	1	1	14	2	23	1	-1	-1
104xaa10	867	Biased= -2, Bad nusery area.	810	0	10	6	2012-04-06	2012-09-12	DC    	15	-1	U	0.6	-1	-1	-1	-1	4	1	1	14	2	24	1	-1	-1
101xaa10	868	End rep1, row2.  Biased= -2, Bad nusery area.	911	0	10	4	2012-04-06	2012-09-12	DC    	15	-1	U	0.7	-1	-1	-1	-1	4	1	1	14	2	25	1	-1	-1
99xaa10	869	Start rep1, row 3, col 1	644	0	10	6	2012-04-06	2012-09-12	DC    	15	-1	U	0.9	-1	-1	-1	-1	4	1	1	14	3	1	1	-1	-1
100xaa10	870	0	675	0	10	5	2012-04-06	2012-09-12	DC    	15	-1	U	0.7	-1	-1	-1	-1	4	1	1	14	3	2	1	-1	-1
100xaa10	871	0	692	0	10	8	2012-04-06	2012-09-12	DC    	15	-1	U	0.5	-1	-1	-1	-1	4	1	1	14	3	3	1	-1	-1
83aa227	872	0	775	0	10	8	2012-04-06	2012-09-12	DC    	15	-1	U	0.8	-1	-1	-1	-1	3	1	1	14	3	4	1	-1	-1
41aa111	873	0	757	0	10	5	2012-04-06	2012-09-12	DC    	15	-1	U	0.5	-1	-1	-1	-1	4	1	1	14	3	5	1	-1	-1
100aa01	874	0	869	0	10	8	2012-04-06	2012-09-12	DC    	15	-1	U	0.7	-1	-1	-1	-1	4	1	1	14	3	6	1	-1	-1
97xaa10	875	0	830	0	10	4	2012-04-06	2012-09-12	DC    	15	-1	U	0.7	-1	-1	-1	-1	4	1	1	14	3	7	1	-1	-1
100aa04	876	0	875	0	10	7	2012-04-06	2012-09-12	DC    	15	-1	U	0.7	-1	-1	-1	-1	4	1	1	14	3	8	1	-1	-1
97xaa10	877	0	845	0	10	5	2012-04-06	2012-09-12	DC    	15	-1	U	0.8	-1	-1	-1	-1	4	1	1	14	3	9	1	-1	-1
100xaa10	878	0	912	0	10	5	2012-04-06	2012-09-12	DC    	15	-1	U	0.3	-1	-1	-1	-1	4	1	1	14	3	10	1	-1	-1
91xaa10	879	0	605	0	10	8	2012-04-06	2012-09-12	DC    	15	-1	U	0.9	-1	-1	-1	-1	3	1	1	14	3	11	1	-1	-1
91xaa10	880	Biased= -2, Bad nusery area.	613	0	10	2	2012-04-06	2012-09-12	DC    	15	-1	U	0.4	-1	-1	-1	-1	3	1	1	14	3	12	1	-1	-1
83aa221	881	Biased= -2, Bad nusery area.	526	0	10	0	2012-04-06	2012-09-12	DC    	15	-1	U	0	-1	-1	-1	-1	3	1	1	14	3	13	1	-1	-1
96xaa10	882	Biased= -2, Bad nusery area.	1099	0	10	8	2012-04-06	2012-09-12	DC    	15	-1	U	0.6	-1	-1	-1	-1	3	1	1	14	3	14	1	-1	-1
98xaa10	883	Biased= -2, Bad nusery area.	950	0	10	8	2012-04-06	2012-09-12	DC    	15	-1	U	0.8	-1	-1	-1	-1	3	1	1	14	3	15	1	-1	-1
86xaa10	884	Biased= -2, Bad nusery area.	981	0	10	5	2012-04-06	2012-09-12	DC    	15	-1	U	1	-1	-1	-1	-1	4	1	1	14	3	16	1	-1	-1
83aa218	885	0	892	0	10	7	2012-04-06	2012-09-12	DC    	15	-1	U	0.8	-1	-1	-1	-1	3	1	1	14	3	17	1	-1	-1
86xaa10	886	0	987	0	10	8	2012-04-06	2012-09-12	DC    	15	-1	U	0.5	-1	-1	-1	-1	3	1	1	14	3	18	1	-1	-1
86xaa10	887	End rep1, row3	984	0	10	5	2012-04-06	2012-09-12	DC    	15	-1	U	0.7	-1	-1	-1	-1	3	1	1	14	3	19	1	-1	-1
100xaa10	888	Start rep1, row 4, col 1	686	0	10	8	2012-04-06	2012-09-12	DC    	15	-1	U	1.2	-1	-1	-1	-1	4	1	1	14	4	1	1	-1	-1
99xaa10	889	0	629	0	10	9	2012-04-06	2012-09-12	DC    	15	-1	U	0.5	-1	-1	-1	-1	4	1	1	14	4	2	1	-1	-1
100xaa10	890	Very NICE! Sylleptical	681	0	10	8	2012-04-06	2012-09-12	DC    	15	-1	U	1.4	-1	-1	-1	-1	4	1	1	14	4	3	1	-1	-1
83aa107	891	0	771	0	10	8	2012-04-06	2012-09-12	DC    	15	-1	U	0.9	-1	-1	-1	-1	3	1	1	14	4	4	1	-1	-1
83aa216	892	0	763	0	10	7	2012-04-06	2012-09-12	DC    	15	-1	U	0.8	-1	-1	-1	-1	4	1	1	14	4	5	1	-1	-1
100aa02	893	0	871	0	10	6	2012-04-06	2012-09-12	DC    	15	-1	U	0.8	-1	-1	-1	-1	3	1	1	14	4	6	1	-1	-1
97xaa10	894	0	853	0	10	8	2012-04-06	2012-09-12	DC    	15	-1	U	1	-1	-1	-1	-1	4	1	1	14	4	7	1	-1	-1
101xaa10	895	0	928	0	10	8	2012-04-06	2012-09-12	DC    	15	-1	U	1.2	-1	-1	-1	-1	4	1	1	14	4	8	1	-1	-1
101xaa10	896	0	916	0	10	8	2012-04-06	2012-09-12	DC    	15	-1	U	0.8	-1	-1	-1	-1	4	1	1	14	4	9	1	-1	-1
101xaa10	897	0	915	0	10	1	2012-04-06	2012-09-12	DC    	15	-1	U	0.3	-1	-1	-1	-1	1	1	1	14	4	10	1	-1	-1
91xaa10	898	0	615	0	10	6	2012-04-06	2012-09-12	DC    	15	-1	U	0.4	-1	-1	-1	-1	3	1	1	14	4	11	1	-1	-1
91xaa10	899	Biased= -2, Bad nusery area.	617	0	10	4	2012-04-06	2012-09-12	DC    	15	-1	U	0.3	-1	-1	-1	-1	3	1	1	14	4	12	1	-1	-1
89xxaa10	900	Biased= -2, Bad nusery area.	585	0	10	1	2012-04-06	2012-09-12	DC    	15	-1	U	1.3	-1	-1	-1	-1	3	1	1	14	4	13	1	-1	-1
91xaa10	901	Biased= -2, Bad nusery area.	592	0	10	2	2012-04-06	2012-09-12	DC    	15	-1	U	0.7	-1	-1	-1	-1	4	1	1	14	4	14	1	-1	-1
90xaa10	902	Biased= -2, Bad nusery area.	957	0	10	7	2012-04-06	2012-09-12	DC    	15	-1	U	0.5	-1	-1	-1	-1	3	1	1	14	4	15	1	-1	-1
90xaa10	903	Biased= -2, Bad nusery area.	952	0	10	3	2012-04-06	2012-09-12	DC    	15	-1	U	0.4	-1	-1	-1	-1	4	1	1	14	4	16	1	-1	-1
98xaa10	904	Biased= -2, Bad nusery area.	940	0	10	5	2012-04-06	2012-09-12	DC    	15	-1	U	0.5	-1	-1	-1	-1	3	1	1	14	4	17	1	-1	-1
86xaa10	905	Biased= -2, Bad nusery area.	985	0	10	7	2012-04-06	2012-09-12	DC    	15	-1	U	0.5	-1	-1	-1	-1	3	1	1	14	4	18	1	-1	-1
103xaa10	906	End rep1, row4, Biased= -2, Bad nusery area.	1039	0	10	8	2012-04-06	2012-09-12	DC    	15	-1	U	0.5	-1	-1	-1	-1	3	1	1	14	4	19	1	-1	-1
83aa216	907	Sart REP2, row1,  Biased= -2, Bad nusery area & pre-rooted cuttings.	763	0	10	2	2012-04-06	2012-09-12	DC    	15	-1	U	0.6	-1	-1	-1	-1	3	1	1	14	1	1	2	-1	-1
104xaa10	908	Bad nusery area & pre-rooted cuttings.0	818	0	10	2	2012-04-06	2012-09-12	DC    	15	-1	U	0.5	-1	-1	-1	-1	3	1	1	14	1	2	2	-1	-1
83aa107	909	dead - Bad nusery area & pre-rooted cuttings.	771	0	10	0	2012-04-06	2012-09-12	DC    	15	-1	U	0	-1	-1	-1	-1	0	1	1	14	1	3	2	-1	-1
100xaa10	910	Bad nusery area & pre-rooted cuttings.	675	0	10	2	2012-04-06	2012-09-12	DC    	15	-1	U	0.7	-1	-1	-1	-1	3	1	1	14	1	4	2	-1	-1
83aa204	911	Bad nusery area & pre-rooted cuttings.	773	0	10	2	2012-04-06	2012-09-12	DC    	15	-1	U	0.5	-1	-1	-1	-1	3	1	1	14	1	5	2	-1	-1
104xaa10	912	Bad nusery area & pre-rooted cuttings.	801	0	10	0	2012-04-06	2012-09-12	DC    	15	-1	U	0	-1	-1	-1	-1	0	1	1	14	2	1	2	-1	-1
41aa111	913	Bad nusery area & pre-rooted cuttings.	757	0	10	0	2012-04-06	2012-09-12	DC    	15	-1	U	0	-1	-1	-1	-1	0	1	1	14	2	2	2	-1	-1
83aa227	914	Bad nusery area & pre-rooted cuttings.	775	0	10	0	2012-04-06	2012-09-12	DC    	15	-1	U	0	-1	-1	-1	-1	0	1	1	14	2	3	2	-1	-1
101xaa10	915	Bad nusery area & pre-rooted cuttings.	911	0	10	0	2012-04-06	2012-09-12	DC    	15	-1	U	0	-1	-1	-1	-1	0	1	1	14	2	4	2	-1	-1
100xaa10	916	Bad nusery area & pre-rooted cuttings.	679	0	10	7	2012-04-06	2012-09-12	DC    	15	-1	U	0.6	-1	-1	-1	-1	4	1	1	14	2	5	2	-1	-1
99xaa10	917	Start rep2, row 3, col 1	629	0	10	5	2012-04-06	2012-09-12	DC    	15	-1	U	0.6	-1	-1	-1	-1	4	1	1	14	3	1	2	-1	-1
91xaa10	918	0	617	0	10	6	2012-04-06	2012-09-12	DC    	15	-1	U	1.2	-1	-1	-1	-1	4	1	1	14	3	2	2	-1	-1
89xxaa10	919	0	585	0	10	8	2012-04-06	2012-09-12	DC    	15	-1	U	0.7	-1	-1	-1	-1	4	1	1	14	3	3	2	-1	-1
91xaa10	920	0	615	0	10	8	2012-04-06	2012-09-12	DC    	15	-1	U	0.5	-1	-1	-1	-1	4	1	1	14	3	4	2	-1	-1
102xaa10	921	0	732	0	10	6	2012-04-06	2012-09-12	DC    	15	-1	U	0.7	-1	-1	-1	-1	4	1	1	14	3	5	2	-1	-1
100xaa10	922	0	670	0	10	9	2012-04-06	2012-09-12	DC    	15	-1	U	0.5	-1	-1	-1	-1	4	1	1	14	3	6	2	-1	-1
100xaa10	923	0	686	0	10	6	2012-04-06	2012-09-12	DC    	15	-1	U	1	-1	-1	-1	-1	4	1	1	14	3	7	2	-1	-1
83aa215	924	0	751	0	10	5	2012-04-06	2012-09-12	DC    	15	-1	U	0.6	-1	-1	-1	-1	4	1	1	14	3	8	2	-1	-1
102xaa10	925	0	736	0	10	9	2012-04-06	2012-09-12	DC    	15	-1	U	0.5	-1	-1	-1	-1	4	1	1	14	3	9	2	-1	-1
95xaa10	926	0	722	0	10	9	2012-04-06	2012-09-12	DC    	15	-1	U	0.9	-1	-1	-1	-1	4	1	1	14	3	10	2	-1	-1
83aa204	927	0	773	0	10	3	2012-04-06	2012-09-12	DC    	15	-1	U	0.4	-1	-1	-1	-1	4	1	1	14	3	11	2	-1	-1
83aa216	928	0	763	0	10	7	2012-04-06	2012-09-12	DC    	15	-1	U	0.7	-1	-1	-1	-1	4	1	1	14	3	12	2	-1	-1
100xaa10	929	0	886	0	10	9	2012-04-06	2012-09-12	DC    	15	-1	U	1.1	-1	-1	-1	-1	4	1	1	14	3	13	2	-1	-1
83aa206	930	0	900	0	10	7	2012-04-06	2012-09-12	DC    	15	-1	U	0.6	-1	-1	-1	-1	4	1	1	14	3	14	2	-1	-1
100aa03	931	0	873	0	10	5	2012-04-06	2012-09-12	DC    	15	-1	U	0.7	-1	-1	-1	-1	4	1	1	14	3	15	2	-1	-1
98xaa10	932	0	950	0	10	7	2012-04-06	2012-09-12	DC    	15	-1	U	0.9	-1	-1	-1	-1	3	1	1	14	3	16	2	-1	-1
90xaa10	933	0	978	0	10	9	2012-04-06	2012-09-12	DC    	15	-1	U	0.7	-1	-1	-1	-1	4	1	1	14	3	17	2	-1	-1
86xaa10	934	0	987	0	10	8	2012-04-06	2012-09-12	DC    	15	-1	U	0.8	-1	-1	-1	-1	3	1	1	14	3	18	2	-1	-1
86xaa10	935	0	984	0	10	5	2012-04-06	2012-09-12	DC    	15	-1	U	1	-1	-1	-1	-1	4	1	1	14	3	19	2	-1	-1
90xaa10	936	Biased= 1, edge	969	0	10	8	2012-04-06	2012-09-12	DC    	15	-1	U	1	-1	-1	-1	-1	4	1	1	14	3	20	2	-1	-1
98xaa10	937	0	943	0	10	0	2012-04-06	2012-09-12	DC    	15	-1	U	0	-1	-1	-1	-1	4	1	1	14	3	21	2	-1	-1
86xaa10	938	0	1060	0	10	7	2012-04-06	2012-09-12	DC    	15	-1	U	0.6	-1	-1	-1	-1	4	1	1	14	3	22	2	-1	-1
103xaa10	939	0	1036	0	10	4	2012-04-06	2012-09-12	DC    	15	-1	U	0.8	-1	-1	-1	-1	4	1	1	14	3	23	2	-1	-1
86xaa10	940	0	1055	0	10	4	2012-04-06	2012-09-12	DC    	15	-1	U	0.9	-1	-1	-1	-1	4	1	1	14	3	24	2	-1	-1
93xaa10	941	End rep2, row3	1008	0	10	5	2012-04-06	2012-09-12	DC    	15	-1	U	0.7	-1	-1	-1	-1	4	1	1	14	3	25	2	-1	-1
99xaa10	942	Biased= 1, edge	644	0	10	6	2012-04-06	2012-09-12	DC    	15	-1	U	1.3	-1	-1	-1	-1	4	1	1	14	4	1	2	-1	-1
91xaa10	943	Biased= 1, edge	592	0	10	5	2012-04-06	2012-09-12	DC    	15	-1	U	1	-1	-1	-1	-1	4	1	1	14	4	2	2	-1	-1
83aa221	944	Biased= 1, edge	526	0	10	2	2012-04-06	2012-09-12	DC    	15	-1	U	0.3	-1	-1	-1	-1	4	1	1	14	4	3	2	-1	-1
91xaa10	945	Biased= 1, edge	605	0	10	6	2012-04-06	2012-09-12	DC    	15	-1	U	1.1	-1	-1	-1	-1	3	1	1	14	4	4	2	-1	-1
91xaa10	946	0	613	0	10	4	2012-04-06	2012-09-12	DC    	15	-1	U	0.5	-1	-1	-1	-1	4	1	1	14	4	5	2	-1	-1
100xaa10	947	0	681	0	10	7	2012-04-06	2012-09-12	DC    	15	-1	U	0.9	-1	-1	-1	-1	4	1	1	14	4	6	2	-1	-1
83aa212	948	0	753	0	10	4	2012-04-06	2012-09-12	DC    	15	-1	U	0.8	-1	-1	-1	-1	4	1	1	14	4	7	2	-1	-1
100xaa10	949	0	687	0	10	6	2012-04-06	2012-09-12	DC    	15	-1	U	1.2	-1	-1	-1	-1	3	1	1	14	4	8	2	-1	-1
100xaa10	950	0	692	0	10	6	2012-04-06	2012-09-12	DC    	15	-1	U	1.3	-1	-1	-1	-1	4	1	1	14	4	9	2	-1	-1
102xaa10	951	0	728	0	10	5	2012-04-06	2012-09-12	DC    	15	-1	U	0.5	-1	-1	-1	-1	4	1	1	14	4	10	2	-1	-1
100xaa10	952	0	668	0	10	8	2012-04-06	2012-09-12	DC    	15	-1	U	1.2	-1	-1	-1	-1	4	1	1	14	4	11	2	-1	-1
104xaa10	953	good	810	0	10	10	2012-04-06	2012-09-12	DC    	15	-1	U	0.7	-1	-1	-1	-1	3	1	1	14	4	12	2	-1	-1
83aa206	954	0	900	0	10	6	2012-04-06	2012-09-12	DC    	15	-1	U	0.5	-1	-1	-1	-1	4	1	1	14	4	13	2	-1	-1
104xaa10	955	0	808	0	10	8	2012-04-06	2012-09-12	DC    	15	-1	U	1.2	-1	-1	-1	-1	4	1	1	14	4	14	2	-1	-1
104xaa10	956	0	814	0	10	6	2012-04-06	2012-09-12	DC    	15	-1	U	0.7	-1	-1	-1	-1	4	1	1	14	4	15	2	-1	-1
86xaa10	957	bad form	981	0	10	6	2012-04-06	2012-09-12	DC    	15	-1	U	0.8	-1	-1	-1	-1	4	1	1	14	4	16	2	-1	-1
98xaa10	958	0	940	0	10	8	2012-04-06	2012-09-12	DC    	15	-1	U	0.7	-1	-1	-1	-1	4	1	1	14	4	17	2	-1	-1
103xaa10	959	0	1039	0	10	9	2012-04-06	2012-09-12	DC    	15	-1	U	0.6	-1	-1	-1	-1	4	1	1	14	4	18	2	-1	-1
86xaa10	960	bad form	993	0	10	8	2012-04-06	2012-09-12	DC    	15	-1	U	0.6	-1	-1	-1	-1	4	1	1	14	4	19	2	-1	-1
90xaa10	961	0	952	0	10	6	2012-04-06	2012-09-12	DC    	15	-1	U	0.5	-1	-1	-1	-1	4	1	1	14	4	20	2	-1	-1
83aa218	962	0	892	0	10	6	2012-04-06	2012-09-12	DC    	15	-1	U	0.9	-1	-1	-1	-1	4	1	1	14	4	21	2	-1	-1
93xaa10	963	0	1025	0	10	9	2012-04-06	2012-09-12	DC    	15	-1	U	0.8	-1	-1	-1	-1	4	1	1	14	4	22	2	-1	-1
86xaa10	964	bad form	1052	0	10	5	2012-04-06	2012-09-12	DC    	15	-1	U	0.3	-1	-1	-1	-1	4	1	1	14	4	23	2	-1	-1
92xaa10	965	Nice!	1102	0	10	10	2012-04-06	2012-09-12	DC    	15	-1	U	1.1	-1	-1	-1	-1	4	1	1	14	4	24	2	-1	-1
92xaa10	966	0	1108	0	10	6	2012-04-06	2012-09-12	DC    	15	-1	U	0.8	-1	-1	-1	-1	4	1	1	14	4	25	2	-1	-1
93xaa10	967	End rep2, row4	1006	0	10	5	2012-04-06	2012-09-12	DC    	15	-1	U	0.6	-1	-1	-1	-1	4	1	1	14	4	26	2	-1	-1
86xaa10	968	Biased= 1, edge	1056	0	10	8	2012-04-06	2012-09-12	DC    	15	-1	U	0.9	-1	-1	-1	-1	4	1	1	14	5	1	2	-1	-1
93xaa10	969	Biased= 1, edge	1010	0	10	8	2012-04-06	2012-09-12	DC    	15	-1	U	1	-1	-1	-1	-1	4	1	1	14	5	2	2	-1	-1
103xaa10	970	0	1063	0	10	10	2012-04-06	2012-09-12	DC    	15	-1	U	0.7	-1	-1	-1	-1	4	1	1	14	5	3	2	-1	-1
86xaa10	971	0	985	0	10	9	2012-04-06	2012-09-12	DC    	15	-1	U	0.7	-1	-1	-1	-1	4	1	1	14	5	4	2	-1	-1
90xaa10	972	0	968	0	10	7	2012-04-06	2012-09-12	DC    	15	-1	U	0.9	-1	-1	-1	-1	4	1	1	14	5	5	2	-1	-1
98xaa10	973	0	933	0	10	10	2012-04-06	2012-09-12	DC    	15	-1	U	0.8	-1	-1	-1	-1	4	1	1	14	5	6	2	-1	-1
90xaa10	974	0	960	0	10	10	2012-04-06	2012-09-12	DC    	15	-1	U	0.6	-1	-1	-1	-1	4	1	1	14	5	7	2	-1	-1
93xaa10	975	0	1028	0	10	9	2012-04-06	2012-09-12	DC    	15	-1	U	0.9	-1	-1	-1	-1	3	1	1	14	5	8	2	-1	-1
92xaa10	976	Biased= 1, edge	1105	0	10	5	2012-04-06	2012-09-12	DC    	15	-1	U	0.6	-1	-1	-1	-1	3	1	1	14	6	1	2	-1	-1
103xaa10	977	Biased= 1, edge	1034	0	10	9	2012-04-06	2012-09-12	DC    	15	-1	U	1.2	-1	-1	-1	-1	3	1	1	14	6	2	2	-1	-1
96xaa10	978	Biased= 1, edge	1023	0	10	8	2012-04-06	2012-09-12	DC    	15	-1	U	0.7	-1	-1	-1	-1	4	1	1	14	6	3	2	-1	-1
96xaa10	979	Biased= 1, edge	1099	0	10	7	2012-04-06	2012-09-12	DC    	15	-1	U	0.9	-1	-1	-1	-1	4	1	1	14	6	4	2	-1	-1
98xaa10	980	Biased= 1, edge	936	0	10	8	2012-04-06	2012-09-12	DC    	15	-1	U	1	-1	-1	-1	-1	4	1	1	14	6	5	2	-1	-1
90xaa10	981	Biased= 1, edge	971	0	10	7	2012-04-06	2012-09-12	DC    	15	-1	U	1	-1	-1	-1	-1	4	1	1	14	6	6	2	-1	-1
98xaa10	982	Biased= 1, edge	942	0	10	8	2012-04-06	2012-09-12	DC    	15	-1	U	1.1	-1	-1	-1	-1	4	1	1	14	6	7	2	-1	-1
98xaa10	983	Biased= 1, edge	946	0	10	10	2012-04-06	2012-09-12	DC    	15	-1	U	0.7	-1	-1	-1	-1	4	1	1	14	6	8	2	-1	-1
90xaa10	984	End rep2	957	0	10	7	2012-04-06	2012-09-12	DC    	15	-1	U	0.8	-1	-1	-1	-1	4	1	1	14	6	9	2	-1	-1
100aa01	985	Sart REP3, row1	869	0	10	3	2012-04-06	2012-09-12	DC    	15	-1	U	0.7	-1	-1	-1	-1	4	1	1	14	1	1	3	-1	-1
83aa215	986	0	751	0	10	8	2012-04-06	2012-09-12	DC    	15	-1	U	1	-1	-1	-1	-1	4	1	1	14	1	2	3	-1	-1
83aa212	987	0	753	0	10	8	2012-04-06	2012-09-12	DC    	15	-1	U	0.8	-1	-1	-1	-1	4	1	1	14	1	3	3	-1	-1
83aa204	988	0	773	0	10	7	2012-04-06	2012-09-12	DC    	15	-1	U	0.8	-1	-1	-1	-1	4	1	1	14	1	4	3	-1	-1
83aa212	989	0	753	0	10	6	2012-04-06	2012-09-12	DC    	15	-1	U	0.7	-1	-1	-1	-1	4	1	1	14	1	5	3	-1	-1
100xaa10	990	was missed	912	0	10	7	2012-04-06	2012-09-12	DC    	15	-1	U	0.7	-1	-1	-1	-1	4	1	1	14	1	6	3	-1	-1
100aa02	991	0	871	0	10	6	2012-04-06	2012-09-12	DC    	15	-1	U	0.7	-1	-1	-1	-1	4	1	1	14	1	7	3	-1	-1
101xaa10	992	0	928	0	10	7	2012-04-06	2012-09-12	DC    	15	-1	U	0.8	-1	-1	-1	-1	4	1	1	14	1	8	3	-1	-1
100aa04	993	0	875	0	10	7	2012-04-06	2012-09-12	DC    	15	-1	U	0.5	-1	-1	-1	-1	4	1	1	14	1	9	3	-1	-1
100aa01	994	0	869	0	10	7	2012-04-06	2012-09-12	DC    	15	-1	U	1	-1	-1	-1	-1	4	1	1	14	1	10	3	-1	-1
92xaa10	995	0	1102	0	10	5	2012-04-06	2012-09-12	DC    	15	-1	U	0.5	-1	-1	-1	-1	4	1	1	14	1	11	3	-1	-1
83aa218	996	Biased= 1, edge	892	0	10	9	2012-04-06	2012-09-12	DC    	15	-1	U	0.7	-1	-1	-1	-1	4	1	1	14	1	12	3	-1	-1
100aa02	997	0	871	0	10	4	2012-04-06	2012-09-12	DC    	15	-1	U	0.8	-1	-1	-1	-1	3	1	1	14	2	1	3	-1	-1
100aa04	998	poor	875	0	10	4	2012-04-06	2012-09-12	DC    	15	-1	U	0.7	-1	-1	-1	-1	3	1	1	14	2	2	3	-1	-1
83aa204	999	poor	773	0	10	4	2012-04-06	2012-09-12	DC    	15	-1	U	0.7	-1	-1	-1	-1	3	1	1	14	2	3	3	-1	-1
100xaa10	1000	poor - decieving (compare)	675	0	10	6	2012-04-06	2012-09-12	DC    	15	-1	U	1.3	-1	-1	-1	-1	3	1	1	14	2	4	3	-1	-1
83aa215	1001	0	751	0	10	8	2012-04-06	2012-09-12	DC    	15	-1	U	0.6	-1	-1	-1	-1	3	1	1	14	2	5	3	-1	-1
97xaa10	1002	Nice!	853	0	10	9	2012-04-06	2012-09-12	DC    	15	-1	U	0.8	-1	-1	-1	-1	4	1	1	14	2	6	3	-1	-1
101xaa10	1003	0	916	0	10	8	2012-04-06	2012-09-12	DC    	15	-1	U	0.8	-1	-1	-1	-1	4	1	1	14	2	7	3	-1	-1
97xaa10	1004	0	830	0	10	6	2012-04-06	2012-09-12	DC    	15	-1	U	0.9	-1	-1	-1	-1	4	1	1	14	2	8	3	-1	-1
97xaa10	1005	Nice!	845	0	10	9	2012-04-06	2012-09-12	DC    	15	-1	U	1	-1	-1	-1	-1	4	1	1	14	2	9	3	-1	-1
101xaa10	1006	0	915	0	10	6	2012-04-06	2012-09-12	DC    	15	-1	U	0.6	-1	-1	-1	-1	4	1	1	14	2	10	3	-1	-1
92xaa10	1007	0	1108	0	10	6	2012-04-06	2012-09-12	DC    	15	-1	U	1	-1	-1	-1	-1	4	1	1	14	2	11	3	-1	-1
93xaa10	1008	0	1028	0	10	3	2012-04-06	2012-09-12	DC    	15	-1	U	1.5	-1	-1	-1	-1	4	1	1	14	2	12	3	-1	-1
93xaa10	1009	End rep3, row2	1028	0	10	7	2012-04-06	2012-09-12	DC    	15	-1	U	0.8	-1	-1	-1	-1	4	1	1	14	2	13	3	-1	-1
93xaa10	1010	Sart REP3, row3 -  Flat 1 test	525	0	10	2	2012-04-06	2012-09-12	DC    	15	-1	U	1.2	-1	-1	-1	-1	4	1	1	14	3	1	3	-1	-1
94aa101	1011	variagated alba	528	0	10	5	2012-04-06	2012-09-12	DC    	15	-1	U	0.6	-1	-1	-1	-1	4	1	1	14	3	3	3	-1	-1
83aa227	1012	verify this key #######	775	0	10	4	2012-04-06	2012-09-12	DC    	15	-1	U	1.6	-1	-1	-1	-1	4	1	1	14	3	5	3	-1	-1
83aa216	1013	0	763	0	10	5	2012-04-06	2012-09-12	DC    	15	-1	U	0.7	-1	-1	-1	-1	4	1	1	14	3	6	3	-1	-1
104xaa10	1014	0	808	0	10	9	2012-04-06	2012-09-12	DC    	15	-1	U	1	-1	-1	-1	-1	4	1	1	14	3	7	3	-1	-1
100aa03	1015	0	873	0	10	7	2012-04-06	2012-09-12	DC    	15	-1	U	0.4	-1	-1	-1	-1	4	1	1	14	3	8	3	-1	-1
104xaa10	1016	0	801	0	10	7	2012-04-06	2012-09-12	DC    	15	-1	U	1.2	-1	-1	-1	-1	3	1	1	14	3	9	3	-1	-1
104xaa10	1017	0	818	0	10	7	2012-04-06	2012-09-12	DC    	15	-1	U	1.2	-1	-1	-1	-1	4	1	1	14	3	10	3	-1	-1
90xaa10	1018	0	952	0	10	6	2012-04-06	2012-09-12	DC    	15	-1	U	0.6	-1	-1	-1	-1	4	1	1	14	3	11	3	-1	-1
83aa206	1019	End rep3, row3	900	0	10	4	2012-04-06	2012-09-12	DC    	15	-1	U	0.5	-1	-1	-1	-1	4	1	1	14	3	12	3	-1	-1
93xaa10	1020	Sart REP3, row4	525	0	10	3	2012-04-06	2012-09-12	DC    	15	-1	U	1.2	-1	-1	-1	-1	4	1	1	14	4	1	3	-1	-1
93xaa10	1021	Flat 2 test - same clones in f2?	1372	0	10	9	2012-04-06	2012-09-12	DC    	15	-1	U	1.5	-1	-1	-1	-1	4	1	1	14	4	2	3	-1	-1
93xaa10	1022	Flat 2 test - same clones in f2?	1373	0	10	4	2012-04-06	2012-09-12	DC    	15	-1	U	1.4	-1	-1	-1	-1	3	1	1	14	4	3	3	-1	-1
41aa111	1023	0	757	0	10	5	2012-04-06	2012-09-12	DC    	15	-1	U	0.8	-1	-1	-1	-1	3	1	1	14	4	4	3	-1	-1
83aa216	1024	0	763	0	10	3	2012-04-06	2012-09-12	DC    	15	-1	U	1.3	-1	-1	-1	-1	4	1	1	14	4	5	3	-1	-1
83aa206	1025	0	900	0	10	9	2012-04-06	2012-09-12	DC    	15	-1	U	0.7	-1	-1	-1	-1	4	1	1	14	4	6	3	-1	-1
104xaa10	1026	0	814	0	10	7	2012-04-06	2012-09-12	DC    	15	-1	U	1.2	-1	-1	-1	-1	4	1	1	14	4	7	3	-1	-1
100xaa10	1027	0	886	0	10	8	2012-04-06	2012-09-12	DC    	15	-1	U	0.7	-1	-1	-1	-1	4	1	1	14	4	8	3	-1	-1
104xaa10	1028	0	801	0	10	5	2012-04-06	2012-09-12	DC    	15	-1	U	0.9	-1	-1	-1	-1	3	1	1	14	4	9	3	-1	-1
104xaa10	1029	0	814	0	10	6	2012-04-06	2012-09-12	DC    	15	-1	U	1	-1	-1	-1	-1	4	1	1	14	4	10	3	-1	-1
98xaa10	1030	0	942	0	10	9	2012-04-06	2012-09-12	DC    	15	-1	U	0.9	-1	-1	-1	-1	4	1	1	14	4	11	3	-1	-1
104xaa10	1031	End rep3, row4	808	0	10	9	2012-04-06	2012-09-12	DC    	15	-1	U	0.5	-1	-1	-1	-1	4	1	1	14	4	12	3	-1	-1
1xcagw	1032	8/26 rooting=  2/6 aspen type	1168	0	6	2	2012-04-06	2012-09-12	DC    	15	-1	U	0.5	-1	-1	-1	-1	1	1	1	14	5	1	3	-1	-1
1xcagw	1033	8/26 rooting=  4/7 aspen type	1168	0	7	4	2012-04-06	2012-09-12	DC    	15	-1	U	0.6	-1	-1	-1	-1	0	1	1	14	5	2	3	-1	-1
1xaw	1034	8/26 rooting= 5/7 alba type	1166	0	8	5	2012-04-06	2012-09-12	DC    	15	-1	U	1	-1	-1	-1	-1	0	1	1	14	5	3	3	-1	-1
1xaw	1035	8/26 rooting= 5/6 alba type	1166	0	6	5	2012-04-06	2012-09-12	DC    	15	-1	U	0.7	-1	-1	-1	-1	0	1	1	14	5	4	3	-1	-1
1xcagw	1036	8/26 rooting= 0/7 alba type Biased=1, edge	1168	0	7	0	2012-04-06	2012-09-12	DC    	15	-1	U	0	-1	-1	-1	-1	1	1	1	14	5	5	3	-1	-1
1xcagw	1037	8/26 rooting= 0/7 alba type	1168	0	7	0	2012-04-06	2012-09-12	DC    	15	-1	U	0	-1	-1	-1	-1	1	1	1	14	5	6	3	-1	-1
1xcagw	1038	8/26 rooting= 5/7 alba type - Yellow tagged	1168	0	7	6	2012-04-06	2012-09-12	DC    	15	-1	U	1.3	-1	-1	-1	-1	1	1	1	14	5	7	3	-1	-1
1xcagw	1039	8/26 rooting=  5/6 aspen type	1168	0	6	5	2012-04-06	2012-09-12	DC    	15	-1	U	1.2	-1	-1	-1	-1	1	1	1	14	6	1	3	-1	-1
1bw1	1040	8/26 rooting=  6/6 Excellent! Aspen type. amily 1xCAGW. Selected as 1CAGW01	1168	0	6	6	2012-04-06	2012-09-12	DC    	15	-1	U	1.5	-1	-1	-1	-1	1	1	1	14	6	2	3	-1	-1
1xaw	1041	8/26 rooting=  2/6  Potential AG - Yellow tagged	1166	0	6	2	2012-04-06	2012-09-12	DC    	15	-1	U	1	-1	-1	-1	-1	1	1	1	14	6	3	3	-1	-1
1xaw	1042	8/26 rooting=  0/6 aspen type	1166	0	6	0	2012-04-06	2012-09-12	DC    	15	-1	U	0	-1	-1	-1	-1	1	1	1	14	6	4	3	-1	-1
1cagw02	1043	8/26 rooting=  4/8 alba type - Vigorous - Family 1xCAGW	1168	0	8	4	2012-04-06	2012-09-12	DC    	15	-1	U	1.3	-1	-1	-1	-1	1	1	1	14	6	5	3	-1	-1
1xcagw	1044	8/26 rooting=  4/8 aspen type - has very thin terminal tips and leaves - bad - Clone for poor aspen rooter	1168	0	7	4	2012-04-06	2012-09-12	DC    	15	-1	U	1.8	-1	-1	-1	-1	1	1	1	14	6	6	3	-1	-1
1cagw03	1045	8/26 rooting= 6/7 aspen type - Vigorous - Family 1xCAGW	1168	0	7	6	2012-04-06	2012-09-12	DC    	15	-1	U	1.3	-1	-1	-1	-1	1	1	1	14	6	7	3	-1	-1
9ww	1046	willow Bradford ct.straight	-1	0	5	3	2012-04-06	2012-09-12	DC    	15	-1	U	1	-1	-1	-1	-1	1	1	1	14	6	8	3	-1	-1
brads80x	1047	5/14 rooting=  0/6 - WASP	-1	0	3	0	2012-04-06	2012-09-12	WASP  	15	-1	U	0	-1	-1	-1	-1	1	1	1	14	6	9	3	-1	-1
c173	1048	1/3 survived Planted 3 WASP tip cuttings - WASP (30' tall)	1	0	3	1	2012-04-06	2012-09-12	WASP  	15	-1	U	0.7	-1	-1	-1	-1	1	1	1	14	6	10	3	-1	-1
15ag4mf	1049	Wasp - planted 5/5/12 qty 13 - WASP	1	0	20	11	2012-04-06	2012-09-12	WASP  	15	-1	U	1	-1	-1	-1	-1	1	1	1	14	6	11	3	-1	-1
2xb	1050	Seed date= ?, Plant date= ???  SE (estimated counts)	2	0	70	40	2012-04-06	2012-09-12	SEL   	15	-1	U	-1	-1	-1	-1	-1	1	1	1	14	6	12	3	-1	-1
2xb	1051	Seed date= ?, Plant date= ???  SE (estimated counts)	2	0	250	200	2012-04-06	2012-09-12	SEL   	15	-1	U	-1	-1	-1	-1	-1	1	1	1	14	8	1	3	-1	-1
2xb	1052	Seed date= ?, Plant date= ???  SE (estimated counts)	2	0	70	50	2012-04-06	2012-09-12	SEL   	15	-1	U	-1	-1	-1	-1	-1	1	1	1	14	10	1	3	-1	-1
1xcagw	1053	Seed date= ?, Plant date= ???  SE (estimated counts)	2	0	10	10	2012-04-06	2012-09-12	SEL   	15	-1	U	-1	-1	-1	-1	-1	1	1	1	14	10	2	3	-1	-1
3ww	1054	Ambrose willow 1-0.  Biased=2,  Wide edge	-1	0	1	0	2012-04-06	2012-09-12	DC    	15	-1	U	-1	-1	-1	-1	-1	2	1	1	14	1	1	4	-1	-1
1wx	1055	CSSE willow - 1-0	-1	0	1	1	2012-04-06	2012-09-12	DC    	15	-1	U	-1	-1	-1	-1	-1	2	1	1	14	1	2	4	-1	-1
5ww	1056	Fruit Ridge female   - 1-0	-1	0	1	1	2012-04-06	2012-09-12	1-0   	15	-1	U	-1	-1	-1	-1	-1	2	1	1	14	1	3	4	-1	-1
5ww	1057	Fruit Ridge female   - 1-0	-1	0	1	1	2012-04-06	2012-09-12	1-0   	15	-1	U	-1	-1	-1	-1	-1	2	1	1	14	1	4	4	-1	-1
q666	1058	hybrid pussy willow from MN	-1	0	2	2	2012-04-06	2012-09-12	DC    	15	-1	U	-1	-1	-1	-1	-1	2	1	1	14	1	5	4	-1	-1
41aa111	1059	Qty 3 -  - 1-0	2	0	3	3	2012-04-06	2012-09-12	1-0   	15	-1	U	1.2	-1	-1	-1	-1	2	1	1	14	1	6	4	-1	-1
nfa	1060	Qty 3   - 1-0 - Lots of leaf spots 	765	0	3	3	2012-04-06	2012-09-12	1-0   	15	-1	U	1.2	-1	-1	-1	-1	2	1	1	14	1	7	4	-1	-1
83aa1mf	1061	Qty 2   - 1-0	789	0	2	2	2012-04-06	2012-09-12	1-0   	15	-1	U	1.2	-1	-1	-1	-1	2	1	1	14	1	8	4	-1	-1
a502	1062	Qty 2   - 1-0	755	0	2	2	2012-04-06	2012-09-12	1-0   	15	-1	U	1	-1	-1	-1	-1	2	1	1	14	1	9	4	-1	-1
zoss	1063	Qty 2   - 1-0	2	0	2	2	2012-04-06	2012-09-12	1-0   	15	-1	U	0.7	-1	-1	-1	-1	2	1	1	14	1	10	4	-1	-1
83aa2mf	1064	Qty 2   - 1-0 - was 83aa-uo7m-7-14 (7-4)	2	0	2	2	2012-04-06	2012-09-12	1-0   	15	-1	U	1	-1	-1	-1	-1	2	1	1	14	1	11	4	-1	-1
94aa101	1065	Qty 1 Variagated  - 1-0 - Not much variagation, only on N half	528	0	1	1	2012-04-06	2012-09-12	1-0   	15	-1	U	1	-1	-1	-1	-1	2	1	1	14	1	12	4	-1	-1
40aa6mf	1066	Qty1  - 1-0	858	0	1	0	2012-04-06	2012-09-12	1-0   	15	-1	U	1	-1	-1	-1	-1	2	1	1	14	1	13	4	-1	-1
2ww	1067	Willow - CC gold qty 2  - 1-0	0	0	2	1	2012-04-06	2012-09-12	1-0   	15	-1	U	1	-1	-1	-1	-1	0	1	1	14	1	14	4	-1	-1
q666	1068	hybrid pussy willow from MN   - DC	0	0	5	3	2012-04-06	2012-09-12	DC    	15	-1	U	-1	-1	-1	-1	-1	0	1	1	14	1	15	4	-1	-1
wasp-2013-01-12-ae1	1069	Clone 93AA12, No soak, rep #1, 8 - 10 cm cuttings, 2 week root test	0	0	8	6	2013-01-12	2013-01-26	DC    	10	4.75	Y	-1	-1	-1	-1	-1	-1	193	166	18	-1	-1	1	-1	-1
wasp-2013-01-12-ae2	1070	Clone 93AA12, No soak, rep #2, 8 - 10 cm cuttings, 2 week root test	0	0	8	8	2013-01-12	2013-01-26	DC    	10	5	Y	-1	-1	-1	-1	-1	-1	193	166	18	-1	-1	2	-1	-1
1wx	1071	 Willow 2013: Start - North row 1	1	0	1	1	2013-04-20	2013-09-21	1-1   	120	-1	U	35	-1	-1	-1	-1	-1	1	1	20	1	1	0	-1	-1
9ww	1072	red straight willow	2	0	1	1	2013-04-20	2013-09-21	1-1   	120	-1	U	20	-1	-1	-1	-1	-1	1	1	20	1	2	0	-1	-1
nfa	1073	7' tall, leaf spots	3	0	1	1	2013-04-20	2013-09-21	1-1   	120	-1	U	20	-1	-1	-1	-1	-1	1	1	20	1	3	0	-1	-1
83aa1mf	1074	Nice Diameter	4	0	2	2	2013-04-20	2013-09-21	1-1   	120	-1	Y	24	-1	-1	-1	-1	-1	1	1	20	1	4	0	-1	-1
a502	1075	0	5	0	2	2	2013-04-20	2013-09-21	1-1   	120	-1	U	18	-1	-1	-1	-1	-1	1	1	20	1	5	0	-1	-1
c173	1076	0	6	0	1	1	2013-04-20	2013-09-21	1-1   	120	-1	U	15	-1	-1	-1	-1	-1	1	1	20	1	6	0	-1	-1
zoss	1077	alba like leaves	7	0	1	1	2013-04-20	2013-09-21	1-1   	120	-1	U	12	-1	-1	-1	-1	-1	1	1	20	1	7	0	-1	-1
83aa2mf	1078	weaker than 83aa1mf (soil?)	8	0	2	2	2013-04-20	2013-09-21	1-0   	120	-1	U	12	-1	-1	-1	-1	-1	1	1	20	1	8	0	-1	-1
94aa101	1079	Not much variegation	9	0	1	1	2013-04-20	2013-09-21	1-0   	120	-1	U	12	-1	-1	-1	-1	-1	1	1	20	1	9	0	-1	-1
41aa111	1080	4' tall	10	0	1	1	2013-04-20	2013-09-21	1-0   	120	-1	U	9	-1	-1	-1	-1	-1	1	1	20	1	10	0	-1	-1
2b21	1081	0	11	0	1	1	2013-04-20	2013-09-21	1-0   	120	-1	U	10	-1	-1	-1	-1	-1	1	1	20	1	11	0	-1	-1
2b29	1082	0	12	0	1	1	2013-04-20	2013-09-21	1-0   	120	-1	U	10	-1	-1	-1	-1	-1	1	1	20	12	12	0	-1	-1
2b26	1083	0	13	0	1	1	2013-04-20	2013-09-21	1-0   	120	-1	U	11	-1	-1	-1	-1	-1	1	1	20	1	13	0	-1	-1
2b27	1084	0	14	0	1	1	2013-04-20	2013-09-21	1-0   	120	-1	U	9	-1	-1	-1	-1	-1	1	1	20	1	14	0	-1	-1
2b3	1085	0	15	0	1	1	2013-04-20	2013-09-21	1-0   	120	-1	U	12	-1	-1	-1	-1	-1	1	1	20	1	15	0	-1	-1
2b28	1086	0	16	0	1	1	2013-04-20	2013-09-21	1-0   	120	-1	U	10	-1	-1	-1	-1	-1	1	1	20	1	16	0	-1	-1
2b2	1087	0	17	0	1	1	2013-04-20	2013-09-21	1-0   	120	-1	U	13	-1	-1	-1	-1	-1	1	1	20	1	17	0	-1	-1
2b2	1088	0	18	0	1	1	2013-04-20	2013-09-21	1-0   	120	-1	U	12	-1	-1	-1	-1	-1	1	1	20	1	18	0	-1	-1
2b31	1089	0	19	0	1	1	2013-04-20	2013-09-21	1-0   	120	-1	U	12	-1	-1	-1	-1	-1	1	1	20	1	19	0	-1	-1
cc gold willow	1090	willow	20	0	1	1	2013-04-20	2013-09-21	1-1   	120	-1	U	17	-1	-1	-1	-1	-1	1	1	20	1	20	0	-1	-1
q666	1091	willow	21	0	2	2	2013-04-20	2013-09-21	1-1   	120	-1	U	22	-1	-1	-1	-1	-1	1	1	20	1	21	0	-1	-1
tc alba (m72)	1092	Small dia cuttings (<4mm)	22	0	5	2	2013-04-20	2013-09-21	DC    	15	-1	U	8	-1	-1	-1	-1	-1	1	1	20	2	1	0	-1	-1
a502	1093	0	23	0	10	5	2013-04-20	2013-09-21	DC    	15	-1	U	9	-1	-1	-1	-1	-1	1	1	20	2	2	0	-1	-1
41aa111	1094	0	24	0	10	5	2013-04-20	2013-09-21	DC    	15	-1	U	6	-1	-1	-1	-1	-1	1	1	20	2	3	0	-1	-1
83aa2mf	1095	0	25	0	10	5	2013-04-20	2013-09-21	DC    	15	-1	U	9	-1	-1	-1	-1	-1	1	1	20	2	4	0	-1	-1
83aa2mf	1096	6mm avg dia cuttings	26	0	10	6	2013-04-20	2013-09-21	DC    	15	-1	U	9	-1	-1	-1	-1	-1	1	1	20	2	5	0	-1	-1
9ww	1097	Willow 8mm avg dia cuttings	27	0	10	9	2013-04-20	2013-09-21	DC    	15	-1	U	7	-1	-1	-1	-1	-1	1	1	20	2	6	0	-1	-1
1wx	1098	willow - straight	28	0	13	11	2013-04-20	2013-09-21	DC    	15	-1	U	5	-1	-1	-1	-1	-1	1	1	20	2	7	0	-1	-1
2ww	1099	nice cc willow	29	0	7	7	2013-04-20	2013-09-21	DC    	15	-1	Y	7	-1	-1	-1	-1	-1	1	1	20	2	8	0	-1	-1
80aa3mf	1100	0	30	0	4	3	2013-04-20	2013-09-21	1-0   	120	-1	U	7	-1	-1	-1	-1	-1	1	1	20	2	9	0	-1	-1
100aa12	1101	1 large whip each stool	31	0	6	6	2013-04-20	2013-09-21	1-0   	120	-1	Y	9	-1	-1	-1	-1	-1	1	1	20	2	10	0	-1	-1
cag204	1102	4.5' tall	32	0	1	1	2013-04-20	2013-09-21	1-0   	120	-1	U	16	-1	-1	-1	-1	-1	1	1	20	2	11	0	-1	-1
1cagw02	1103	1 usable whip per stool	33	0	3	3	2013-04-20	2013-09-21	1-0   	120	-1	U	13	-1	-1	-1	-1	-1	1	1	20	2	12	0	-1	-1
104aa12	1104	0	34	0	6	6	2013-04-20	2013-09-21	1-0   	120	-1	U	14	-1	-1	-1	-1	-1	1	1	20	2	13	0	-1	-1
101aa11	1105	5' avg height	35	0	6	6	2013-04-20	2013-09-21	1-0   	120	-1	U	11	-1	-1	-1	-1	-1	1	1	20	2	14	0	-1	-1
100aa11	1106	0	36	0	6	6	2013-04-20	2013-09-21	1-0   	120	-1	U	13	-1	-1	-1	-1	-1	1	1	20	2	15	0	-1	-1
1cagw03	1107	0	37	0	4	4	2013-04-20	2013-09-21	1-0   	120	-1	U	15	-1	-1	-1	-1	-1	1	1	20	2	16	0	-1	-1
98aa11	1108	2 whips per stool	38	0	6	6	2013-04-20	2013-09-21	1-0   	120	-1	U	14	-1	-1	-1	-1	-1	1	1	20	2	17	0	-1	-1
1bw1	1109	(I cut one whip for FW test)	39	0	5	5	2013-04-20	2013-09-21	1-0   	120	-1	U	12	-1	-1	-1	-1	-1	1	1	20	2	18	0	-1	-1
103aa11	1110	0	40	0	6	6	2013-04-20	2013-09-21	1-0   	120	-1	U	10	-1	-1	-1	-1	-1	1	1	20	2	19	0	-1	-1
94aa101	1111	very little variegation 	41	0	10	9	2013-04-20	2013-09-21	1-0   	120	-1	U	10	-1	-1	-1	-1	-1	1	1	20	3	20	0	-1	-1
nfa	1112	cuttings were 8inch long and 10mm dia	42	0	10	7	2013-04-20	2013-09-21	1-0   	120	-1	Y	6	-1	-1	-1	-1	-1	1	1	20	3	21	0	-1	-1
83aa1mf	1113	small dia cuttings (5mm)	43	0	10	5	2013-04-20	2013-09-21	1-0   	120	-1	U	4	-1	-1	-1	-1	-1	1	1	20	3	22	0	-1	-1
41aa111	1114	0	44	0	10	4	2013-04-20	2013-09-21	1-0   	120	-1	U	8	-1	-1	-1	-1	-1	1	1	20	3	23	0	-1	-1
83aa1mf	1115	0	45	0	10	4	2013-04-20	2013-09-21	1-0   	120	-1	U	9	-1	-1	-1	-1	-1	1	1	20	4	1	0	-1	-1
1bw1	1116	NICE!	46	0	10	8	2013-04-20	2013-09-21	1-0   	120	-1	Y	10	-1	-1	-1	-1	-1	1	1	20	4	2	0	-1	-1
2xb	1117	These are ortets, nice!  8inch cuttings taken from 12inch tips.	47	0	46	32	2013-04-20	2013-09-21	DC    	15	-1	Y	9	-1	-1	-1	-1	-1	1	1	20	4	3	0	-1	-1
1bw1	1118	NICE!	48	0	10	7	2013-04-20	2013-09-21	DC    	15	-1	Y	12	-1	-1	-1	-1	-1	1	1	20	4	4	0	-1	-1
2xb	1119	9 are selectable	49	0	36	30	2013-04-20	2013-09-21	DC    	15	-1	Y	7	-1	-1	-1	-1	-1	1	1	20	4	5	0	-1	-1
83aa1mf	1120	0	50	0	10	5	2013-04-20	2013-09-21	DC    	15	-1	U	9	-1	-1	-1	-1	-1	1	1	20	5	6	0	-1	-1
1xcagw	1121	13 are selectable	51	0	34	21	2013-04-20	2013-09-21	DC    	15	-1	Y	8	-1	-1	-1	-1	-1	1	1	20	5	7	0	-1	-1
1bw1	1122	0	52	0	10	7	2013-04-20	2013-09-21	DC    	15	-1	Y	9	-1	-1	-1	-1	-1	1	1	20	5	8	0	-1	-1
2xb	1123	2mm cutting tips, 24 are good	53	0	64	47	2013-04-20	2013-09-21	DC    	15	-1	Y	6	-1	-1	-1	-1	-1	1	1	20	5	9	0	-1	-1
104aa11	1124	2 have 3 whips/stool	54	0	7	7	2013-04-20	2013-09-21	1-0   	120	-1	Y	13	-1	-1	-1	-1	-1	1	1	20	5	10	0	-1	-1
92aa11	1125	0	55	0	6	6	2013-04-20	2013-09-21	1-0   	120	-1	Y	15	-1	-1	-1	-1	-1	1	1	20	5	11	0	-1	-1
93aa11	1126	0	56	0	6	6	2013-04-20	2013-09-21	1-0   	120	-1	Y	16	-1	-1	-1	-1	-1	1	1	20	5	12	0	-1	-1
97aa12	1127	0	57	0	6	6	2013-04-20	2013-09-21	1-0   	120	-1	U	14	-1	-1	-1	-1	-1	1	1	20	5	13	0	-1	-1
93aa12	1128	0	58	0	6	6	2013-04-20	2013-09-21	1-0   	120	-1	Y	19	-1	-1	-1	-1	-1	1	1	20	5	14	0	-1	-1
97aa11	1129	0	59	0	6	6	2013-04-20	2013-09-21	1-0   	120	-1	U	15	-1	-1	-1	-1	-1	1	1	20	5	15	0	-1	-1
95aa11	1130	0	60	0	6	6	2013-04-20	2013-09-21	1-0   	120	-1	U	15	-1	-1	-1	-1	-1	1	1	20	5	16	0	-1	-1
dn34	1131	5 inch cuttings from TRC	61	0	22	15	2013-04-20	2013-09-21	1-0   	120	-1	U	8	-1	-1	-1	-1	-1	1	1	20	6	1	0	-1	-1
98aa11	1132	12 inch cuttings	62	0	10	7	2013-04-20	2013-09-21	DC    	15	-1	U	10	-1	-1	-1	-1	-1	1	1	20	6	2	0	-1	-1
98aa11	1133	10 inch cuttings	63	0	10	10	2013-04-20	2013-09-21	DC    	15	-1	U	7	-1	-1	-1	-1	-1	1	1	20	6	3	0	-1	-1
dn34	1134	5 inch cuttings	64	0	22	13	2013-04-20	2013-09-21	DC    	15	-1	U	8	-1	-1	-1	-1	-1	1	1	20	7	1	0	-1	-1
98aa11	1135	planted as 12 inch cuttings	65	0	10	7	2013-04-20	2013-09-21	DC    	15	-1	U	9	-1	-1	-1	-1	-1	1	1	20	7	2	0	-1	-1
98aa11	1136	planted as 10 inch cuttings	66	0	10	8	2013-04-20	2013-09-21	DC    	15	-1	U	9	-1	-1	-1	-1	-1	1	1	20	7	3	0	-1	-1
1cagw02	1137	planted as 6 inch cuttings (all below)	67	0	10	7	2013-04-20	2013-09-21	DC    	15	-1	U	7	-1	-1	-1	-1	-1	1	1	20	6	4	1	-1	-1
93aa11	1138	0	68	0	10	8	2013-04-20	2013-09-21	DC    	15	-1	U	7	-1	-1	-1	-1	-1	1	1	20	6	5	1	-1	-1
93aa12	1139	0	69	0	10	4	2013-04-20	2013-09-21	DC    	15	-1	U	9	-1	-1	-1	-1	-1	1	1	20	6	6	1	-1	-1
1bw1	1140	Poor performance due to slow start?	70	0	10	5	2013-04-20	2013-09-21	DC    	15	-1	U	4	-1	-1	-1	-1	-1	1	1	20	6	7	1	-1	-1
101aa11	1141	0	71	0	10	10	2013-04-20	2013-09-21	DC    	15	-1	Y	6	-1	-1	-1	-1	-1	1	1	20	6	8	1	-1	-1
100aa12	1142	0	72	0	10	5	2013-04-20	2013-09-21	DC    	15	-1	U	4	-1	-1	-1	-1	-1	1	1	20	6	9	1	-1	-1
95aa11	1143	0	73	0	10	9	2013-04-20	2013-09-21	DC    	15	-1	U	9	-1	-1	-1	-1	-1	1	1	20	6	10	1	-1	-1
1cagw03	1144	0	74	0	10	7	2013-04-20	2013-09-21	DC    	15	-1	U	6	-1	-1	-1	-1	-1	1	1	20	6	11	1	-1	-1
92aa11	1145	0	75	0	10	8	2013-04-20	2013-09-21	DC    	15	-1	U	9	-1	-1	-1	-1	-1	1	1	20	6	12	2	-1	-1
93aa12	1146	0	76	0	10	5	2013-04-20	2013-09-21	DC    	15	-1	U	5	-1	-1	-1	-1	-1	1	1	20	6	13	2	-1	-1
104aa11	1147	0	77	0	10	3	2013-04-20	2013-09-21	DC    	15	-1	U	4	-1	-1	-1	-1	-1	1	1	20	6	14	2	-1	-1
104aa12	1148	0	78	0	10	5	2013-04-20	2013-09-21	DC    	15	-1	U	9	-1	-1	-1	-1	-1	1	1	20	6	15	2	-1	-1
97aa12	1149	0	79	0	10	7	2013-04-20	2013-09-21	DC    	15	-1	U	6	-1	-1	-1	-1	-1	1	1	20	6	16	2	-1	-1
95aa11	1150	0	80	0	10	9	2013-04-20	2013-09-21	DC    	15	-1	U	6	-1	-1	-1	-1	-1	1	1	20	6	17	2	-1	-1
1cagw03	1151	0	81	0	10	7	2013-04-20	2013-09-21	DC    	15	-1	U	7	-1	-1	-1	-1	-1	1	1	20	6	18	2	-1	-1
100aa12	1152	0	82	0	10	6	2013-04-20	2013-09-21	DC    	15	-1	U	6	-1	-1	-1	-1	-1	1	1	20	6	19	2	-1	-1
cag204	1153	0	83	0	10	3	2013-04-20	2013-09-21	DC    	15	-1	U	5	-1	-1	-1	-1	-1	1	1	20	6	20	3	-1	-1
1cagw03	1154	0	84	0	10	6	2013-04-20	2013-09-21	DC    	15	-1	U	5	-1	-1	-1	-1	-1	1	1	20	6	21	3	-1	-1
100aa12	1155	0	85	0	10	4	2013-04-20	2013-09-21	DC    	15	-1	U	7	-1	-1	-1	-1	-1	1	1	20	6	22	3	-1	-1
101aa11	1156	0	86	0	10	10	2013-04-20	2013-09-21	DC    	15	-1	Y	6	-1	-1	-1	-1	-1	1	1	20	6	23	3	-1	-1
92aa11	1157	0	87	0	10	7	2013-04-20	2013-09-21	DC    	15	-1	U	6	-1	-1	-1	-1	-1	1	1	20	6	24	3	-1	-1
93aa12	1158	0	88	0	10	1	2013-04-20	2013-09-21	DC    	15	-1	U	6	-1	-1	-1	-1	-1	1	1	20	6	25	3	-1	-1
103aa11	1159	0	89	0	10	5	2013-04-20	2013-09-21	DC    	15	-1	U	4	-1	-1	-1	-1	-1	1	1	20	6	26	3	-1	-1
104aa11	1160	0	90	0	10	7	2013-04-20	2013-09-21	DC    	15	-1	U	4	-1	-1	-1	-1	-1	1	1	20	6	27	3	-1	-1
97aa11	1161	0	91	0	10	7	2013-04-20	2013-09-21	DC    	15	-1	U	5	-1	-1	-1	-1	-1	1	1	20	7	4	1	-1	-1
92aa11	1162	0	92	0	10	8	2013-04-20	2013-09-21	DC    	15	-1	U	5	-1	-1	-1	-1	-1	1	1	20	7	5	1	-1	-1
103aa11	1163	0	93	0	10	7	2013-04-20	2013-09-21	DC    	15	-1	U	4	-1	-1	-1	-1	-1	1	1	20	7	6	1	-1	-1
104aa11	1164	0	94	0	10	8	2013-04-20	2013-09-21	DC    	15	-1	Y	8	-1	-1	-1	-1	-1	1	1	20	7	7	1	-1	-1
104aa12	1165	0	95	0	10	6	2013-04-20	2013-09-21	DC    	15	-1	U	4	-1	-1	-1	-1	-1	1	1	20	7	8	1	-1	-1
97aa12	1166	0	96	0	10	10	2013-04-20	2013-09-21	DC    	15	-1	Y	8	-1	-1	-1	-1	-1	1	1	20	7	9	1	-1	-1
cag204	1167	0	97	0	10	1	2013-04-20	2013-09-21	DC    	15	-1	U	3	-1	-1	-1	-1	-1	1	1	20	7	10	1	-1	-1
100aa11	1168	0	98	0	10	9	2013-04-20	2013-09-21	DC    	15	-1	U	6	-1	-1	-1	-1	-1	1	1	20	7	11	1	-1	-1
98aa11	1169	0	99	0	10	9	2013-04-20	2013-09-21	DC    	15	-1	Y	8	-1	-1	-1	-1	-1	1	1	20	7	12	1	-1	-1
1cagw02	1170	0	100	0	10	7	2013-04-20	2013-09-21	DC    	15	-1	U	7	-1	-1	-1	-1	-1	1	1	20	7	13	2	-1	-1
93aa11	1171	0	101	0	10	9	2013-04-20	2013-09-21	DC    	15	-1	U	7	-1	-1	-1	-1	-1	1	1	20	7	14	2	-1	-1
103aa11	1172	0	102	0	10	3	2013-04-20	2013-09-21	DC    	15	-1	U	7	-1	-1	-1	-1	-1	1	1	20	7	15	2	-1	-1
1bw1	1173	0	103	0	10	5	2013-04-20	2013-09-21	DC    	15	-1	U	5	-1	-1	-1	-1	-1	1	1	20	7	16	2	-1	-1
cag204	1174	0	104	0	10	1	2013-04-20	2013-09-21	DC    	15	-1	U	4	-1	-1	-1	-1	-1	1	1	20	7	17	2	-1	-1
97aa11	1175	0	105	0	10	7	2013-04-20	2013-09-21	DC    	15	-1	U	6	-1	-1	-1	-1	-1	1	1	20	7	18	2	-1	-1
98aa11	1176	0	106	0	10	10	2013-04-20	2013-09-21	DC    	15	-1	U	5	-1	-1	-1	-1	-1	1	1	20	7	19	2	-1	-1
100aa11	1177	0	107	0	10	7	2013-04-20	2013-09-21	DC    	15	-1	U	7	-1	-1	-1	-1	-1	1	1	20	7	20	2	-1	-1
101aa11	1178	Biased	108	0	10	10	2013-04-20	2013-09-21	DC    	15	-1	Y	9	-1	-1	-1	-1	-1	1	1	20	7	21	2	-1	-1
97aa11	1179	0	109	0	10	7	2013-04-20	2013-09-21	DC    	15	-1	U	9	-1	-1	-1	-1	-1	1	1	20	7	22	3	-1	-1
97aa12	1180	0	110	0	10	8	2013-04-20	2013-09-21	DC    	15	-1	Y	10	-1	-1	-1	-1	-1	1	1	20	7	23	3	-1	-1
100aa11	1181	0	111	0	10	8	2013-04-20	2013-09-21	DC    	15	-1	U	5	-1	-1	-1	-1	-1	1	1	20	7	24	3	-1	-1
98aa11	1182	0	112	0	10	8	2013-04-20	2013-09-21	DC    	15	-1	U	7	-1	-1	-1	-1	-1	1	1	20	7	25	3	-1	-1
95aa11	1183	0	113	0	10	8	2013-04-20	2013-09-21	DC    	15	-1	U	7	-1	-1	-1	-1	-1	1	1	20	7	26	3	-1	-1
93aa11	1184	0	114	0	10	8	2013-04-20	2013-09-21	DC    	15	-1	U	7	-1	-1	-1	-1	-1	1	1	20	7	27	3	-1	-1
104aa12	1185	0	115	0	10	9	2013-04-20	2013-09-21	DC    	15	-1	U	6	-1	-1	-1	-1	-1	1	1	20	7	28	3	-1	-1
1bw1	1186	0	116	0	10	9	2013-04-20	2013-09-21	DC    	15	-1	Y	8	-1	-1	-1	-1	-1	1	1	20	7	29	3	-1	-1
2b3	1187	0	117	0	10	6	2013-04-20	2013-09-21	DC    	15	-1	U	10	-1	-1	-1	-1	-1	1	1	20	8	1	0	-1	-1
2b28	1188	0	118	0	6	5	2013-04-20	2013-09-21	DC    	15	-1	U	5	-1	-1	-1	-1	-1	1	1	20	8	2	0	-1	-1
2b21	1189	0	119	0	6	5	2013-04-20	2013-09-21	DC    	15	-1	U	5	-1	-1	-1	-1	-1	1	1	20	8	3	0	-1	-1
2b30	1190	0	120	0	6	4	2013-04-20	2013-09-21	DC    	15	-1	U	7	-1	-1	-1	-1	-1	1	1	20	8	4	0	-1	-1
2b7	1191	Nice	121	0	6	6	2013-04-20	2013-09-21	DC    	15	-1	Y	8	-1	-1	-1	-1	-1	1	1	20	8	5	0	-1	-1
2b1	1192	0	122	0	6	4	2013-04-20	2013-09-21	DC    	15	-1	U	4	-1	-1	-1	-1	-1	1	1	20	8	6	0	-1	-1
2b9	1193	2 are dead	123	0	6	4	2013-04-20	2013-09-21	DC    	15	-1	U	8	-1	-1	-1	-1	-1	1	1	20	8	7	0	-1	-1
2b11	1194	0	124	0	6	5	2013-04-20	2013-09-21	DC    	15	-1	U	5	-1	-1	-1	-1	-1	1	1	20	8	8	0	-1	-1
2b19	1195	0	125	0	6	5	2013-04-20	2013-09-21	DC    	15	-1	Y	7	-1	-1	-1	-1	-1	1	1	20	8	9	0	-1	-1
2b12	1196	Nice	126	0	6	6	2013-04-20	2013-09-21	DC    	15	-1	Y	5	-1	-1	-1	-1	-1	1	1	20	8	10	0	-1	-1
2b15	1197	Nice	127	0	6	6	2013-04-20	2013-09-21	DC    	15	-1	U	5	-1	-1	-1	-1	-1	1	1	20	8	11	0	-1	-1
2b13	1198	0	128	0	6	6	2013-04-20	2013-09-21	DC    	15	-1	Y	7	-1	-1	-1	-1	-1	1	1	20	8	12	0	-1	-1
2b24	1199	0	129	0	6	6	2013-04-20	2013-09-21	DC    	15	-1	U	7	-1	-1	-1	-1	-1	1	1	20	8	13	0	-1	-1
2b40	1200	0	130	0	6	3	2013-04-20	2013-09-21	DC    	15	-1	U	5	-1	-1	-1	-1	-1	1	1	20	8	14	0	-1	-1
2b18	1201	0	131	0	6	5	2013-04-20	2013-09-21	DC    	15	-1	U	7	-1	-1	-1	-1	-1	1	1	20	8	15	0	-1	-1
2b2	1202	0	132	0	6	6	2013-04-20	2013-09-21	DC    	15	-1	U	4	-1	-1	-1	-1	-1	1	1	20	8	16	0	-1	-1
98aa11	1203	0	133	0	10	8	2013-04-20	2013-09-21	DC    	15	-1	U	7	-1	-1	-1	-1	-1	1	1	20	8	17	4	-1	-1
1cagw03	1204	0	134	0	10	9	2013-04-20	2013-09-21	DC    	15	-1	U	7	-1	-1	-1	-1	-1	1	1	20	8	18	4	-1	-1
100aa12	1205	0	135	0	10	7	2013-04-20	2013-09-21	DC    	15	-1	U	8	-1	-1	-1	-1	-1	1	1	20	8	19	4	-1	-1
97aa12	1206	0	136	0	10	8	2013-04-20	2013-09-21	DC    	15	-1	U	5	-1	-1	-1	-1	-1	1	1	20	8	20	4	-1	-1
92aa11	1207	0	137	0	10	8	2013-04-20	2013-09-21	DC    	15	-1	Y	12	-1	-1	-1	-1	-1	1	1	20	8	21	4	-1	-1
103aa11	1208	0	138	0	10	6	2013-04-20	2013-09-21	DC    	15	-1	U	7	-1	-1	-1	-1	-1	1	1	20	8	22	4	-1	-1
104aa12	1209	0	139	0	10	9	2013-04-20	2013-09-21	DC    	15	-1	U	6	-1	-1	-1	-1	-1	1	1	20	8	23	4	-1	-1
1bw1	1210	biased	140	0	10	9	2013-04-20	2013-09-21	DC    	15	-1	U	10	-1	-1	-1	-1	-1	1	1	20	8	24	4	-1	-1
2b21	1211	clone #21 propagated from root shoots	141	0	17	14	2013-04-20	2013-09-21	RS    	10	-1	U	9	-1	-1	-1	-1	-1	1	1	20	8	25	0	-1	-1
s29	1212	willow	142	0	6	6	2013-04-20	2013-09-21	DC    	15	-1	U	5	-1	-1	-1	-1	-1	1	1	20	8	26	0	-1	-1
3aa202	1213	4' wasp 4-14-13	143	0	1	1	2013-04-20	2013-09-21	WASP  	10	-1	Y	8	-1	-1	-1	-1	-1	1	1	20	8	27	0	-1	-1
22xar	1214	20 potential trees to select from	144	0	42	20	2013-04-20	2013-09-21	SEL   	6	-1	U	6	-1	-1	-1	-1	-1	1	1	20	8	28	0	-1	-1
2b27	1215	Biased edge in this row	145	0	6	5	2013-04-20	2013-09-21	DC    	15	-1	U	4	-1	-1	-1	-1	-1	1	1	20	9	1	0	-1	-1
2b4	1216	0	146	0	6	5	2013-04-20	2013-09-21	DC    	15	-1	U	8	-1	-1	-1	-1	-1	1	1	20	9	2	0	-1	-1
2b29	1217	0	147	0	6	4	2013-04-20	2013-09-21	DC    	15	-1	Y	10	-1	-1	-1	-1	-1	1	1	20	9	3	0	-1	-1
2b31	1218	0	148	0	6	6	2013-04-20	2013-09-21	DC    	15	-1	Y	9	-1	-1	-1	-1	-1	1	1	20	9	4	0	-1	-1
2b26	1219	0	149	0	6	6	2013-04-20	2013-09-21	DC    	15	-1	U	6	-1	-1	-1	-1	-1	1	1	20	9	5	0	-1	-1
2b22	1220	0	150	0	6	6	2013-04-20	2013-09-21	DC    	15	-1	Y	10	-1	-1	-1	-1	-1	1	1	20	9	6	0	-1	-1
2b6	1221	0	151	0	6	5	2013-04-20	2013-09-21	DC    	15	-1	U	7	-1	-1	-1	-1	-1	1	1	20	9	7	0	-1	-1
2b8	1222	0	152	0	6	3	2013-04-20	2013-09-21	DC    	15	-1	U	7	-1	-1	-1	-1	-1	1	1	20	9	8	0	-1	-1
2b5	1223	0	153	0	6	6	2013-04-20	2013-09-21	DC    	15	-1	U	7	-1	-1	-1	-1	-1	1	1	20	9	9	0	-1	-1
2b25	1224	0	154	0	6	6	2013-04-20	2013-09-21	DC    	15	-1	Y	11	-1	-1	-1	-1	-1	1	1	20	9	10	0	-1	-1
2b23	1225	0	155	0	6	4	2013-04-20	2013-09-21	DC    	15	-1	U	8	-1	-1	-1	-1	-1	1	1	20	9	11	0	-1	-1
2b17	1226	0	156	0	6	6	2013-04-20	2013-09-21	DC    	15	-1	Y	8	-1	-1	-1	-1	-1	1	1	20	9	12	0	-1	-1
2b16	1227	0	157	0	6	6	2013-04-20	2013-09-21	DC    	15	-1	Y	10	-1	-1	-1	-1	-1	1	1	20	9	13	0	-1	-1
2b20	1228	0	158	0	6	3	2013-04-20	2013-09-21	DC    	15	-1	U	5	-1	-1	-1	-1	-1	1	1	20	9	14	0	-1	-1
2b10	1229	0	159	0	6	2	2013-04-20	2013-09-21	DC    	15	-1	U	7	-1	-1	-1	-1	-1	1	1	20	9	15	0	-1	-1
2b14	1230	0	160	0	6	6	2013-04-20	2013-09-21	DC    	15	-1	U	7	-1	-1	-1	-1	-1	1	1	20	9	16	0	-1	-1
95aa11	1231	start rep. 4- row 9	161	0	10	8	2013-04-20	2013-09-21	DC    	15	-1	U	5	-1	-1	-1	-1	-1	1	1	20	9	17	4	-1	-1
100aa11	1232	0	162	0	10	6	2013-04-20	2013-09-21	DC    	15	-1	U	9	-1	-1	-1	-1	-1	1	1	20	9	18	4	-1	-1
97aa12	1233	0	163	0	10	9	2013-04-20	2013-09-21	DC    	15	-1	U	6	-1	-1	-1	-1	-1	1	1	20	9	19	4	-1	-1
101aa11	1234	0	164	0	10	9	2013-04-20	2013-09-21	DC    	15	-1	U	6	-1	-1	-1	-1	-1	1	1	20	9	20	4	-1	-1
93aa12	1235	0	165	0	10	8	2013-04-20	2013-09-21	DC    	15	-1	U	5	-1	-1	-1	-1	-1	1	1	20	9	21	4	-1	-1
93aa11	1236	0	166	0	10	10	2013-04-20	2013-09-21	DC    	15	-1	Y	8	-1	-1	-1	-1	-1	1	1	20	9	22	4	-1	-1
104aa11	1237	0	167	0	10	10	2013-04-20	2013-09-21	DC    	15	-1	U	5	-1	-1	-1	-1	-1	1	1	20	9	23	0	-1	-1
2b21	1238	clone 21, 13 plantable	168	0	13	13	2013-04-20	2013-09-21	RS    	10	-1	U	9	-1	-1	-1	-1	-1	1	1	20	9	24	0	-1	-1
6ww	1239	willow	169	0	7	7	2013-04-20	2013-09-21	DC    	15	-1	U	5	-1	-1	-1	-1	-1	1	1	20	9	25	0	-1	-1
22xar	1240	27 plantable/selectable	170	0	38	27	2013-04-20	2013-09-21	SEL   	6	-1	U	7	-1	-1	-1	-1	-1	1	1	20	9	26	0	-1	-1
3xcagc	1241	0	171	0	90	63	2013-04-20	2013-09-21	SEL   	6	-1	U	6	-1	-1	-1	-1	-1	1	1	20	10	1	0	-1	-1
5xcagr	1242	0	172	0	50	37	2013-04-20	2013-09-21	SEL   	6	-1	U	7	-1	-1	-1	-1	-1	1	1	20	10	2	0	-1	-1
2xrr	1243	0	173	0	30	23	2013-04-20	2013-09-21	SEL   	6	-1	U	7	-1	-1	-1	-1	-1	1	1	20	10	3	0	-1	-1
3xcagc	1244	0	174	0	90	61	2013-04-20	2013-09-21	SEL   	6	-1	U	7	-1	-1	-1	-1	-1	1	1	20	11	1	0	-1	-1
5xcagr	1245	0	175	0	70	55	2013-04-20	2013-09-21	SEL   	6	-1	U	6	-1	-1	-1	-1	-1	1	1	20	11	2	0	-1	-1
2xrr	1246	0	176	0	40	29	2013-04-20	2013-09-21	SEL   	6	-1	U	7	-1	-1	-1	-1	-1	1	1	20	11	3	0	-1	-1
105xaa	1247	0	177	0	40	29	2013-04-20	2013-09-21	SEL   	6	-1	U	6	-1	-1	-1	140	-1	1	1	20	12	1	0	-1	-1
4xacag	1248	0	178	0	55	41	2013-04-20	2013-09-21	SEL   	6	-1	U	7	-1	-1	-1	-1	-1	1	1	20	12	2	0	-1	-1
105xaa	1249	0	179	0	40	26	2013-04-20	2013-09-21	SEL   	6	-1	U	6	-1	-1	-1	-1	-1	1	1	20	13	1	0	-1	-1
4xacag	1250	0	180	0	55	42	2013-04-20	2013-09-21	SEL   	6	-1	U	8	-1	-1	-1	-1	-1	1	1	20	13	2	0	-1	-1
4xgw	1251	Tallest is 50inch, which is the ONLY AG	181	0	9	5	2013-07-01	2013-09-21	SEL   	6	-1	U	4	-1	-1	-1	-1	-1	1	1	20	14	1	0	-1	-1
5xgw	1252	0	182	0	9	7	2013-07-01	2013-09-21	SEL   	6	-1	U	4	-1	-1	-1	-1	-1	1	1	20	14	2	0	-1	-1
zoss	1253	From root cutting, figured?	183	0	6	6	2013-07-01	2013-09-21	RS    	6	-1	U	4	-1	-1	-1	-1	-1	1	1	20	14	3	0	-1	-1
4xgw	1254	Nice, 16 are AG, 1 is GG	184	0	17	5	2013-07-01	2013-09-21	SEL   	6	-1	U	8	-1	-1	-1	-1	-1	1	1	20	14	4	0	-1	-1
2xgw	1255	tallest is 30inch, all have a leaf rust. Last 2013 tree.	185	0	4	4	2013-07-01	2013-09-21	SEL   	6	-1	U	4	-1	-1	-1	-1	-1	1	1	20	14	5	0	-1	-1
100aa11	1256	0	0	0	10	9	2014-04-20	2014-09-14	DC    	15	7	U	7	-1	-1	-1	-1	-1	1	1	22	3	13	3	-1	-1
100aa11	1257	0	0	0	10	9	2014-04-20	2014-09-14	DC    	15	10	U	5	-1	-1	-1	-1	-1	1	1	22	4	5	4	-1	-1
100aa12	1258	0	0	0	10	7	2014-04-20	2014-09-14	DC    	15	7	U	8	-1	-1	-1	-1	-1	1	1	22	3	15	3	-1	-1
100aa12	1259	0	0	0	10	6	2014-04-20	2014-09-14	DC    	15	7	U	10	-1	-1	-1	-1	-1	1	1	22	5	5	4	-1	-1
101aa11	1260	Rep 3 - NICE!	0	0	10	10	2014-04-20	2014-09-14	DC    	15	10	Y	9	-1	-1	-1	-1	-1	1	1	22	2	9	3	-1	-1
101aa11	1261	0	0	0	10	10	2014-04-20	2014-09-14	DC    	15	10	Y	8	-1	-1	-1	-1	-1	1	1	22	4	3	4	-1	-1
103aa11	1262	0	0	0	10	6	2014-04-20	2014-09-14	DC    	15	7	U	9	-1	-1	-1	-1	-1	1	1	22	3	17	3	-1	-1
103aa11	1263	0	0	0	10	5	2014-04-20	2014-09-14	DC    	15	7	U	4	-1	-1	-1	-1	-1	1	1	22	4	8	4	-1	-1
104aa11	1264	0	0	0	10	4	2014-04-20	2014-09-14	DC    	15	10	U	10	-1	-1	-1	-1	-1	1	1	22	3	16	3	-1	-1
104aa11	1265	rep 4	0	0	10	6	2014-04-20	2014-09-14	DC    	15	10	U	10	-1	-1	-1	-1	-1	1	1	22	5	1	4	-1	-1
104aa12	1266	ZZ=3mm	0	0	10	10	2014-04-20	2014-09-14	DC    	15	7	Y	6	-1	-1	-1	-1	-1	1	1	22	2	11	3	-1	-1
104aa12	1267	0	0	0	10	9	2014-04-20	2014-09-14	DC    	15	7	U	6	-1	-1	-1	-1	-1	1	1	22	4	4	4	-1	-1
105xaa	1268	ZZ>3mm	0	0	26	22	2014-04-20	2014-09-14	DC    	15	10	U	6	-1	-1	-1	-1	-1	1	1	22	8	6	8	-1	-1
105xaa	1269	0	0	0	26	24	2014-04-20	2014-09-14	ODC   	15	7	U	7	-1	-1	-1	-1	-1	1	1	22	9	6	8	-1	-1
106xaa	1270	ZZ>3mm notes2=TallestHeightCm (Leaf Stem variabilities L=1 H=5 in Leaf_score column)	120	0	16	15	2014-06-28	2014-09-14	SEL   	6	7	U	5	-1	-1	-1	80	2	1	1	22	16	3	10	-1	-1
106xaa	1271	ZZ>3mm	0	0	16	14	2014-06-28	2014-09-14	SEL   	6	7	U	5	-1	-1	-1	-1	-1	1	1	22	17	3	10	-1	-1
107xaa	1272	notes2=TallestHeightCm Leaf undersides not as tomentose as most albas	138	0	34	33	2014-06-28	2014-09-14	SEL   	6	10	U	6	-1	-1	-1	88	3	1	1	22	18	2	10	-1	-1
107xaa	1273	ZZ>3mm	0	0	34	34	2014-06-28	2014-09-14	SEL   	6	10	U	6	-1	-1	-1	-1	-1	1	1	22	19	2	10	-1	-1
11xab	1274	ZZ>3mm notes2=TallestHeightCm Leaves mostly lobed to some intermediate.	135	0	24	20	2014-06-28	2014-09-14	SEL   	6	10	Y	6	-1	-1	-1	101	4	1	1	22	18	3	10	-1	-1
11xab	1275	ZZ>3mm	0	0	25	24	2014-06-28	2014-09-14	SEL   	6	10	Y	6	-1	-1	-1	-1	-1	1	1	22	19	3	10	-1	-1
11xab	1276	0	0	0	19	17	2014-06-28	2014-09-14	SEL   	6	10	U	6	-1	-1	-1	-1	-1	1	1	22	20	1	10	-1	-1
11xab	1277	ZZ>3mm	0	0	19	18	2014-06-28	2014-09-14	WASP  	6	10	U	6	-1	-1	-1	-1	-1	1	1	22	21	1	10	-1	-1
12xrb	1278	ZZ>3mm notes2=TallestHeightCm Intermediate leaves with variable margins.	110	0	7	7	2014-06-28	2014-09-14	SEL   	6	3	U	6	-1	-1	-1	89	4	1	1	22	10	8	10	-1	-1
13xgb	1279	ZZ>3mm notes2=TallestHeightCm	137	0	18	15	2014-06-28	2014-09-14	SEL   	6	7	U	6	-1	-1	-1	102	4	1	1	22	10	13	10	-1	-1
13xgb	1280	ZZ>3mm Has smaller leaves than 18xbg.	0	0	21	20	2014-06-28	2014-09-14	SEL   	6	7	U	7	-1	-1	-1	-1	-1	1	1	22	11	6	10	-1	-1
14xb	1281	Start 2.5 inch spacing.  ZZ>3mm notes2=TallestHeightCm mostly lobed leaves.	142	0	43	43	2014-06-28	2014-09-14	SEL   	6	7	U	6	-1	-1	-1	113	4	1	1	22	14	1	10	-1	-1
14xb	1282	ZZ>3mm	0	0	43	43	2014-06-28	2014-09-14	SEL   	6	7	U	5	-1	-1	-1	-1	-1	1	1	22	15	1	10	-1	-1
15xb	1283	ZZ>3mm	0	0	7	6	2014-06-28	2014-09-14	SEL   	6	3	U	6	-1	-1	-1	-1	-1	1	1	22	10	11	10	-1	-1
15xb	1284	Has tallest tree at 15 mm with a 9 mm collar dia. best family collar=11mm ZZ>3mm notes2=TallestHeightCm Intermediate leaves with variable margins. 	156	0	23	19	2014-06-28	2014-09-14	SEL   	6	7	Y	7	-1	-1	-1	128	3	1	1	22	11	4	10	-1	-1
16xab	1285	ZZ>3mm notes2=TallestHeightCm Lobed leaves.	122	0	20	20	2014-06-28	2014-09-14	SEL   	6	7	U	5	-1	-1	-1	85	4	1	1	22	16	2	10	-1	-1
16xab	1286	ZZ>3mm	0	0	20	20	2014-06-28	2014-09-14	SEL   	6	7	U	5	-1	-1	-1	-1	-1	1	1	22	17	2	10	-1	-1
2b21	1335	ZZ=2.5mm, Nice!	0	0	10	10	2014-04-20	2014-09-14	DC    	15	10	Y	10	-1	-1	-1	170	-1	1	1	22	2	4	2	-1	-1
17xb	1287	ZZ>3mm notes2=TallestHeightCm Intermediate leaves with variable margins.	112	0	12	7	2014-06-28	2014-09-14	SEL   	6	5	U	6	-1	-1	-1	67	4	1	1	22	11	3	10	-1	-1
18xbg	1288	ZZ>3mm	0	0	50	47	2014-06-28	2014-09-14	SEL   	6	10	Y	7	-1	-1	-1	-1	-1	1	1	22	10	12	10	-1	-1
18xbg	1289	Leaves have trace yellow spots (not rust) on some leaves.  ZZ>3mm notes2=TallestHeightCm Intermediate characteristics	133	0	50	50	2014-06-28	2014-09-14	SEL   	6	10	Y	6	-1	-1	-1	107	2	1	1	22	11	5	10	-1	-1
19xgb	1290	ZZ>3mm	0	0	21	20	2014-06-28	2014-09-14	SEL   	6	7	U	6	-1	-1	-1	-1	-1	1	1	22	12	4	10	-1	-1
19xgb	1291	All ortets have yellow spots on leaves (not rust).  ZZ>3mm notes2=TallestHeightCm	126	0	22	20	2014-06-28	2014-09-14	SEL   	6	7	U	6	-1	-1	-1	83	2	1	1	22	13	4	10	-1	-1
1bw1	1292	(2mm ZZ)	0	0	4	3	2014-04-20	2014-09-14	DC    	15	10	U	15	-1	-1	-1	-1	-1	1	1	22	1	17	1	-1	-1
1bw1	1293	0	0	0	10	6	2014-04-20	2014-09-14	DC    	15	10	U	9	-1	-1	-1	-1	-1	1	1	22	2	5	2	-1	-1
1bw1	1294	0	0	0	10	8	2014-04-20	2014-09-14	DC    	15	7	U	6	-1	-1	-1	170	-1	1	1	22	3	6	2	-1	-1
1bw1	1295	0	0	0	10	7	2014-04-20	2014-09-14	DC    	15	10	Y	10	-1	-1	-1	-1	-1	1	1	22	3	18	3	-1	-1
1bw1	1296	0	0	0	10	9	2014-04-20	2014-09-14	DC    	15	10	Y	10	-1	-1	-1	145	-1	1	1	22	5	7	4	-1	-1
1bw1	1297	0	0	0	10	6	2014-04-20	2014-09-14	DC    	15	10	U	10	-1	-1	-1	-1	-1	1	1	22	6	7	6	-1	-1
1bw1	1298	0	0	0	10	9	2014-04-20	2014-09-14	DC    	15	10	Y	9	-1	-1	-1	-1	-1	1	1	22	7	7	6	-1	-1
1cagw02	1299	ZZ=2mm	0	0	10	8	2014-04-20	2014-09-14	DC    	15	10	U	7	-1	-1	-1	-1	-1	1	1	22	2	16	3	-1	-1
1cagw02	1300	0	0	0	10	7	2014-04-20	2014-09-14	DC    	15	7	U	7	-1	-1	-1	-1	-1	1	1	22	4	9	4	-1	-1
1cagw03	1301	0	0	0	10	9	2014-04-20	2014-09-14	DC    	15	7	U	6	-1	-1	-1	-1	-1	1	1	22	3	19	3	-1	-1
1cagw03	1302	0	0	0	10	8	2014-04-20	2014-09-14	DC    	15	10	U	5	-1	-1	-1	-1	-1	1	1	22	4	6	4	-1	-1
1wx	1303	CSSE willow	0	0	2	1	2014-04-20	2014-09-14	1-0   	30	10	U	17	-1	-1	-1	-1	-1	1	1	22	1	2	1	-1	-1
1wx	1304	CSSE willow	0	0	1	1	2014-04-20	2014-09-14	DC    	15	10	U	13	-1	-1	-1	-1	-1	1	1	22	1	5	1	-1	-1
1xbar	1305	notes2=TallestHeightCm Has all leaf shapes/margins, not vigorous.	78	0	3	3	2014-06-28	2014-09-14	SEL   	6	3	U	4	-1	-1	-1	49	5	1	1	22	10	4	9	-1	-1
1xcagw	1306	Ortets Rep 8. The male may be small tooth due to lack of tomentose similar to 7xbt.	0	0	5	3	2014-04-20	2014-09-14	DC    	15	10	Y	13	-1	-1	-1	-1	-1	1	1	22	8	1	8	-1	-1
1xcagw	1307	Alba types	0	0	5	5	2014-04-20	2014-09-14	ODC   	15	5	Y	12	-1	-1	-1	175	-1	1	1	22	9	1	8	-1	-1
20xbs	1308	0	0	0	10	10	2014-06-28	2014-09-14	SEL   	6	7	U	4	-1	-1	-1	-1	-1	1	1	22	16	4	10	-1	-1
20xbs	1309	All ortets have lobed alba like leaves, tomentose. I expect this to be a mistake.	0	0	10	8	2014-06-28	2014-09-14	SEL   	6	7	U	5	-1	-1	-1	-1	-1	1	1	22	17	4	10	-1	-1
20xbs	1310	All ortets have lobed alba like leaves, tomentose. I expect this to be a mistake.	0	0	29	29	2014-06-28	2014-09-14	SEL   	6	7	U	5	-1	-1	-1	-1	-1	1	1	22	18	1	10	-1	-1
20xbs	1311	ZZ>3mm notes2=TallestHeightCm Lobed leaves.	149	0	29	27	2014-06-28	2014-09-14	SEL   	6	7	U	6	-1	-1	-1	80	3	1	1	22	19	1	10	-1	-1
21xba	1312	ZZ>3mm notes2=TallestHeightCm	137	0	21	20	2014-06-28	2014-09-14	SEL   	6	3	U	6	-1	-1	-1	105	3	1	1	22	10	10	10	-1	-1
22xar	1313	Ramets not ortets	0	0	10	6	2014-06-28	2014-09-14	DC    	15	10	U	9	-1	-1	-1	-1	-1	1	1	22	3	5	2	-1	-1
22xar	1314	ZZ>3mm	0	0	20	17	2014-06-28	2014-09-14	DC    	15	7	U	7	-1	-1	-1	-1	-1	1	1	22	8	5	8	-1	-1
22xar	1315	0	0	0	20	18	2014-06-28	2014-09-14	ODC   	15	7	U	7	-1	-1	-1	-1	-1	1	1	22	9	5	8	-1	-1
22xbg	1316	ZZ>3mm	0	0	47	45	2014-06-28	2014-09-14	SEL   	6	7	Y	5	-1	-1	-1	-1	-1	1	1	22	14	2	10	-1	-1
22xbg	1317	4 ortets have varying sized leaf spots. One serious.  ZZ>3mm notes2=TallestHeightCm	130	0	49	48	2014-06-28	2014-09-14	SEL   	6	7	Y	5	-1	-1	-1	90	4	1	1	22	15	2	10	-1	-1
23xba	1318	5 inch spacing, ZZ>3mm 14 have a LOT of Zig Zag, most of which are runts.  	130	0	37	36	2014-06-28	2014-09-14	SEL   	6	10	U	6	-1	-1	-1	101	4	1	1	22	20	2	10	-1	-1
23xba	1319	5 inch spacing. ZZ>3mm	0	0	37	36	2014-06-28	2014-09-14	WASP  	6	10	U	6	-1	-1	-1	-1	-1	1	1	22	21	2	10	-1	-1
23xba	1320	14 have a LOT of Zig Zag. most of which are runts.  ZZ>3mm	0	0	43	33	2014-06-28	2014-09-14	WASP  	6	10	U	6	-1	-1	-1	-1	-1	1	1	22	22	1	10	-1	-1
23xba	1321	ZZ>3mm	0	0	47	43	2014-06-28	2014-09-14	WASP  	6	10	U	6	-1	-1	-1	-1	-1	1	1	22	22	2	10	-1	-1
2b12	1322	0	0	0	10	2	2014-04-20	2014-09-14	DC    	15	10	U	4	-1	-1	-1	-1	-1	1	1	22	7	21	7	-1	-1
2b13	1323	zz=2mm	0	0	10	6	2014-04-20	2014-09-14	DC    	15	7	U	3	-1	-1	-1	-1	-1	1	1	22	7	4	6	-1	-1
2b14	1324	0	0	0	10	7	2014-04-20	2014-09-14	DC    	15	7	U	6	-1	-1	-1	-1	-1	1	1	22	4	16	5	-1	-1
2b14	1325	0	0	0	10	4	2014-04-20	2014-09-14	DC    	15	7	U	8	-1	-1	-1	-1	-1	1	1	22	7	16	7	-1	-1
2b16	1326	0	0	0	10	4	2014-04-20	2014-09-14	DC    	15	10	U	10	-1	-1	-1	-1	-1	1	1	22	4	13	5	-1	-1
2b16	1327	0	0	0	10	4	2014-04-20	2014-09-14	DC    	15	10	U	15	-1	-1	-1	-1	-1	1	1	22	6	16	7	-1	-1
2b16	1328	0	0	0	10	6	2014-04-20	2014-09-14	DC    	15	7	U	7	-1	-1	-1	-1	-1	1	1	22	7	3	6	-1	-1
2b17	1329	0	0	0	10	7	2014-04-20	2014-09-14	DC    	15	7	U	8	-1	-1	-1	-1	-1	1	1	22	4	17	5	-1	-1
2b17	1330	0	0	0	10	6	2014-04-20	2014-09-14	DC    	15	7	U	6	-1	-1	-1	-1	-1	1	1	22	7	19	7	-1	-1
2b19	1331	0	0	0	10	7	2014-04-20	2014-09-14	DC    	15	5	U	5	-1	-1	-1	-1	-1	1	1	22	4	15	5	-1	-1
2b19	1332	ZZ>3mm	0	0	10	4	2014-04-20	2014-09-14	DC    	15	7	U	7	-1	-1	-1	-1	-1	1	1	22	7	18	7	-1	-1
2b2	1333	0	0	0	10	5	2014-04-20	2014-09-14	DC    	15	7	U	7	-1	-1	-1	-1	-1	1	1	22	6	6	6	-1	-1
2b2	1334	0	0	0	10	3	2014-04-20	2014-09-14	DC    	15	5	U	3	-1	-1	-1	-1	-1	1	1	22	6	20	7	-1	-1
2b21	1336	ZZ=2mm	0	0	10	8	2014-04-20	2014-09-14	DC    	15	10	U	10	-1	-1	-1	-1	-1	1	1	22	3	4	2	-1	-1
2b21	1337	zz=2mm	0	0	10	8	2014-04-20	2014-09-14	DC    	15	10	U	7	-1	-1	-1	-1	-1	1	1	22	6	5	6	-1	-1
2b21	1338	zz=2mm	0	0	10	9	2014-04-20	2014-09-14	DC    	15	10	U	8	-1	-1	-1	-1	-1	1	1	22	7	6	6	-1	-1
2b22	1339	0	0	0	10	7	2014-04-20	2014-09-14	DC    	15	7	U	11	-1	-1	-1	-1	-1	1	1	22	5	14	5	-1	-1
2b22	1340	biased	0	0	10	7	2014-04-20	2014-09-14	DC    	15	7	U	13	-1	-1	-1	-1	-1	1	1	22	6	14	7	-1	-1
2b24	1341	0	0	0	10	6	2014-04-20	2014-09-14	DC    	15	7	U	8	-1	-1	-1	-1	-1	1	1	22	4	11	5	-1	-1
2b24	1342	0	0	0	10	5	2014-04-20	2014-09-14	DC    	15	7	U	10	-1	-1	-1	-1	-1	1	1	22	6	3	6	-1	-1
2b25	1343	Nice! Rep 5	0	0	10	7	2014-04-20	2014-09-14	DC    	15	7	Y	11	-1	-1	-1	206	-1	1	1	22	4	10	5	-1	-1
2b25	1344	0	0	0	10	7	2014-04-20	2014-09-14	DC    	15	7	Y	15	-1	-1	-1	271	-1	1	1	22	5	12	5	-1	-1
2b25	1345	0	0	0	10	5	2014-04-20	2014-09-14	DC    	15	10	U	13	-1	-1	-1	208	-1	1	1	22	6	18	7	-1	-1
2b26	1346	ZZ>3mm	0	0	10	5	2014-04-20	2014-09-14	DC    	15	7	U	4	-1	-1	-1	-1	-1	1	1	22	4	12	5	-1	-1
2b26	1347	0	0	0	10	6	2014-04-20	2014-09-14	DC    	15	10	U	8	-1	-1	-1	-1	-1	1	1	22	6	15	7	-1	-1
2b29	1348	0	0	0	10	6	2014-04-20	2014-09-14	DC    	15	10	U	7	-1	-1	-1	-1	-1	1	1	22	4	14	5	-1	-1
2b29	1349	zz=2mm	0	0	10	6	2014-04-20	2014-09-14	DC    	15	10	U	8	-1	-1	-1	-1	-1	1	1	22	7	14	7	-1	-1
2b3	1350	0	0	0	10	7	2014-04-20	2014-09-14	DC    	15	10	U	11	-1	-1	-1	-1	-1	1	1	22	6	19	7	-1	-1
2b3	1351	0	0	0	10	9	2014-04-20	2014-09-14	DC    	15	10	U	11	-1	-1	-1	-1	-1	1	1	22	6	21	7	-1	-1
2b3	1352	zz=2mm	0	0	10	7	2014-04-20	2014-09-14	DC    	15	10	U	8	-1	-1	-1	-1	-1	1	1	22	7	5	6	-1	-1
2b30	1353	0	0	0	10	4	2014-04-20	2014-09-14	DC    	15	10	U	7	-1	-1	-1	-1	-1	1	1	22	6	4	6	-1	-1
2b31	1354	0	0	0	10	4	2014-04-20	2014-09-14	DC    	15	7	U	11	-1	-1	-1	-1	-1	1	1	22	5	11	5	-1	-1
2b31	1355	0	0	0	10	4	2014-04-20	2014-09-14	DC    	15	10	U	9	-1	-1	-1	-1	-1	1	1	22	5	16	5	-1	-1
2b31	1356	0	0	0	10	8	2014-04-20	2014-09-14	DC    	15	10	U	6	-1	-1	-1	-1	-1	1	1	22	7	2	6	-1	-1
2b31	1357	0	0	0	3	1	2014-04-20	2014-09-14	ODC   	15	7	U	10	-1	-1	-1	-1	-1	1	1	22	8	17	8	-1	-1
2b4	1358	0	0	0	10	8	2014-04-20	2014-09-14	DC    	15	7	Y	9	-1	-1	-1	-1	-1	1	1	22	5	15	5	-1	-1
2b4	1359	0	0	0	10	5	2014-04-20	2014-09-14	DC    	15	7	U	11	-1	-1	-1	-1	-1	1	1	22	7	15	7	-1	-1
2b4	1360	0	0	0	10	5	2014-04-20	2014-09-14	DC    	15	10	U	10	-1	-1	-1	-1	-1	1	1	22	7	20	7	-1	-1
2b41	1361	0	0	0	10	2	2014-04-20	2014-09-14	DC    	15	10	U	3	-1	-1	-1	-1	-1	1	1	22	6	13	6	-1	-1
2b42	1362	0	0	0	8	2	2014-04-20	2014-09-14	DC    	15	10	U	13	-1	-1	-1	-1	-1	1	1	22	1	19	2	-1	-1
2b5	1363	0	0	0	10	5	2014-04-20	2014-09-14	DC    	15	10	U	5	-1	-1	-1	-1	-1	1	1	22	5	17	5	-1	-1
2b6	1364	0	0	0	10	8	2014-04-20	2014-09-14	DC    	15	7	Y	9	-1	-1	-1	-1	-1	1	1	22	5	13	5	-1	-1
2b6	1365	zz=2mm	0	0	10	7	2014-04-20	2014-09-14	DC    	15	5	U	10	-1	-1	-1	-1	-1	1	1	22	7	17	7	-1	-1
2b7	1366	rep 5	0	0	10	6	2014-04-20	2014-09-14	DC    	15	7	U	10	-1	-1	-1	-1	-1	1	1	22	5	10	5	-1	-1
2b7	1367	0	0	0	10	8	2014-04-20	2014-09-14	DC    	15	10	U	9	-1	-1	-1	-1	-1	1	1	22	6	2	6	-1	-1
2b50	1368	Nice 2014 selection for vigor (301 cm tall).	0	0	1	1	2014-04-20	2014-09-14	DC    	15	10	Y	18	-1	-1	-1	301	-1	1	1	22	2	1	2	-1	-1
2b51	1369	Nice 2014 selection for dark red fall leaves	0	0	1	1	2014-04-20	2014-09-14	DC    	15	10	Y	14	-1	-1	-1	216	-1	1	1	22	2	1	2	-1	-1
2rr1	1370	ZZ>3mm	0	0	8	2	2014-04-20	2014-09-14	DC    	15	5	U	5	-1	-1	-1	-1	-1	1	1	22	8	13	8	-1	-1
2rr10	1371	0	0	0	8	0	2014-04-20	2014-09-14	DC    	15	7	U	0	-1	-1	-1	-1	-1	1	1	22	8	9	8	-1	-1
2rr2	1372	0	0	0	8	1	2014-04-20	2014-09-14	ODC   	15	7	U	10	-1	-1	-1	-1	-1	1	1	22	9	12	8	-1	-1
2rr3	1373	0	0	0	8	2	2014-04-20	2014-09-14	ODC   	15	10	U	9	-1	-1	-1	-1	-1	1	1	22	9	9	8	-1	-1
2rr4	1374	0	0	0	8	2	2014-04-20	2014-09-14	ODC   	15	5	U	3	-1	-1	-1	-1	-1	1	1	22	9	13	8	-1	-1
2rr6	1375	0	0	0	8	2	2014-04-20	2014-09-14	ODC   	15	7	U	5	-1	-1	-1	-1	-1	1	1	22	9	10	8	-1	-1
2rr7	1376	0	0	0	8	3	2014-04-20	2014-09-14	DC    	15	5	U	4	-1	-1	-1	-1	-1	1	1	22	8	12	8	-1	-1
2rr8	1377	0	0	0	8	3	2014-04-20	2014-09-14	DC    	15	7	U	3	-1	-1	-1	-1	-1	1	1	22	8	10	8	-1	-1
2rr9	1378	0	0	0	8	0	2014-04-20	2014-09-14	ODC   	15	10	U	0	-1	-1	-1	-1	-1	1	1	22	9	11	8	-1	-1
2ww	1379	CC Gold Willow	0	0	3	3	2014-04-20	2014-09-14	DC    	15	10	U	13	-1	-1	-1	-1	-1	1	1	22	1	4	1	-1	-1
2xb	1380	Ortets. Nice! 5 selections, 2 for ZZ, one is huge!  (was renamed from 2xcag12)	0	0	22	17	2014-04-20	2014-09-14	DC    	15	10	U	12	-1	-1	-1	-1	-1	1	1	22	2	1	2	-1	-1
2xb	1381	Ortets (was renamed from 2xcag12)	0	0	21	12	2014-04-20	2014-09-14	DC    	15	5	U	9	-1	-1	-1	-1	-1	1	1	22	2	2	2	-1	-1
2xb	1382	Ortets (was renamed from 2xcag12)	0	0	18	14	2014-04-20	2014-09-14	DC    	15	5	U	7	-1	-1	-1	-1	-1	1	1	22	3	3	2	-1	-1
2xrr	1383	Highly variable	0	0	24	12	2014-04-20	2014-09-14	DC    	15	7	U	7	-1	-1	-1	-1	-1	1	1	22	8	2	8	-1	-1
2xrr	1384	0	0	0	24	18	2014-04-20	2014-09-14	ODC   	15	7	U	7	-1	-1	-1	-1	-1	1	1	22	9	2	8	-1	-1
3aa202	1385	2013 P4 parent (2 mm ZZ) keep Wasp 4/14	0	0	1	1	2014-04-20	2014-09-14	WASP  	6	10	Y	10	-1	-1	-1	-1	-1	1	1	22	1	9	1	-1	-1
3xcagc	1386	ZZ>3mm	0	0	17	13	2014-04-20	2014-09-14	DC    	15	10	Y	6	-1	-1	-1	-1	-1	1	1	22	8	4	8	-1	-1
3xcagc	1387	Nice!	0	0	18	14	2014-04-20	2014-09-14	ODC   	15	10	Y	9	-1	-1	-1	-1	-1	1	1	22	9	4	8	-1	-1
3xrr	1388	ZZ>3mm notes2=TallestHeightCm	118	0	11	11	2014-04-20	2014-09-14	SEL   	6	3	U	7	-1	-1	-1	78	4	1	1	22	10	9	10	-1	-1
41aa111	1389	P3 Parent	0	0	2	2	2014-04-20	2014-09-14	1-1   	30	10	U	13	-1	-1	-1	-1	-1	1	1	22	1	12	1	-1	-1
4acag2	1390	0	0	0	8	5	2014-04-20	2014-09-14	ODC   	15	10	U	12	-1	-1	-1	-1	-1	1	1	22	8	16	8	-1	-1
4acag3	1391	0	0	0	8	5	2014-04-20	2014-09-14	ODC   	15	7	Y	14	-1	-1	-1	-1	-1	1	1	22	9	14	8	-1	-1
4ab4	1392	Verify Clone ID	0	0	8	6	2014-04-20	2014-09-14	ODC   	15	10	Y	15	-1	-1	-1	-1	-1	1	1	22	9	17	8	-1	-1
4cag1	1393	ok	0	0	8	5	2014-04-20	2014-09-14	DC    	15	7	U	3	-1	-1	-1	-1	-1	1	1	22	8	11	8	-1	-1
4gw1	1394	0	0	0	8	0	2014-04-20	2014-09-14	ODC   	15	7	U	0	-1	-1	-1	-1	-1	1	1	22	8	15	8	-1	-1
4gw2	1395	0	0	0	8	0	2014-04-20	2014-09-14	ODC   	15	10	U	0	-1	-1	-1	-1	-1	1	1	22	8	14	8	-1	-1
4gw3	1396	0	0	0	8	1	2014-04-20	2014-09-14	ODC   	15	5	U	15	-1	-1	-1	-1	-1	1	1	22	9	15	8	-1	-1
4xacag	1397	0	0	0	37	27	2014-04-20	2014-09-14	DC    	15	7	U	6	-1	-1	-1	-1	-1	1	1	22	8	8	8	-1	-1
4xacag	1398	0	0	0	38	33	2014-04-20	2014-09-14	ODC   	15	10	U	7	-1	-1	-1	-1	-1	1	1	22	9	8	8	-1	-1
4xgw	1399	Some have zz=5mm. GA types measured only. 	0	0	8	4	2014-04-20	2014-09-14	DC    	15	10	Y	9	-1	-1	-1	-1	-1	1	1	22	8	3	8	-1	-1
4xgw	1400	ZZ>3mm	0	0	7	5	2014-04-20	2014-09-14	ODC   	15	10	U	12	-1	-1	-1	-1	-1	1	1	22	9	3	8	-1	-1
4xgw	1401	ZZ>3mm notes2=TallestHeightCm	123	0	23	19	2014-06-28	2014-09-14	SEL   	6	5	U	5	-1	-1	-1	104	4	1	1	22	12	5	10	-1	-1
4xgw	1402	End 2 inch spacing.  ZZ>3mm	0	0	22	19	2014-06-28	2014-09-14	SEL   	6	5	U	6	-1	-1	-1	-1	-1	1	1	22	13	5	10	-1	-1
4xrr	1403	Very diverse, ZZ>3mm notes2=TallestHeightCm	110	0	6	6	2014-06-28	2014-09-14	SEL   	6	7	U	6	-1	-1	-1	70	5	1	1	22	11	2	10	-1	-1
5xcagr	1404	Ortets	0	0	10	6	2014-04-20	2014-09-14	DC    	15	10	U	6	-1	-1	-1	-1	-1	1	1	22	2	3	2	-1	-1
5xcagr	1405	ZZ>3mm	0	0	39	30	2014-04-20	2014-09-14	DC    	15	7	U	8	-1	-1	-1	-1	-1	1	1	22	8	7	8	-1	-1
5xcagr	1406	0	0	0	42	36	2014-04-20	2014-09-14	ODC   	15	7	U	6	-1	-1	-1	-1	-1	1	1	22	9	7	8	-1	-1
5xGW	1407	GA ortets - Poor - P. smithii - discard 	0	0	3	3	2014-04-20	2014-09-14	DC    	15	5	U	7	-1	-1	-1	-1	-1	1	1	22	1	8	1	-1	-1
5xrb	1408	Highly variable, ZZ>3mm notes2=TallestHeightCm	128	0	17	14	2014-06-28	2014-09-14	SEL   	6	7	U	5	-1	-1	-1	60	5	1	1	22	12	3	10	-1	-1
5xrb	1409	notes2=TallestHeightCm	0	0	16	12	2014-06-28	2014-09-14	SEL   	6	7	U	5	-1	-1	-1	-1	-1	1	1	22	13	3	10	-1	-1
6ww	1410	willow	0	0	3	3	2014-04-20	2014-09-14	1-0   	30	10	U	13	-1	-1	-1	-1	-1	1	1	22	1	3	1	-1	-1
6xba	1411	ZZ>3mm notes2=TallestHeightCm	115	0	24	23	2014-06-28	2014-09-14	SEL   	6	7	U	5	-1	-1	-1	82	2	1	1	22	12	2	10	-1	-1
6xba	1412	ZZ>3mm	0	0	24	23	2014-06-28	2014-09-14	SEL   	6	7	U	5	-1	-1	-1	-1	-1	1	1	22	13	2	10	-1	-1
7xbt	1413	Many ortets have blotchy yellowing late leaves. ZZ>3mm notes2=TallestHeightCm	141	0	46	42	2014-06-28	2014-09-14	SEL   	6	10	Y	5	-1	-1	-1	100	3	1	1	22	16	1	10	-1	-1
7xbt	1414	All have green leave undersides, similar to the 1xCAGW aspen types.  	0	0	46	41	2014-06-28	2014-09-14	SEL   	6	10	Y	6	-1	-1	-1	-1	-1	1	1	22	17	1	10	-1	-1
80aa3mf	1415	P3 Parent (2 mm ZZ)	0	0	2	2	2014-04-20	2014-09-14	1-0   	30	10	Y	14	-1	-1	-1	-1	-1	1	1	22	1	13	1	-1	-1
80aa3mf	1416	May have Topophysis? WASP started 4/17.	0	0	4	3	2014-04-20	2014-09-14	WASP  	6	5	U	13	-1	-1	-1	-1	-1	1	1	22	10	2	9	-1	-1
82aa3	1417	0	0	0	10	0	2014-06-28	2014-09-14	WASP  	6	5	U	0	-1	-1	-1	-1	-1	1	1	22	3	1	2	-1	-1
82aa3	1418	May have Topophysis? WASP started 4/14. 	0	0	1	1	2014-06-28	2014-09-14	WASP  	6	5	U	7	-1	-1	-1	-1	-1	1	1	22	10	5	9	-1	-1
83aa1mf	1419	P3 Parent	0	0	1	1	2014-04-20	2014-09-14	1-0   	30	10	U	14	-1	-1	-1	-1	-1	1	1	22	1	14	1	-1	-1
83aa1mf	1420	0	0	0	10	1	2014-04-20	2014-09-14	1-0   	30	10	U	5	-1	-1	-1	-1	-1	1	1	22	3	10	2	-1	-1
83aa2mf	1421	P3 Parent	0	0	2	2	2014-04-20	2014-09-14	1-0   	30	10	U	14	-1	-1	-1	-1	-1	1	1	22	1	11	1	-1	-1
83aa565	1422	tiny cuttings	0	0	10	0	2014-04-20	2014-09-14	DC    	15	3	U	0	-1	-1	-1	-1	-1	1	1	22	3	7	2	-1	-1
83aa565	1423	small cuttings	0	0	10	0	2014-04-20	2014-09-14	DC    	15	5	U	0	-1	-1	-1	-1	-1	1	1	22	3	8	2	-1	-1
83aa5mf	1424	0	0	0	10	5	2014-04-20	2014-09-14	DC    	15	3	U	5	-1	-1	-1	-1	-1	1	1	22	3	2	2	-1	-1
83aa85f	1425	Discard? ZZ>3mm	0	0	6	1	2014-04-20	2014-09-14	ODC   	15	7	U	12	-1	-1	-1	-1	-1	1	1	22	8	18	8	-1	-1
89aa1	1426	0	0	0	10	0	2014-04-20	2014-09-14	DC    	15	7	U	0	-1	-1	-1	-1	-1	1	1	22	6	10	6	-1	-1
89aa1	1427	zz=2mm ok	0	0	10	3	2014-04-20	2014-09-14	DC    	15	10	U	5	-1	-1	-1	-1	-1	1	1	22	7	13	6	-1	-1
89aa10	1428	0	0	0	10	2	2014-04-20	2014-09-14	DC    	15	7	U	4	-1	-1	-1	-1	-1	1	1	22	7	8	6	-1	-1
89aa2	1429	0	0	0	10	0	2014-04-20	2014-09-14	DC    	15	7	U	0	-1	-1	-1	-1	-1	1	1	22	6	12	6	-1	-1
89aa3	1430	0	0	0	10	0	2014-04-20	2014-09-14	DC    	15	5	U	0	-1	-1	-1	-1	-1	1	1	22	7	11	6	-1	-1
89aa4	1431	Early good rooter. ok	0	0	10	4	2014-04-20	2014-09-14	DC    	15	10	U	6	-1	-1	-1	50	-1	1	1	22	7	10	6	-1	-1
89aa5	1432	was 89xaa10-5	0	0	10	1	2014-04-20	2014-09-14	DC    	15	7	U	10	-1	-1	-1	-1	-1	1	1	22	6	8	6	-1	-1
89aa6	1433	0	0	0	10	0	2014-04-20	2014-09-14	DC    	15	7	U	0	-1	-1	-1	-1	-1	1	1	22	7	9	6	-1	-1
89aa7	1434	0	0	0	10	1	2014-04-20	2014-09-14	DC    	15	5	U	4	-1	-1	-1	-1	-1	1	1	22	7	12	6	-1	-1
89aa8	1435	0	0	0	10	0	2014-04-20	2014-09-14	DC    	15	10	U	0	-1	-1	-1	-1	-1	1	1	22	6	9	6	-1	-1
89aa9	1436	0	0	0	10	1	2014-04-20	2014-09-14	DC    	15	7	U	5	-1	-1	-1	-1	-1	1	1	22	6	11	6	-1	-1
8xbg	1437	ZZ>3mm notes2=TallestHeightCm	119	0	23	23	2014-06-28	2014-09-14	SEL   	6	7	U	6	-1	-1	-1	90	2	1	1	22	12	1	10	-1	-1
8xbg	1438	ZZ>3mm	0	0	24	23	2014-06-28	2014-09-14	SEL   	6	7	U	6	-1	-1	-1	-1	-1	1	1	22	13	1	10	-1	-1
92aa11	1439	ZZ>3mm	0	0	10	6	2014-04-20	2014-09-14	DC    	15	10	Y	9	-1	-1	-1	-1	-1	1	1	22	2	15	3	-1	-1
92aa11	1440	1st tree in rep is 8'+.  ZZ>3mm	0	0	10	7	2014-04-20	2014-09-14	DC    	15	10	Y	10	-1	-1	-1	-1	-1	1	1	22	4	2	4	-1	-1
93aa11	1441	0	0	0	10	7	2014-04-20	2014-09-14	DC    	15	10	U	13	-1	-1	-1	203	-1	1	1	22	2	14	3	-1	-1
93aa11	1442	0	0	0	10	4	2014-04-20	2014-09-14	DC    	15	10	U	4	-1	-1	-1	-1	-1	1	1	22	4	7	4	-1	-1
93aa12	1443	ZZ=3mm	0	0	10	5	2014-04-20	2014-09-14	DC    	15	7	Y	6	-1	-1	-1	104	-1	1	1	22	2	13	3	-1	-1
93aa12	1444	0	0	0	10	7	2014-04-20	2014-09-14	DC    	15	7	U	7	-1	-1	-1	-1	-1	1	1	22	5	2	4	-1	-1
95aa11	1445	0	0	0	10	10	2014-04-20	2014-09-14	DC    	15	10	U	8	-1	-1	-1	-1	-1	1	1	22	2	10	3	-1	-1
95aa11	1446	0	0	0	10	9	2014-04-20	2014-09-14	DC    	15	10	U	7	-1	-1	-1	-1	-1	1	1	22	5	3	4	-1	-1
97aa11	1447	shaded	0	0	10	6	2014-04-20	2014-09-14	DC    	15	7	U	7	-1	-1	-1	-1	-1	1	1	22	3	20	3	-1	-1
97aa11	1448	Rep 4	0	0	10	10	2014-04-20	2014-09-14	DC    	15	7	U	7	-1	-1	-1	-1	-1	1	1	22	4	1	4	-1	-1
97aa12	1449	0	0	0	10	8	2014-04-20	2014-09-14	DC    	15	10	U	9	-1	-1	-1	-1	-1	1	1	22	3	14	3	-1	-1
97aa12	1450	0	0	0	10	7	2014-04-20	2014-09-14	DC    	15	10	U	7	-1	-1	-1	-1	-1	1	1	22	5	9	4	-1	-1
98aa11	1451	ZZ=2mm shaded	0	0	10	5	2014-04-20	2014-09-14	DC    	15	10	U	7	-1	-1	-1	-1	-1	1	1	22	2	17	3	-1	-1
98aa11	1452	ZZ=2mm Nice!	0	0	10	9	2014-04-20	2014-09-14	DC    	15	10	Y	7	-1	-1	-1	-1	-1	1	1	22	3	12	3	-1	-1
98aa11	1453	0	0	0	10	10	2014-04-20	2014-09-14	DC    	15	10	U	6	-1	-1	-1	-1	-1	1	1	22	5	4	4	-1	-1
98aa11	1454	0	0	0	10	9	2014-04-20	2014-09-14	DC    	15	10	U	9	-1	-1	-1	-1	-1	1	1	22	5	8	4	-1	-1
9xbr	1455	ZZ>3mm notes2=TallestHeightCm 50/50 lobed to intermediate leaves.	122	0	4	4	2014-06-28	2014-09-14	SEL   	6	7	U	8	-1	-1	-1	80	5	1	1	22	11	1	10	-1	-1
a502	1456	P1/2/3 Parent	0	0	3	3	2014-04-20	2014-09-14	1-0   	30	10	U	15	-1	-1	-1	-1	-1	1	1	22	1	10	1	-1	-1
aag2001	1457	May have Topophysis? WASP started 4/2	0	0	3	3	2014-04-20	2014-09-14	WASP  	6	3	U	3	-1	-1	-1	40	-1	1	1	22	10	3	9	-1	-1
agrr1	1458	zz=2mm (verify this on ortet)	0	0	2	2	2014-04-20	2014-09-14	1-0   	30	10	U	15	-1	-1	-1	89	-1	1	1	22	7	22	7	-1	-1
agrr1	1459	0	0	0	3	0	2014-04-20	2014-09-14	DC    	15	5	U	0	-1	-1	-1	-1	-1	1	1	22	7	23	7	-1	-1
c173	1460	3/4 inch collar,Topophysis? Replace? 8 foot tall	0	0	1	1	2014-04-20	2014-09-14	1-0   	30	10	U	20	-1	-1	-1	-1	-1	1	1	22	1	7	1	-1	-1
c173	1461	0	0	0	4	0	2014-04-20	2014-09-14	1-0   	30	10	U	0	-1	-1	-1	-1	-1	1	1	22	3	9	2	-1	-1
c173	1462	May have Topophysis? WASP started 4/17.	0	0	5	4	2014-04-20	2014-09-14	WASP  	6	10	U	10	-1	-1	-1	-1	-1	1	1	22	10	1	9	-1	-1
cag204	1463	3 plantable	0	0	10	0	2014-04-20	2014-09-14	DC    	15	7	U	0	-1	-1	-1	145	-1	1	1	22	2	6	2	-1	-1
cag204	1464	0	0	0	10	5	2014-04-20	2014-09-14	DC    	15	10	U	7	-1	-1	-1	-1	-1	1	1	22	2	7	2	-1	-1
dn34	1465	Control clone	0	0	3	3	2014-04-20	2014-09-14	DC    	15	7	U	6	-1	-1	-1	138	-1	1	1	22	1	18	1	-1	-1
dn34	1466	0	0	0	19	12	2014-04-20	2014-09-14	DC    	15	7	U	7	-1	-1	-1	-1	-1	1	1	22	2	8	2	-1	-1
dn34	1467	0	0	0	10	9	2014-04-20	2014-09-14	DC    	15	7	U	5	-1	-1	-1	-1	-1	1	1	22	2	12	3	-1	-1
dn34	1468	0	0	0	10	7	2014-04-20	2014-09-14	DC    	15	7	U	6	-1	-1	-1	-1	-1	1	1	22	3	11	2	-1	-1
dn34	1469	0	0	0	10	9	2014-04-20	2014-09-14	DC    	15	7	U	9	-1	-1	-1	-1	-1	1	1	22	5	6	4	-1	-1
Misc	1470	willow	0	0	1	1	2014-04-20	2014-09-14	SEL   	6	7	U	12	-1	-1	-1	-1	-1	1	1	22	10	6	9	-1	-1
nfa	1471	P3 Parent	0	0	2	2	2014-04-20	2014-09-14	1-0   	30	10	U	13	-1	-1	-1	-1	-1	1	1	22	1	15	1	-1	-1
opwillow	1472	OP willow seedlings from Ryans house	0	0	25	15	2014-04-20	2014-09-14	SEL   	6	3	U	3	-1	-1	-1	-1	-1	1	1	22	23	1	11	-1	-1
pfchang	1473	willow Need correct ID	0	0	1	1	2014-04-20	2014-09-14	1-0   	30	10	U	20	-1	-1	-1	-1	-1	1	1	22	1	1	1	-1	-1
pfchang	1474	willow	0	0	9	7	2014-04-20	2014-09-14	DC    	15	7	U	4	-1	-1	-1	-1	-1	1	1	22	7	1	6	-1	-1
plaza	1475	WASP started Topophysis? Replace? ZZ>3mm	0	0	3	3	2014-06-28	2014-09-14	WASP  	6	5	U	7	-1	-1	-1	-1	-1	1	1	22	10	7	9	-1	-1
rr5	1476	0	0	0	8	5	2014-04-20	2014-09-14	ODC   	15	10	U	4	-1	-1	-1	-1	-1	1	1	22	9	16	8	-1	-1
tcalba	1477	Needs ID (tc72)	0	0	2	2	2014-04-20	2014-09-14	1-0   	30	10	U	15	-1	-1	-1	-1	-1	1	1	22	1	16	1	-1	-1
wg34	1478	willow	0	0	12	6	2014-04-20	2014-09-14	DC    	15	5	U	4	-1	-1	-1	-1	-1	1	1	22	5	20	5	-1	-1
wgg32	1479	willow	0	0	10	9	2014-04-20	2014-09-14	DC    	15	7	U	4	-1	-1	-1	-1	-1	1	1	22	5	19	5	-1	-1
wgr33	1480	willow nice gold	0	0	13	7	2014-04-20	2014-09-14	DC    	15	7	U	4	-1	-1	-1	-1	-1	1	1	22	4	18	5	-1	-1
wr31	1481	willow	0	0	20	14	2014-04-20	2014-09-14	DC    	15	5	U	5	-1	-1	-1	-1	-1	1	1	22	4	19	5	-1	-1
wy14	1482	willow	0	0	12	8	2014-04-20	2014-09-14	DC    	15	7	U	4	-1	-1	-1	-1	-1	1	1	22	5	18	5	-1	-1
zoss	1483	Send to Zoss in SD, Nice	0	0	5	5	2014-04-20	2014-09-14	1-0   	30	10	U	13	-1	-1	-1	-1	-1	1	1	22	1	6	1	-1	-1
zoss	1484	rep 6	0	0	10	1	2014-04-20	2014-09-14	1-0   	30	7	U	3	-1	-1	-1	-1	-1	1	1	22	6	1	6	-1	-1
100aa11	1485	Mini-Stools - nice	10	100aa11~34-54 6rep 3dot	3	3	2015-05-08	2015-09-15	1-1   	-1	11	U	-1	15	15	-1	-1	-1	1	1	23	1	10	4	-1	-1
100aa11	1486	0	34	100aa11~34-54	10	9	2015-05-08	2015-09-15	DC    	-1	7	U	7	-1	-1	-1	-1	-1	1	1	23	2	6	1	-1	-1
100aa11	1487	0	44	100aa11~34-54	10	8	2015-05-08	2015-09-15	DC    	-1	10	U	7	-1	-1	-1	-1	-1	1	1	23	2	16	1	-1	-1
100aa11	1488	0	72	100aa11~34-54	10	9	2015-05-08	2015-09-15	DC    	-1	9	U	7	-1	-1	-1	-1	-1	1	1	23	4	5	2	-1	-1
100aa11	1489	0	85	100aa11~34-54	10	6	2015-05-08	2015-09-15	DC    	-1	6	U	7	-1	-1	-1	-1	-1	1	1	23	4	18	2	-1	-1
100aa12	1490	Mini-Stools, nice	25	100aa12~53-33 8rep 3dot 	3	3	2015-05-08	2015-09-15	1-1   	-1	11	U	-1	16	16	-1	-1	-1	1	1	23	1	25	4	-1	-1
100aa12	1491	0	47	100aa12~53-33	10	6	2015-05-08	2015-09-15	DC    	-1	11	U	6	-1	-1	-1	-1	-1	1	1	23	2	19	1	-1	-1
100aa12	1492	0	54	100aa12~53-33	10	4	2015-05-08	2015-09-15	DC    	-1	9	U	10	-1	-1	-1	-1	-1	1	1	23	3	7	1	-1	-1
100aa12	1493	0	92	100aa12~53-33	10	5	2015-05-08	2015-09-15	DC    	-1	8	U	13	-1	-1	-1	-1	-1	1	1	23	5	4	2	-1	-1
100aa12	1494	0	363	100aa12~53-33	10	8	2015-05-08	2015-09-15	DC    	-1	8	Y	10	-1	-1	-1	-1	-1	1	1	23	19	5	3	-1	-1
101aa11	1495	Mini-Stools	13	101aa11~3-1 8rep 8whip 3dot	3	3	2015-05-08	2015-09-15	1-1   	-1	11	U	-1	14	14	-1	-1	-1	1	1	23	1	13	4	-1	-1
101aa11	1496	ok	36	101aa11~3-1	10	8	2015-05-08	2015-09-15	DC    	-1	6	U	8	-1	-1	-1	-1	-1	1	1	23	2	8	1	-1	-1
101aa11	1497	Nice!	49	101aa11~3-1	10	9	2015-05-08	2015-09-15	DC    	-1	5	U	9	-1	-1	-1	-1	-1	1	1	23	3	2	1	-1	-1
101aa11	1498	nice	95	101aa11~3-1	10	6	2015-05-08	2015-09-15	DC    	-1	8	Y	12	-1	-1	-1	-1	-1	1	1	23	5	7	2	-1	-1
101aa11	1499	0	106	101aa11~3-1	10	8	2015-05-08	2015-09-15	DC    	-1	7	U	11	-1	-1	-1	-1	-1	1	1	23	5	18	2	-1	-1
101aa11	1500	0	324	101aa11~3-1	10	7	2015-05-08	2015-09-15	DC    	-1	4	Y	11	-1	-1	-1	-1	-1	1	1	23	16	1	3	-1	-1
101aa11	1501	0	348	101aa11~3-1	8	7	2015-05-08	2015-09-15	DC    	-1	4	Y	10	-1	-1	-1	-1	-1	1	1	23	18	1	3	-1	-1
104aa12	1502	Mini-Stools	18	104aa12~39-36 2rep	2	2	2015-05-08	2015-09-15	1-1   	-1	5	U	-1	13	13	-1	-1	-1	1	1	23	1	18	4	-1	-1
105aa1	1503	Ortets	189	0	1	1	2015-05-08	2015-09-15	1-0   	-1	8	U	9	9	9	-1	-1	-1	1	1	23	8	24	5	-1	-1
105aa1	1504	0	203	0	10	7	2015-05-08	2015-09-15	MS    	-1	4	U	5	6	6	-1	-1	-1	1	1	23	9	10	5	-1	-1
105aa10	1505	Ortets	193	0	1	1	2015-05-08	2015-09-15	1-0   	-1	11	U	16	16	16	-1	-1	-1	1	1	23	8	28	5	-1	-1
105aa10	1506	0	204	0	11	4	2015-05-08	2015-09-15	MS    	-1	4	U	7	8	8	-1	-1	-1	1	1	23	9	11	5	-1	-1
105aa2	1507	0	174	0	10	4	2015-05-08	2015-09-15	MS    	-1	5	U	8	14	14	-1	-1	-1	1	1	23	8	9	5	-1	-1
105aa2	1508	1.5 inch root ortets	191	0	1	1	2015-05-08	2015-09-15	1-0   	-1	10	U	10	10	10	-1	-1	-1	1	1	23	8	26	5	-1	-1
105aa3	1509	Very Nice!	202	105aa3-15-68_1_MS 6rep 3whip 2dot	15	13	2015-05-08	2015-09-15	MS    	-1	8	Y	11	11	11	-1	-1	-1	1	1	23	9	9	5	-1	-1
105aa3	1510	Ramets 1-0 Biased	221	105aa3-15-68_1_MS	1	1	2015-05-08	2015-09-15	1-0   	-1	14	Y	16	16	16	-1	-1	-1	1	1	23	9	28	5	-1	-1
105aa4	1511	nice	173	105aa4-90-136_1_MS 4rep	12	8	2015-05-08	2015-09-15	MS    	-1	5	Y	8	12	12	-1	-1	-1	1	1	23	8	8	5	-1	-1
105aa4	1512	Ramets 1-0 Biased	220	105aa4-90-136_1_MS	1	1	2015-05-08	2015-09-15	1-0   	-1	12	U	10	10	10	-1	-1	-1	1	1	23	9	27	5	-1	-1
105aa5	1513	Very Nice!	200	105aa5-7-16_1_MS 4rep 2dot 1whip	10	9	2015-05-08	2015-09-15	MS    	-1	8	Y	14	16	16	-1	-1	-1	1	1	23	9	7	5	-1	-1
105aa5	1514	Ramets 1-0	217	105aa5-7-16_1_MS	1	1	2015-05-08	2015-09-15	1-0   	-1	12	Y	17	17	17	-1	-1	-1	1	1	23	9	24	5	-1	-1
105aa6	1515	Ortets	192	0	1	1	2015-05-08	2015-09-15	1-0   	-1	10	U	12	12	12	-1	-1	-1	1	1	23	8	27	5	-1	-1
105aa6	1516	0	201	0	6	5	2015-05-08	2015-09-15	MS    	-1	5	U	6	11	11	-1	-1	-1	1	1	23	9	8	5	-1	-1
105aa7	1517	weak	177	0	11	5	2015-05-08	2015-09-15	MS    	-1	6	U	4	11	11	-1	-1	-1	1	1	23	8	12	5	-1	-1
105aa7	1518	Ramets 1-0	219	0	1	1	2015-05-08	2015-09-15	1-0   	-1	11	U	15	15	15	-1	-1	-1	1	1	23	9	26	5	-1	-1
105aa8	1519	ok, retry	176	0	10	6	2015-05-08	2015-09-15	MS    	-1	4	U	4	14	14	-1	-1	-1	1	1	23	8	11	5	-1	-1
105aa8	1520	Ramets 1-0	218	0	1	1	2015-05-08	2015-09-15	1-0   	-1	10	U	14	14	14	-1	-1	-1	1	1	23	9	25	5	-1	-1
105aa9	1521	ok, retry	175	0	10	8	2015-05-08	2015-09-15	DC    	-1	5	U	7	-1	-1	-1	-1	-1	1	1	23	8	10	5	-1	-1
105aa9	1522	Ortets	190	0	1	1	2015-05-08	2015-09-15	1-0   	-1	10	U	10	10	10	-1	-1	-1	1	1	23	8	25	5	-1	-1
106aa1	1523	0	373	106aa1-54-58_1_MS 3rep	6	5	2015-05-08	2015-09-15	MS    	-1	6	Y	8	15	15	-1	-1	-1	1	1	23	20	4	7	-1	-1
106aa2	1524	0	377	106aa2-78-59_1_MS	6	5	2015-05-08	2015-09-15	MS    	-1	4	Y	7	16	16	-1	-1	-1	1	1	23	20	8	7	-1	-1
106aa3	1525	Nice! 1-0	390	106aa3-168-73_1_MS 3rep	6	5	2015-05-08	2015-09-15	MS    	-1	4	Y	4	18	18	-1	-1	-1	1	1	23	21	7	7	-1	-1
106aa4	1526	0	389	106aa4-28-34_1_MS 3rep	6	6	2015-05-08	2015-09-15	MS    	-1	4	Y	8	14	14	-1	-1	-1	1	1	23	21	6	7	-1	-1
106aa5	1527	0	374	0	5	4	2015-05-08	2015-09-15	MS    	-1	4	U	6	15	15	-1	-1	-1	1	1	23	20	5	7	-1	-1
106aa6	1528	0	388	106aa6-65-28_1_MS 3rep	5	5	2015-05-08	2015-09-15	MS    	-1	4	Y	6	17	17	-1	-1	-1	1	1	23	21	5	7	-1	-1
106aa7	1529	0	375	0	5	4	2015-05-08	2015-09-15	MS    	-1	4	U	6	10	10	-1	-1	-1	1	1	23	20	6	7	-1	-1
106aa8	1530	0	376	0	5	5	2015-05-08	2015-09-15	MS    	-1	4	U	6	14	14	-1	-1	-1	1	1	23	20	7	7	-1	-1
106xaa	1531	8 inch stem ortets ODC	438	106xaa 8rep	10	8	2015-05-08	2015-09-15	ODC   	-1	4	U	9	22	22	-1	-1	-1	1	1	23	26	1	8	-1	-1
106xaa	1532	8 inch stem ortets ODC	441	0	10	10	2015-05-08	2015-09-15	ODC   	-1	4	U	7	17	17	-1	-1	-1	1	1	23	27	4	8	-1	-1
107aa1	1533	0	391	107aa1-104-49_1_1-0 3rep	6	5	2015-05-08	2015-09-15	1-0   	-1	4	Y	6	19	19	-1	-1	-1	1	1	23	21	8	7	-1	-1
107aa2	1534	0	380	107aa2-101-60_1_MS 3rep	6	5	2015-05-08	2015-09-15	MS    	-1	8	Y	6	17	17	-1	-1	-1	1	1	23	20	11	7	-1	-1
107aa3	1535	0	378	107aa3 3rep	6	6	2015-05-08	2015-09-15	MS    	-1	5	U	5	12	12	-1	-1	-1	1	1	23	20	9	7	-1	-1
107aa4	1536	0	394	0	6	6	2015-05-08	2015-09-15	MS    	-1	5	N	5	15	15	-1	-1	-1	1	1	23	21	11	7	-1	-1
107aa5	1537	0	392	0	6	5	2015-05-08	2015-09-15	ODC   	-1	4	U	3	10	10	-1	-1	-1	1	1	23	21	9	7	-1	-1
107aa6	1538	0	379	0	5	4	2015-05-08	2015-09-15	MS    	-1	5	U	5	15	15	-1	-1	-1	1	1	23	20	10	7	-1	-1
107aa7	1539	0	393	107aa7-93-37_1_MS	6	6	2015-05-08	2015-09-15	MS    	-1	5	Y	5	17	17	-1	-1	-1	1	1	23	21	10	7	-1	-1
107xaa	1540	8 inch stem ortets ODC	440	107xaa 18rep	19	15	2015-05-08	2015-09-15	ODC   	-1	6	U	6	14	14	-1	-1	-1	1	1	23	26	3	8	-1	-1
107xaa	1541	8 inch stem ortets ODC	443	0	22	23	2015-05-08	2015-09-15	ODC   	-1	6	U	8	21	21	-1	-1	-1	1	1	23	27	6	8	-1	-1
11ab1	1542	smaller leaves	304	11ab1-77-71_1_MS 3rep	6	5	2015-05-08	2015-09-15	MS    	-1	5	Y	7	15	15	-1	-1	-1	1	1	23	14	10	6	-1	-1
11ab10	1543	0	308	11ab10-106-38_1_MS 2rep	6	5	2015-05-08	2015-09-15	MS    	-1	5	Y	6	20	20	-1	-1	-1	1	1	23	14	14	6	-1	-1
11ab11	1544	ok retry	307	11ab11-165-185_1_MS 2rep	6	3	2015-05-08	2015-09-15	MS    	-1	5	Y	7	13	13	-1	-1	-1	1	1	23	14	13	6	-1	-1
11ab12	1545	0	303	0	6	4	2015-05-08	2015-09-15	MS    	-1	5	U	7	16	16	-1	-1	-1	1	1	23	14	9	6	-1	-1
11ab2	1546	0	317	0	6	3	2015-05-08	2015-09-15	ODC   	-1	5	U	7	19	19	-1	-1	-1	1	1	23	15	9	6	-1	-1
11ab20	1547	Renamed from ?	273	11ab20-169-39_1_MS 2rep	6	5	2015-05-08	2015-09-15	MS    	-1	4	Y	4	22	22	-1	-1	-1	1	1	23	12	13	6	-1	-1
11ab21	1548	Renamed from ?	290	0	6	6	2015-05-08	2015-09-15	MS    	-1	5	N	6	14	14	-1	-1	-1	1	1	23	13	13	6	-1	-1
11ab22	1549	Renamed from ?	291	11ab22-46-20_1_MS 3rep	6	6	2015-05-08	2015-09-15	MS    	-1	5	Y	7	18	18	-1	-1	-1	1	1	23	13	14	6	-1	-1
11ab3	1550	0	305	11ab3-53-57_1_MS 3rep	6	5	2015-05-08	2015-09-15	MS    	-1	5	Y	8	15	15	-1	-1	-1	1	1	23	14	11	6	-1	-1
11ab4	1551	0	321	11ab4-88-118_1_1-0 2rep	6	4	2015-05-08	2015-09-15	1-0   	-1	6	Y	8	14	14	-1	-1	-1	1	1	23	15	13	6	-1	-1
11ab5	1552	0	319	11ab5 3rep	6	5	2015-05-08	2015-09-15	DC    	-1	6	Y	7	17	17	-1	-1	-1	1	1	23	15	11	6	-1	-1
11ab6	1553	0	320	0	6	4	2015-05-08	2015-09-15	ODC   	-1	6	U	6	15	15	-1	-1	-1	1	1	23	15	12	6	-1	-1
11ab7	1554	0	318	0	6	4	2015-05-08	2015-09-15	ODC   	-1	6	U	6	19	19	-1	-1	-1	1	1	23	15	10	6	-1	-1
11ab8	1555	0	322	0	6	3	2015-05-08	2015-09-15	ODC   	-1	5	U	7	13	13	-1	-1	-1	1	1	23	15	14	6	-1	-1
11ab9	1556	0	306	0	6	4	2015-05-08	2015-09-15	MS    	-1	4	U	5	9	9	-1	-1	-1	1	1	23	14	12	6	-1	-1
11xab	1557	8 inch stem ortets ODC	428	11xab 12rep	22	20	2015-05-08	2015-09-15	ODC   	-1	5	U	7	14	14	-1	-1	-1	1	1	23	24	9	8	-1	-1
11xab	1558	8 inch stem ortets ODC	437	0	26	23	2015-05-08	2015-09-15	ODC   	-1	5	U	9	24	24	-1	-1	-1	1	1	23	25	9	8	-1	-1
13gb1	1559	0	292	0	6	0	2015-05-08	2015-09-15	MS    	-1	6	U	0	15	15	-1	-1	-1	1	1	23	13	15	6	-1	-1
13gb10	1560	0	276	0	5	0	2015-05-08	2015-09-15	MS    	-1	4	U	0	12	12	-1	-1	-1	1	1	23	12	16	6	-1	-1
13gb2	1561	0	309	0	6	1	2015-05-08	2015-09-15	DC    	-1	4	U	6	13	13	-1	-1	-1	1	1	23	15	1	6	-1	-1
13gb3	1562	0	310	13gb3 2rep	6	1	2015-05-08	2015-09-15	DC    	-1	5	U	7	18	18	-1	-1	-1	1	1	23	15	2	6	-1	-1
13gb4	1563	0	295	0	6	2	2015-05-08	2015-09-15	MS    	-1	4	U	3	15	15	-1	-1	-1	1	1	23	14	1	6	-1	-1
13gb5	1564	0	277	0	5	0	2015-05-08	2015-09-15	MS    	-1	4	U	0	17	17	-1	-1	-1	1	1	23	12	17	6	-1	-1
13gb6	1565	Nice!	293	13gb6-213-182_1_MS 2rep	5	2	2015-05-08	2015-09-15	MS    	-1	4	Y	6	20	20	-1	-1	-1	1	1	23	13	16	6	-1	-1
13gb7	1566	retry	294	13gb7-283-272_1_MS 1rep	5	1	2015-05-08	2015-09-15	MS    	-1	4	Y	3	19	19	-1	-1	-1	1	1	23	13	17	6	-1	-1
13gb8	1567	0	275	0	6	1	2015-05-08	2015-09-15	MS    	-1	4	U	4	13	13	-1	-1	-1	1	1	23	12	15	6	-1	-1
13gb9	1568	0	274	0	6	1	2015-05-08	2015-09-15	MS    	-1	4	U	8	14	14	-1	-1	-1	1	1	23	12	14	6	-1	-1
13xgb	1569	8 inch stem ortets ODC, weak	422	13xgb 2rep	7	4	2015-05-08	2015-09-15	ODC   	-1	4	N	4	7	7	-1	-1	-1	1	1	23	24	3	8	-1	-1
13xgb	1570	8 inch stem ortets ODC	431	0	8	5	2015-05-08	2015-09-15	ODC   	-1	4	U	5	12	12	-1	-1	-1	1	1	23	25	3	8	-1	-1
14b1	1571	Roots have twist, nice	247	14b1-125-90_1_MS 3rep	9	8	2015-05-08	2015-09-15	MS    	-1	5	Y	5	14	14	-1	-1	-1	1	1	23	11	6	6	-1	-1
14b10	1572	0	228	14b10-30-85_1_MS 4rep	6	6	2015-05-08	2015-09-15	MS    	-1	5	Y	8	9	9	-1	-1	-1	1	1	23	10	7	6	-1	-1
14b11	1573	0	225	14b11-171-122_1_MS 3rep	6	5	2015-05-08	2015-09-15	MS    	-1	4	Y	4	13	13	-1	-1	-1	1	1	23	10	4	6	-1	-1
14b12	1574	0	248	14b12-133-102_1_MS 3rep	6	5	2015-05-08	2015-09-15	MS    	-1	4	Y	5	14	14	-1	-1	-1	1	1	23	11	7	6	-1	-1
14b13	1575	Nice!	252	14b13-94-30_1_MS 3rep	6	6	2015-05-08	2015-09-15	MS    	-1	5	Y	5	18	18	-1	-1	-1	1	1	23	11	11	6	-1	-1
14b14	1576	0	230	14b14-109-9_2_MS 3rep	5	3	2015-05-08	2015-09-15	MS    	-1	4	Y	6	18	18	-1	-1	-1	1	1	23	10	9	6	-1	-1
14b14	1577	0	244	14b14-109-9_2_MS	6	5	2015-05-08	2015-09-15	MS    	-1	5	Y	5	20	20	-1	-1	-1	1	1	23	11	3	6	-1	-1
14b15	1578	0	233	14b15-102-101_1_MS  3rep	6	5	2015-05-08	2015-09-15	MS    	-1	4	Y	6	13	13	-1	-1	-1	1	1	23	10	12	6	-1	-1
14b16	1579	0	232	14b16 2rep	6	5	2015-05-08	2015-09-15	MS    	-1	5	U	5	12	12	-1	-1	-1	1	1	23	10	11	6	-1	-1
14b17	1580	0	251	14b17-95-75_1_MS  3rep	6	6	2015-05-08	2015-09-15	MS    	-1	5	Y	5	13	13	-1	-1	-1	1	1	23	11	10	6	-1	-1
14b18	1581	0	229	14b18-66-29_1_MS 3rep	6	6	2015-05-08	2015-09-15	MS    	-1	6	Y	6	17	17	-1	-1	-1	1	1	23	10	8	6	-1	-1
14b19	1582	0	224	14b19-162-178_1_MS 3rep	6	3	2015-05-08	2015-09-15	MS    	-1	5	Y	7	14	14	-1	-1	-1	1	1	23	10	3	6	-1	-1
14b2	1583	0	226	0	5	4	2015-05-08	2015-09-15	MS    	-1	3	U	4	11	11	-1	-1	-1	1	1	23	10	5	6	-1	-1
14b20	1584	0	250	14b20-92-88_1_MS 3rep	6	6	2015-05-08	2015-09-15	MS    	-1	5	Y	5	12	12	-1	-1	-1	1	1	23	11	9	6	-1	-1
14b21	1585	0	231	14b21-50-47_1_MS 3rep	6	6	2015-05-08	2015-09-15	MS    	-1	6	Y	7	14	14	-1	-1	-1	1	1	23	10	10	6	-1	-1
14b3	1586	0	245	14b3-146-131_1_MS 3rep	6	4	2015-05-08	2015-09-15	MS    	-1	4	Y	6	15	15	-1	-1	-1	1	1	23	11	4	6	-1	-1
14b5	1587	0	227	0	6	6	2015-05-08	2015-09-15	MS    	-1	4	U	5	10	10	-1	-1	-1	1	1	23	10	6	6	-1	-1
14b6	1588	0	246	14b6-134-103_1_MS 3rep	6	5	2015-05-08	2015-09-15	MS    	-1	4	Y	5	14	14	-1	-1	-1	1	1	23	11	5	6	-1	-1
14b7	1589	Nice	249	14b7-56-100_1_MS  3rep 1dot	6	5	2015-05-08	2015-09-15	MS    	-1	6	Y	8	11	11	-1	-1	-1	1	1	23	11	8	6	-1	-1
14b8	1590	0	253	0	6	4	2015-05-08	2015-09-15	MS    	-1	5	N	6	10	10	-1	-1	-1	1	1	23	11	12	6	-1	-1
14b9	1591	0	234	14b9-197-166_1_MS 1rep	6	4	2015-05-08	2015-09-15	MS    	-1	4	Y	4	13	13	-1	-1	-1	1	1	23	10	13	6	-1	-1
14xb	1592	8 inch stem ortets ODC	420	14xb 22rep	25	22	2015-05-08	2015-09-15	ODC   	-1	4	U	7	13	13	-1	-1	-1	1	1	23	24	1	8	-1	-1
14xb	1593	8 inch stem ortets ODC	429	0	28	28	2015-05-08	2015-09-15	ODC   	-1	4	U	6	17	17	-1	-1	-1	1	1	23	25	1	8	-1	-1
15b1	1594	Very tall in 2014, weak but retry.	114	15b1-200-167_1_MS 3rep	9	6	2015-05-08	2015-09-15	MS    	-1	5	Y	4	13	13	-1	-1	-1	1	1	23	6	5	5	-1	-1
15b10	1595	0	146	0	6	3	2015-05-08	2015-09-15	MS    	-1	4	U	5	7	7	-1	-1	-1	1	1	23	7	10	5	-1	-1
15b11	1596	0	223	15b11-170-51_1_MS 3rep	6	5	2015-05-08	2015-09-15	MS    	-1	7	Y	4	21	21	-1	-1	-1	1	1	23	10	2	6	-1	-1
15b12	1597	0	148	15b12-175-176_1_MS 3rep	6	4	2015-05-08	2015-09-15	MS    	-1	4	Y	5	11	11	-1	-1	-1	1	1	23	7	12	5	-1	-1
15b13	1598	0	145	0	4	1	2015-05-08	2015-09-15	MS    	-1	4	U	4	8	8	-1	-1	-1	1	1	23	7	9	5	-1	-1
15b14	1599	0	242	15b14-198-93_1_MS 2rep	6	4	2015-05-08	2015-09-15	MS    	-1	8	Y	4	21	21	-1	-1	-1	1	1	23	11	1	6	-1	-1
15b15	1600	0	118	0	6	3	2015-05-08	2015-09-15	MS    	-1	4	U	4	8	8	-1	-1	-1	1	1	23	6	9	5	-1	-1
15b16	1601	0	243	15b16-135-114_1_MS 3rep	6	5	2015-05-08	2015-09-15	MS    	-1	4	Y	5	13	13	-1	-1	-1	1	1	23	11	2	6	-1	-1
15b17	1602	Rep 6 Ramets	222	15b17-75-23_1_MS 3rep	6	5	2015-05-08	2015-09-15	MS    	-1	7	Y	7	22	22	-1	-1	-1	1	1	23	10	1	6	-1	-1
15b2	1603	0	115	0	4	2	2015-05-08	2015-09-15	MS    	-1	4	U	4	6	6	-1	-1	-1	1	1	23	6	6	5	-1	-1
15b3	1604	weak	116	0	9	5	2015-05-08	2015-09-15	MS    	-1	5	U	4	8	8	-1	-1	-1	1	1	23	6	7	5	-1	-1
15b4	1605	Curly stems	147	15b4 2rep	5	2	2015-05-08	2015-09-15	MS    	-1	6	U	4	13	13	-1	-1	-1	1	1	23	7	11	5	-1	-1
15b5	1606	weak, retry	120	15b5-205-203_1_MS  2rep	6	3	2015-05-08	2015-09-15	MS    	-1	5	Y	5	13	13	-1	-1	-1	1	1	23	6	11	5	-1	-1
15b6	1607	0	144	15b6-232-187_1_MS  2rep	6	3	2015-05-08	2015-09-15	MS    	-1	5	Y	4	16	16	-1	-1	-1	1	1	23	7	8	5	-1	-1
15b7	1608	0	119	0	6	2	2015-05-08	2015-09-15	MS    	-1	5	U	4	6	6	-1	-1	-1	1	1	23	6	10	5	-1	-1
15b8	1609	0	149	15b8-167-162_1_MS 3rep	6	5	2015-05-08	2015-09-15	MS    	-1	5	Y	4	10	10	-1	-1	-1	1	1	23	7	13	5	-1	-1
15b9	1610	0	117	0	5	0	2015-05-08	2015-09-15	MS    	-1	4	U	0	10	10	-1	-1	-1	1	1	23	6	8	5	-1	-1
16ab1	1611	0	412	0	6	4	2015-05-08	2015-09-15	ODC   	-1	6	Y	12	20	20	-1	-1	-1	1	1	23	23	5	7	-1	-1
16ab2	1612	0	411	0	5	2	2015-05-08	2015-09-15	ODC   	-1	4	Y	-1	24	24	-1	-1	-1	1	1	23	23	4	7	-1	-1
16ab3	1613	0	399	16ab3 0rep 1dot	6	3	2015-05-08	2015-09-15	MS    	-1	5	U	8	18	18	-1	-1	-1	1	1	23	22	3	7	-1	-1
16ab4	1614	Nice	413	16ab4 3rep 1dot	5	4	2015-05-08	2015-09-15	ODC   	-1	5	Y	8	18	18	-1	-1	-1	1	1	23	23	6	7	-1	-1
16ab5	1615	weak	400	0	5	2	2015-05-08	2015-09-15	MS    	-1	4	U	5	17	17	-1	-1	-1	1	1	23	22	4	7	-1	-1
16ab6	1616	0	401	0	5	4	2015-05-08	2015-09-15	MS    	-1	3	U	4	14	14	-1	-1	-1	1	1	23	22	5	7	-1	-1
16ab7	1617	0	410	16ab7 0rep 1whip	6	3	2015-05-08	2015-09-15	ODC   	-1	4	U	4	16	16	-1	-1	-1	1	1	23	23	3	7	-1	-1
16ab8	1618	Nice!	402	16ab8-40-21_1_MS	6	4	2015-05-08	2015-09-15	MS    	-1	5	Y	11	26	26	-1	-1	-1	1	1	23	22	6	7	-1	-1
16xab	1619	8 inch stem ortets ODC	425	16xab 8rep	12	10	2015-05-08	2015-09-15	ODC   	-1	4	U	8	12	12	-1	-1	-1	1	1	23	24	6	8	-1	-1
16xab	1620	8 inch stem ortets ODC	434	0	13	13	2015-05-08	2015-09-15	DC    	-1	4	U	8	14	14	-1	-1	-1	1	1	23	25	6	8	-1	-1
17b1	1621	0	141	0	5	1	2015-05-08	2015-09-15	MS    	-1	4	U	4	5	5	-1	-1	-1	1	1	23	7	5	5	-1	-1
17b2	1622	Shriveled leaves	142	0	5	4	2015-05-08	2015-09-15	MS    	-1	4	N	4	16	16	-1	-1	-1	1	1	23	7	6	5	-1	-1
17b3	1623	Nice leaves!	143	17b3-278-285_1_MS 1rep	4	1	2015-05-08	2015-09-15	MS    	-1	4	Y	3	12	12	-1	-1	-1	1	1	23	7	7	5	-1	-1
18bg1	1624	0	125	18bg1-103-91_1_MS 4rep	6	5	2015-05-08	2015-09-15	MS    	-1	6	Y	6	14	14	-1	-1	-1	1	1	23	6	16	5	-1	-1
18bg10	1625	0	132	0	6	4	2015-05-08	2015-09-15	MS    	-1	5	U	4	8	8	-1	-1	-1	1	1	23	6	23	5	-1	-1
18bg11	1626	0	162	18bg11 1rep	6	2	2015-05-08	2015-09-15	MS    	-1	5	U	4	14	14	-1	-1	-1	1	1	23	7	26	5	-1	-1
18bg12	1627	0	130	18bg12 1rep	6	2	2015-05-08	2015-09-15	MS    	-1	5	U	4	14	14	-1	-1	-1	1	1	23	6	21	5	-1	-1
18bg13	1628	0	161	18bg13-209-186_1_MS 3rep	6	3	2015-05-08	2015-09-15	MS    	-1	5	Y	5	15	15	-1	-1	-1	1	1	23	7	25	5	-1	-1
18bg14	1629	0	133	0	6	4	2015-05-08	2015-09-15	MS    	-1	5	U	4	8	8	-1	-1	-1	1	1	23	6	24	5	-1	-1
18bg15	1630	Nice!	160	18bg15-136-72_1_MS 2rep	6	5	2015-05-08	2015-09-15	MS    	-1	4	Y	5	17	17	-1	-1	-1	1	1	23	7	24	5	-1	-1
18bg16	1631	0	158	0	5	3	2015-05-08	2015-09-15	MS    	-1	3	U	4	11	11	-1	-1	-1	1	1	23	7	22	5	-1	-1
18bg17	1632	0	126	18bg17 2rep	5	2	2015-05-08	2015-09-15	MS    	-1	5	U	5	14	14	-1	-1	-1	1	1	23	6	17	5	-1	-1
18bg18	1633	retry?	123	18bg18 2rep	4	2	2015-05-08	2015-09-15	MS    	-1	4	U	4	16	16	-1	-1	-1	1	1	23	6	14	5	-1	-1
18bg19	1634	retry	134	18bg19-76-70_1_MS 3rep	6	5	2015-05-08	2015-09-15	MS    	-1	5	Y	7	15	15	-1	-1	-1	1	1	23	6	25	5	-1	-1
18bg2	1635	Nice!	156	18bg2-105-54_1_MS	6	5	2015-05-08	2015-09-15	MS    	-1	6	Y	6	18	18	-1	-1	-1	1	1	23	7	20	5	-1	-1
18bg20	1636	0	155	18bg20 3rep	6	4	2015-05-08	2015-09-15	MS    	-1	4	U	4	12	12	-1	-1	-1	1	1	23	7	19	5	-1	-1
18bg21	1637	0	152	18bg21 2rep	6	3	2015-05-08	2015-09-15	MS    	-1	5	U	4	15	15	-1	-1	-1	1	1	23	7	16	5	-1	-1
18bg22	1638	0	121	18bg22 2rep	6	5	2015-05-08	2015-09-15	MS    	-1	5	U	5	10	10	-1	-1	-1	1	1	23	6	12	5	-1	-1
18bg23	1639	0	157	18bg23-161-168_1_MS 3rep	6	3	2015-05-08	2015-09-15	MS    	-1	4	Y	7	15	15	-1	-1	-1	1	1	23	7	21	5	-1	-1
18bg24	1640	0	129	18bg24-174-132_1_MS 2rep	6	4	2015-05-08	2015-09-15	MS    	-1	5	Y	5	16	16	-1	-1	-1	1	1	23	6	20	5	-1	-1
18bg25	1641	Cuttings rooted on side - see pic	153	18bg25-172-146_1_MS 3rep 	6	4	2015-05-08	2015-09-15	MS    	-1	5	Y	5	14	14	-1	-1	-1	1	1	23	7	17	5	-1	-1
18bg26	1642	0	124	0	6	0	2015-05-08	2015-09-15	MS    	-1	6	U	0	6	6	-1	-1	-1	1	1	23	6	15	5	-1	-1
18bg27	1643	0	154	0	6	4	2015-05-08	2015-09-15	MS    	-1	4	U	4	8	8	-1	-1	-1	1	1	23	7	18	5	-1	-1
18bg28	1644	0	151	0	6	0	2015-05-08	2015-09-15	DC    	-1	6	U	0	11	11	-1	-1	-1	1	1	23	7	15	5	-1	-1
18bg29	1645	0	150	0	6	1	2015-05-08	2015-09-15	MS    	-1	6	U	6	10	10	-1	-1	-1	1	1	23	7	14	5	-1	-1
18bg3	1646	retry	122	18bg3 3rep	6	3	2015-05-08	2015-09-15	DC    	-1	5	Y	7	16	16	-1	-1	-1	1	1	23	6	13	5	-1	-1
18bg30	1647	0	163	0	5	3	2015-05-08	2015-09-15	MS    	-1	5	U	4	9	9	-1	-1	-1	1	1	23	7	27	5	-1	-1
18bg4	1648	0	128	0	5	2	2015-05-08	2015-09-15	MS    	-1	5	U	8	10	10	-1	-1	-1	1	1	23	6	19	5	-1	-1
18bg5	1649	0	164	18bg5-230-181_1_MS 1rep	6	3	2015-05-08	2015-09-15	MS    	-1	4	Y	4	17	17	-1	-1	-1	1	1	23	7	28	5	-1	-1
18bg6	1650	0	127	0	5	0	2015-05-08	2015-09-15	MS    	-1	4	U	0	10	10	-1	-1	-1	1	1	23	6	18	5	-1	-1
18bg7	1651	0	159	0	6	4	2015-05-08	2015-09-15	MS    	-1	4	U	7	6	6	-1	-1	-1	1	1	23	7	23	5	-1	-1
18bg8	1652	0	131	18bg8 2rep	6	3	2015-05-08	2015-09-15	MS    	-1	5	U	5	9	9	-1	-1	-1	1	1	23	6	22	5	-1	-1
18bg9	1653	0	135	18bg9 3rep	6	5	2015-05-08	2015-09-15	MS    	-1	4	U	4	10	10	-1	-1	-1	1	1	23	6	26	5	-1	-1
18xbg	1654	8 inch stem ortets ODC	423	18xbg 14rep	25	18	2015-05-08	2015-09-15	ODC   	-1	4	U	8	14	14	-1	-1	-1	1	1	23	24	4	8	-1	-1
18xbg	1655	8 inch stem ortets ODC	432	0	24	19	2015-05-08	2015-09-15	WASP  	-1	4	U	7	16	16	-1	-1	-1	1	1	23	25	4	8	-1	-1
19gb1	1656	0	271	19gb1-201-119_1_MS 2rep	6	4	2015-05-08	2015-09-15	MS    	-1	5	Y	4	18	18	-1	-1	-1	1	1	23	12	11	6	-1	-1
19gb10	1657	0	270	0	6	0	2015-05-08	2015-09-15	MS    	-1	4	U	0	11	11	-1	-1	-1	1	1	23	12	10	6	-1	-1
19gb11	1658	0	268	0	5	1	2015-05-08	2015-09-15	MS    	-1	4	U	5	16	16	-1	-1	-1	1	1	23	12	8	6	-1	-1
19gb2	1659	retry Do I need 6 reps?	284	19gb2-264-274_1_MS 6rep	6	1	2015-05-08	2015-09-15	MS    	-1	5	Y	8	18	18	-1	-1	-1	1	1	23	13	7	6	-1	-1
19gb3	1660	0	272	0	6	1	2015-05-08	2015-09-15	MS    	-1	3	U	4	12	12	-1	-1	-1	1	1	23	12	12	6	-1	-1
19gb4	1661	weak	287	0	4	2	2015-05-08	2015-09-15	MS    	-1	6	N	6	7	7	-1	-1	-1	1	1	23	13	10	6	-1	-1
19gb5	1662	0	289	0	6	2	2015-05-08	2015-09-15	MS    	-1	5	U	5	10	10	-1	-1	-1	1	1	23	13	12	6	-1	-1
19gb6	1663	0	286	0	6	1	2015-05-08	2015-09-15	MS    	-1	4	U	8	15	15	-1	-1	-1	1	1	23	13	9	6	-1	-1
19gb7	1664	0	285	0	4	0	2015-05-08	2015-09-15	MS    	-1	3	U	0	14	14	-1	-1	-1	1	1	23	13	8	6	-1	-1
19gb8	1665	0	288	0	6	1	2015-05-08	2015-09-15	MS    	-1	4	U	6	13	13	-1	-1	-1	1	1	23	13	11	6	-1	-1
19gb9	1666	retry	269	19gb9-246-270_1_MS 2rep	6	1	2015-05-08	2015-09-15	MS    	-1	5	Y	10	18	18	-1	-1	-1	1	1	23	12	9	6	-1	-1
19xgb	1667	8 inch stem ortets ODC	424	19xgb 6rep	11	9	2015-05-08	2015-09-15	ODC   	-1	3	U	7	11	11	-1	-1	-1	1	1	23	24	5	8	-1	-1
19xgb	1668	8 inch stem ortets ODC	433	0	13	7	2015-05-08	2015-09-15	DC    	-1	3	U	5	12	12	-1	-1	-1	1	1	23	25	5	8	-1	-1
2b6	1669	Mini-Stools	6	2b6~37-12	3	3	2015-05-08	2015-09-15	1-1   	-1	12	U	-1	16	16	-1	-1	-1	1	1	23	1	6	4	-1	-1
1bar1	1670	weak, retry for testing	403	1bar1-304-340_1_1-0 1rep	3	0	2015-05-08	2015-09-15	1-0   	-1	3	Y	0	8	8	-1	-1	-1	1	1	23	22	7	7	-1	-1
1bar2	1671	0	414	1bar2 1rep	2	0	2015-05-08	2015-09-15	1-0   	-1	3	U	0	8	8	-1	-1	-1	1	1	23	23	7	7	-1	-1
1bw1	1672	Mini-Stools - Renamed from 1cagw01 to 1BW1	7	1bw1 5rep 2whip 1dot	3	3	2015-05-08	2015-09-15	1-1   	-1	12	U	-1	12	12	-1	-1	-1	1	1	23	1	7	4	-1	-1
1bw1	1673	Renamed from 1cagw01 to 1BW1	48	0	10	8	2015-05-08	2015-09-15	DC    	-1	8	U	8	-1	-1	-1	-1	-1	1	1	23	3	1	1	-1	-1
1bw1	1674	Renamed from 1cagw01 to 1BW1	58	0	10	5	2015-05-08	2015-09-15	DC    	-1	7	U	6	-1	-1	-1	-1	-1	1	1	23	3	11	1	-1	-1
1bw1	1675	Renamed from 1cagw01 to 1BW1	75	0	10	7	2015-05-08	2015-09-15	DC    	-1	8	U	9	-1	-1	-1	-1	-1	1	1	23	4	8	2	-1	-1
1bw1	1676	Renamed from 1cagw01 to 1BW1	103	0	10	7	2015-05-08	2015-09-15	DC    	-1	8	U	8	-1	-1	-1	-1	-1	1	1	23	5	15	2	-1	-1
1bw1	1677	Renamed from 1cagw01 to 1BW1	329	0	10	3	2015-05-08	2015-09-15	DC    	-1	5	U	5	-1	-1	-1	-1	-1	1	1	23	16	6	3	-1	-1
1bw1	1678	Renamed from 1cagw01 to 1BW1	340	0	10	6	2015-05-08	2015-09-15	DC    	-1	6	U	9	-1	-1	-1	-1	-1	1	1	23	17	5	3	-1	-1
1bw6	1679	Awesome alba type Nice! - renamed from 1cagw6 to 1bw6	254	1cagw6-16-19_1_MS 4rep 2dot 5whip	16	15	2015-05-08	2015-09-15	MS    	-1	10	Y	10	18	18	-1	-1	-1	1	1	23	11	13	6	-1	-1
1cagw7	1680	(dont retain or rename) 6 inch- Small tooth aspen type	235	0	14	10	2015-05-08	2015-09-15	MS    	-1	10	U	5	17	17	-1	-1	-1	1	1	23	10	14	6	-1	-1
20bs1	1681	Nice!	396	20bs1-11-8_1_MS 3rep	6	6	2015-05-08	2015-09-15	MS    	-1	8	Y	10	23	23	-1	-1	-1	1	1	23	21	13	7	-1	-1
20bs2	1682	0	382	0	6	4	2015-05-08	2015-09-15	MS    	-1	7	U	4	12	12	-1	-1	-1	1	1	23	20	13	7	-1	-1
20bs3	1683	0	409	20bs3-31-17_1_MS 3rep	5	5	2015-05-08	2015-09-15	MS    	-1	8	Y	8	19	19	-1	-1	-1	1	1	23	23	2	7	-1	-1
20bs4	1684	Nice	383	20bs4-22-32_1_MS 3rep	5	4	2015-05-08	2015-09-15	MS    	-1	4	Y	11	17	17	-1	-1	-1	1	1	23	20	14	7	-1	-1
20bs5	1685	0	395	20bs5-29-35_1_MS 3rep	6	6	2015-05-08	2015-09-15	MS    	-1	4	Y	8	14	14	-1	-1	-1	1	1	23	21	12	7	-1	-1
20bs6	1686	0	397	20bs6-51-36_1_MS 3rep	6	6	2015-05-08	2015-09-15	MS    	-1	6	Y	7	15	15	-1	-1	-1	1	1	23	22	1	7	-1	-1
20bs7	1687	0	408	20bs7 1dot	6	5	2015-05-08	2015-09-15	1-0   	-1	4	U	8	18	18	-1	-1	-1	1	1	23	23	1	7	-1	-1
20bs8	1688	0	381	20bs8-71-56_1_MS 3rep	6	4	2015-05-08	2015-09-15	MS    	-1	8	Y	9	20	20	-1	-1	-1	1	1	23	20	12	7	-1	-1
20bs9	1689	ok	398	20bs9-39-42_1_MS 3rep	6	4	2015-05-08	2015-09-15	MS    	-1	4	Y	11	21	21	-1	-1	-1	1	1	23	22	2	7	-1	-1
20xbs	1690	8 inch stem ortets ODC	426	20xbs 13rep	15	13	2015-05-08	2015-09-15	ODC   	-1	4	U	8	14	14	-1	-1	-1	1	1	23	24	7	8	-1	-1
20xbs	1691	8 inch stem ortets ODC	435	0	14	14	2015-05-08	2015-09-15	DC    	-1	4	U	8	14	14	-1	-1	-1	1	1	23	25	7	8	-1	-1
22bg1	1692	ok retry	196	22bg1-47-92_1_MS 3rep	6	3	2015-05-08	2015-09-15	MS    	-1	5	Y	14	19	19	-1	-1	-1	1	1	23	9	3	5	-1	-1
22bg10	1693	ok retry	198	22bg10-143-141_1_MS	6	3	2015-05-08	2015-09-15	MS    	-1	4	Y	8	18	18	-1	-1	-1	1	1	23	9	5	5	-1	-1
22bg11	1694	ok, retry	172	22bg11-113-174_1_MS 2rep	5	2	2015-05-08	2015-09-15	MS    	-1	4	Y	12	15	15	-1	-1	-1	1	1	23	8	7	5	-1	-1
22bg12	1695	0	167	0	6	2	2015-05-08	2015-09-15	MS    	-1	4	U	4	7	7	-1	-1	-1	1	1	23	8	2	5	-1	-1
22bg13	1696	0	194	22bg13 2rep	6	1	2015-05-08	2015-09-15	MS    	-1	5	U	8	22	22	-1	-1	-1	1	1	23	9	1	5	-1	-1
22bg2	1697	Had large leaf spots in 2014, and all 3 in 2015.	199	22bg2 2rep	6	3	2015-05-08	2015-09-15	MS    	-1	3	N	4	18	18	-1	-1	-1	1	1	23	9	6	5	-1	-1
22bg3	1698	ok, retry	170	22bg3-210-199_1_MS 2rep	6	3	2015-05-08	2015-09-15	MS    	-1	6	Y	5	14	14	-1	-1	-1	1	1	23	8	5	5	-1	-1
22bg4	1699	0	197	0	6	1	2015-05-08	2015-09-15	MS    	-1	5	U	10	23	23	-1	-1	-1	1	1	23	9	4	5	-1	-1
22bg5	1700	Very Nice! 11 foot tall	169	22bg5-97-18_1_MS 3rep	6	6	2015-05-08	2015-09-15	MS    	-1	4	Y	5	22	22	-1	-1	-1	1	1	23	8	4	5	-1	-1
22bg6	1701	0	168	0	5	1	2015-05-08	2015-09-15	MS    	-1	4	U	4	8	8	-1	-1	-1	1	1	23	8	3	5	-1	-1
22bg7	1702	0	195	22bg7 2rep	5	2	2015-05-08	2015-09-15	MS    	-1	4	U	7	21	21	-1	-1	-1	1	1	23	9	2	5	-1	-1
22bg8	1703	ok, retry	171	22bg8-229-180_1_MS 2rep	6	3	2015-05-08	2015-09-15	MS    	-1	5	Y	4	17	17	-1	-1	-1	1	1	23	8	6	5	-1	-1
22bg9	1704	0	166	0	5	2	2015-05-08	2015-09-15	MS    	-1	4	U	4	11	11	-1	-1	-1	1	1	23	8	1	5	-1	-1
22xbg	1705	8 inch stem ortets ODC	439	22xbg 19rep	25	23	2015-05-08	2015-09-15	ODC   	-1	4	U	5	17	17	-1	-1	-1	1	1	23	26	2	8	-1	-1
22xbg	1706	8 inch stem ortets ODC	442	0	24	21	2015-05-08	2015-09-15	ODC   	-1	4	U	7	20	20	-1	-1	-1	1	1	23	27	5	8	-1	-1
23ba1	1707	Curly stems	417	23ba1 1rep	3	1	2015-05-08	2015-09-15	DC    	-1	4	U	4	10	10	-1	-1	-1	1	1	23	23	10	7	-1	-1
23ba10	1708	Nice!	186	23ba10-19-13_1_MS 3rep	6	6	2015-05-08	2015-09-15	MS    	-1	8	Y	9	19	19	-1	-1	-1	1	1	23	8	21	5	-1	-1
23ba11	1709	0	214	23ba11-17-80_1_MS 4rep	6	5	2015-05-08	2015-09-15	MS    	-1	8	Y	11	10	10	-1	-1	-1	1	1	23	9	21	5	-1	-1
23ba12	1710	ok	185	0	6	5	2015-05-08	2015-09-15	MS    	-1	6	U	7	11	11	-1	-1	-1	1	1	23	8	20	5	-1	-1
23ba13	1711	0	213	0	6	6	2015-05-08	2015-09-15	MS    	-1	5	U	6	12	12	-1	-1	-1	1	1	23	9	20	5	-1	-1
23ba14	1712	0	210	0	6	4	2015-05-08	2015-09-15	DC    	-1	5	U	7	-1	-1	-1	-1	-1	1	1	23	9	17	5	-1	-1
23ba15	1713	ok	184	23ba15-118-97_1_MS 2rep	6	4	2015-05-08	2015-09-15	MS    	-1	8	Y	7	17	17	-1	-1	-1	1	1	23	8	19	5	-1	-1
23ba16	1714	0	211	0	6	4	2015-05-08	2015-09-15	MS    	-1	5	U	7	13	13	-1	-1	-1	1	1	23	9	18	5	-1	-1
23ba17	1715	ok, retry	182	0	6	4	2015-05-08	2015-09-15	MS    	-1	5	U	6	14	14	-1	-1	-1	1	1	23	8	17	5	-1	-1
23ba18	1716	0	212	23ba18-26-43_1_MS 3rep	6	6	2015-05-08	2015-09-15	MS    	-1	5	Y	8	13	13	-1	-1	-1	1	1	23	9	19	5	-1	-1
23ba19	1717	0	183	0	6	3	2015-05-08	2015-09-15	MS    	-1	5	U	5	8	8	-1	-1	-1	1	1	23	8	18	5	-1	-1
23ba2	1718	Curly stems, Nice	405	23ba2-68-87_1_MS 4rep	3	3	2015-05-08	2015-09-15	MS    	-1	3	Y	6	11	11	-1	-1	-1	1	1	23	22	9	7	-1	-1
23ba3	1719	Curly stems, Nice!	415	23ba3-184-109_1_MS 1rep 1dot	4	3	2015-05-08	2015-09-15	MS    	-1	3	Y	4	16	16	-1	-1	-1	1	1	23	23	8	7	-1	-1
23ba4	1720	Curly stems	416	23ba4 1rep	2	2	2015-05-08	2015-09-15	1-0   	-1	3	U	4	5	5	-1	-1	-1	1	1	23	23	9	7	-1	-1
23ba5	1721	Curly stems	404	23ba5-235-170_1_1-0 1rep 1dot	4	2	2015-05-08	2015-09-15	1-0   	-1	3	Y	4	18	18	-1	-1	-1	1	1	23	22	8	7	-1	-1
23xba	1722	8 inch stem ortets ODC All CURLY, largest is 18mm dia and 7' tall, very interesting	406	23xba-57-31_1_1-0 15rep	13	13	2015-05-08	2015-09-15	1-0   	-1	4	Y	7	17	17	-1	-1	-1	1	1	23	22	10	8	-1	-1
23xba	1723	8 inch stem ortets ODC, All STRAIGHT, nice!	407	23xba-57-31_1_1-0 36rep	38	31	2015-05-08	2015-09-15	ODC   	-1	4	U	7	16	16	-1	-1	-1	1	1	23	22	11	8	-1	-1
23xba	1724	8 inch stem ortets ODC, CURLY 1-0	418	23xba-57-31_1_1-0	14	14	2015-05-08	2015-09-15	1-0   	-1	4	U	6	-1	-1	-1	-1	-1	1	1	23	23	11	8	-1	-1
23xba	1725	8 inch stem ortets ODC, STRAIGHT, 35/35 survival! Nice!	419	23xba-57-31_1_1-0	35	35	2015-05-08	2015-09-15	ODC   	-1	4	U	8	17	17	-1	-1	-1	1	1	23	23	12	8	-1	-1
2b16	1726	0	32	2b16~40-41	10	3	2015-05-08	2015-09-15	DC    	-1	9	U	5	-1	-1	-1	-1	-1	1	1	23	2	4	1	-1	-1
2b21	1727	Mini-Stools - nice	8	2b21~5-5 8rep 3dot 24whips	6	6	2015-05-08	2015-09-15	1-1   	-1	11	U	-1	14	14	-1	-1	-1	1	1	23	1	8	4	-1	-1
2b21	1728	ok	40	2b21~5-5	10	5	2015-05-08	2015-09-15	DC    	-1	5	Y	9	-1	-1	-1	-1	-1	1	1	23	2	12	1	-1	-1
2b21	1729	nice	61	2b21~5-5	10	8	2015-05-08	2015-09-15	DC    	-1	9	Y	10	-1	-1	-1	-1	-1	1	1	23	3	14	1	-1	-1
2b21	1730	0	82	2b21~5-5	10	9	2015-05-08	2015-09-15	DC    	-1	8	U	6	-1	-1	-1	-1	-1	1	1	23	4	15	2	-1	-1
2b21	1731	nice	102	2b21~5-5	10	10	2015-05-08	2015-09-15	DC    	-1	7	Y	10	-1	-1	-1	-1	-1	1	1	23	5	14	2	-1	-1
2b21	1732	0	347	2b21~5-5	10	10	2015-05-08	2015-09-15	DC    	-1	5	U	6	-1	-1	-1	-1	-1	1	1	23	17	12	3	-1	-1
2b22	1733	Mini-Stools	4	2b22~28-18 4rep 3whip 3dot	3	3	2015-05-08	2015-09-15	1-1   	-1	9	U	-1	16	16	-1	-1	-1	1	1	23	1	4	4	-1	-1
2b22	1734	0	37	2b22~28-18	10	2	2015-05-08	2015-09-15	DC    	-1	10	U	17	-1	-1	-1	-1	-1	1	1	23	2	9	1	-1	-1
2b22	1735	root pruned, ~6 qty Dcs	109	2b22~28-18	10	3	2015-05-08	2015-09-15	DC    	-1	11	U	11	-1	-1	-1	-1	-1	1	1	23	5	21	2	-1	-1
2b22	1736	retry	349	2b22~28-18	10	5	2015-05-08	2015-09-15	DC    	-1	8	Y	13	-1	-1	-1	-1	-1	1	1	23	18	2	3	-1	-1
2b24	1737	0	53	2b24~38-58	10	6	2015-05-08	2015-09-15	DC    	-1	8	U	9	-1	-1	-1	-1	-1	1	1	23	3	6	1	-1	-1
2b24	1738	0	105	2b24~38-58 5rep	10	7	2015-05-08	2015-09-15	DC    	-1	6	U	6	-1	-1	-1	-1	-1	1	1	23	5	17	2	-1	-1
2b25	1739	Mini-Stools, not impressive as previous years	5	2b25~55-10 8rep 14whip 2dot 	5	5	2015-05-08	2015-09-15	1-1   	-1	13	U	-1	13	13	-1	-1	-1	1	1	23	1	5	4	-1	-1
2b25	1740	0	42	2b25~55-10	10	4	2015-05-08	2015-09-15	DC    	-1	11	U	10	-1	-1	-1	-1	-1	1	1	23	2	14	1	-1	-1
2b25	1741	0	43	2b25~55-10	10	2	2015-05-08	2015-09-15	DC    	-1	6	U	9	-1	-1	-1	-1	-1	1	1	23	2	15	1	-1	-1
2b25	1742	0	57	2b25~55-10	10	3	2015-05-08	2015-09-15	DC    	-1	10	U	7	-1	-1	-1	-1	-1	1	1	23	3	10	1	-1	-1
2b25	1743	weak	81	2b25~55-10	10	4	2015-05-08	2015-09-15	DC    	-1	7	U	12	-1	-1	-1	-1	-1	1	1	23	4	14	2	-1	-1
2b25	1744	0	83	2b25~55-10	10	4	2015-05-08	2015-09-15	DC    	-1	7	U	10	-1	-1	-1	-1	-1	1	1	23	4	16	2	-1	-1
2b25	1745	0	99	2b25~55-10	10	5	2015-05-08	2015-09-15	DC    	-1	8	U	8	-1	-1	-1	-1	-1	1	1	23	5	11	2	-1	-1
2b25	1746	0	333	2b25~55-10	10	4	2015-05-08	2015-09-15	DC    	-1	5	U	5	-1	-1	-1	-1	-1	1	1	23	16	10	3	-1	-1
2b25	1747	0	344	2b25~55-10	10	5	2015-05-08	2015-09-15	DC    	-1	4	U	6	-1	-1	-1	-1	-1	1	1	23	17	9	3	-1	-1
2b25	1748	Post Dr	360	2b25~55-10	10	4	2015-05-08	2015-09-15	DC    	-1	8	Y	10	-1	-1	-1	-1	-1	1	1	23	19	2	3	-1	-1
2b29	1749	Mini-Stools may have figured wood, see pic	14	2b29~54-48 4rep 1dot	1	1	2015-05-08	2015-09-15	1-1   	-1	16	U	-1	14	14	-1	-1	-1	1	1	23	1	14	4	-1	-1
2b29	1750	0	30	2b29~54-48	10	6	2015-05-08	2015-09-15	DC    	-1	11	U	5	-1	-1	-1	-1	-1	1	1	23	2	2	1	-1	-1
2b29	1751	0	93	2b29~54-48	10	6	2015-05-08	2015-09-15	DC    	-1	10	U	8	-1	-1	-1	-1	-1	1	1	23	5	5	2	-1	-1
2b3	1752	Mini-Stools	3	2b3~10-7 10rep 12whip 3dot	3	3	2015-05-08	2015-09-15	1-1   	-1	10	U	-1	14	14	-1	-1	-1	1	1	23	1	3	4	-1	-1
2b3	1753	0	62	2b3~10-7	10	6	2015-05-08	2015-09-15	DC    	-1	6	U	6	-1	-1	-1	-1	-1	1	1	23	3	15	1	-1	-1
2b3	1754	0	76	2b3~10-7	10	6	2015-05-08	2015-09-15	DC    	-1	9	U	8	-1	-1	-1	-1	-1	1	1	23	4	9	2	-1	-1
2b3	1755	0	77	2b3~10-7	10	6	2015-05-08	2015-09-15	DC    	-1	8	Y	10	-1	-1	-1	-1	-1	1	1	23	4	10	2	-1	-1
2b3	1756	0	104	2b3~10-7	10	8	2015-05-08	2015-09-15	DC    	-1	9	U	8	-1	-1	-1	-1	-1	1	1	23	5	16	2	-1	-1
2b3	1757	0	325	2b3~10-7	10	8	2015-05-08	2015-09-15	DC    	-1	5	Y	10	-1	-1	-1	-1	-1	1	1	23	16	2	3	-1	-1
2b3	1758	nice	341	2b3~10-7	10	6	2015-05-08	2015-09-15	DC    	-1	5	Y	11	-1	-1	-1	-1	-1	1	1	23	17	6	3	-1	-1
2b4	1759	0	55	2b4~63-60 5rep 1dot 	10	4	2015-05-08	2015-09-15	DC    	-1	6	U	6	-1	-1	-1	-1	-1	1	1	23	3	8	1	-1	-1
2b4	1760	0	94	2b4~63-60	10	3	2015-05-08	2015-09-15	DC    	-1	10	U	7	-1	-1	-1	-1	-1	1	1	23	5	6	2	-1	-1
2b4	1761	0	97	2b4~63-60	10	7	2015-05-08	2015-09-15	DC    	-1	10	U	6	-1	-1	-1	-1	-1	1	1	23	5	9	2	-1	-1
2b4	1762	0	108	2b4~63-60	10	5	2015-05-08	2015-09-15	DC    	-1	7	U	7	-1	-1	-1	-1	-1	1	1	23	5	20	2	-1	-1
2b4	1763	0	330	2b4~63-60	10	1	2015-05-08	2015-09-15	DC    	-1	4	N	12	-1	-1	-1	-1	-1	1	1	23	16	7	3	-1	-1
2b50	1764	Mini-Stools, poor	2	2b50 3rep 1dot	1	1	2015-05-08	2015-09-15	1-1   	-1	15	N	-1	8	8	-1	-1	-1	1	1	23	1	2	4	-1	-1
2b50	1765	Tallest in 2014	327	0	10	3	2015-05-08	2015-09-15	DC    	-1	8	U	13	-1	-1	-1	-1	-1	1	1	23	16	4	3	-1	-1
2b50	1766	Tallest in 2014, weak	336	0	10	5	2015-05-08	2015-09-15	DC    	-1	8	U	6	-1	-1	-1	-1	-1	1	1	23	17	1	3	-1	-1
2b51	1767	Had red leaves last year, 3 died of shade?  2015 also had root issues.	326	2b51~1-4 3rep	14	9	2015-05-08	2015-09-15	DC    	-1	5	Y	10	-1	-1	-1	-1	-1	1	1	23	16	3	3	-1	-1
2b52	1768	ok, retry	178	2b52 3rep	5	3	2015-05-08	2015-09-15	DC    	-1	5	U	11	-1	-1	-1	-1	-1	1	1	23	8	13	5	-1	-1
2b53	1769	0	179	0	5	4	2015-05-08	2015-09-15	DC    	-1	4	U	6	-1	-1	-1	-1	-1	1	1	23	8	14	5	-1	-1
2b54	1770	0	207	0	6	1	2015-05-08	2015-09-15	DC    	-1	4	U	9	-1	-1	-1	-1	-1	1	1	23	9	14	5	-1	-1
2b55	1771	0	205	2b55 2rep	6	2	2015-05-08	2015-09-15	DC    	-1	5	U	16	-1	-1	-1	-1	-1	1	1	23	9	12	5	-1	-1
2b56	1772	0	209	0	6	4	2015-05-08	2015-09-15	DC    	-1	4	U	8	-1	-1	-1	-1	-1	1	1	23	9	16	5	-1	-1
2b57	1773	0	206	0	6	4	2015-05-08	2015-09-15	DC    	-1	4	U	10	-1	-1	-1	-1	-1	1	1	23	9	13	5	-1	-1
2b58	1774	0	208	0	6	1	2015-05-08	2015-09-15	DC    	-1	3	U	4	-1	-1	-1	-1	-1	1	1	23	9	15	5	-1	-1
2b59	1775	0	181	0	5	2	2015-05-08	2015-09-15	DC    	-1	5	U	6	-1	-1	-1	-1	-1	1	1	23	8	16	5	-1	-1
2b6	1776	Reps 1-3, P3/P4 Dcs, Nice!	29	2b6~37-12 8rep 3dot 6whips	10	9	2015-05-08	2015-09-15	DC    	-1	7	U	7	-1	-1	-1	-1	-1	1	1	23	2	1	1	-1	-1
2b6	1777	0	35	2b6~37-12	10	3	2015-05-08	2015-09-15	DC    	-1	6	U	10	-1	-1	-1	-1	-1	1	1	23	2	7	1	-1	-1
2b6	1778	By gutter  (tmp - add row her when done)	68	2b6~37-12	10	3	2015-05-08	2015-09-15	DC    	-1	9	U	5	-1	-1	-1	-1	-1	1	1	23	4	1	2	-1	-1
2b6	1779	0	74	2b6~37-12	10	6	2015-05-08	2015-09-15	DC    	-1	8	U	9	-1	-1	-1	-1	-1	1	1	23	4	7	2	-1	-1
2b6	1780	0	87	2b6~37-12	10	2	2015-05-08	2015-09-15	DC    	-1	5	U	8	-1	-1	-1	-1	-1	1	1	23	4	20	2	-1	-1
2b6	1781	0	328	2b6~37-12	10	8	2015-05-08	2015-09-15	DC    	-1	7	U	7	-1	-1	-1	-1	-1	1	1	23	16	5	3	-1	-1
2b6	1782	0	342	2b6~37-12	10	7	2015-05-08	2015-09-15	DC    	-1	5	Y	8	-1	-1	-1	-1	-1	1	1	23	17	7	3	-1	-1
2b6	1783	Nice!	362	2b6~37-12	10	8	2015-05-08	2015-09-15	DC    	-1	7	Y	12	-1	-1	-1	-1	-1	1	1	23	19	4	3	-1	-1
2b60	1784	0	180	0	5	3	2015-05-08	2015-09-15	DC    	-1	5	U	9	-1	-1	-1	-1	-1	1	1	23	8	15	5	-1	-1
2b61	1785	0	60	0	10	8	2015-05-08	2015-09-15	DC    	-1	11	U	6	-1	-1	-1	-1	-1	1	1	23	3	13	1	-1	-1
2b62	1786	nice	101	2b62 4rep 1dot	10	9	2015-05-08	2015-09-15	DC    	-1	8	Y	9	-1	-1	-1	-1	-1	1	1	23	5	13	2	-1	-1
2b63	1787	0	343	2b63 3rep	10	4	2015-05-08	2015-09-15	DC    	-1	6	Y	11	-1	-1	-1	-1	-1	1	1	23	17	8	3	-1	-1
2b64	1788	nice	100	2b64 3rep 1dot	10	7	2015-05-08	2015-09-15	DC    	-1	9	Y	11	-1	-1	-1	-1	-1	1	1	23	5	12	2	-1	-1
2b65	1789	0	39	0	10	5	2015-05-08	2015-09-15	DC    	-1	12	U	8	-1	-1	-1	-1	-1	1	1	23	2	11	1	-1	-1
2b66	1790	0	59	2b66 1rep	10	6	2015-05-08	2015-09-15	DC    	-1	9	U	6	-1	-1	-1	-1	-1	1	1	23	3	12	1	-1	-1
2b67	1791	retry	345	2b67 3rep 1dot	10	6	2015-05-08	2015-09-15	DC    	-1	6	Y	12	-1	-1	-1	-1	-1	1	1	23	17	10	3	-1	-1
2b68	1792	Nice!	331	2b68 3rep 1dot	10	8	2015-05-08	2015-09-15	DC    	-1	6	Y	12	-1	-1	-1	-1	-1	1	1	23	16	8	3	-1	-1
2b69	1793	0	332	0	10	2	2015-05-08	2015-09-15	DC    	-1	8	U	3	-1	-1	-1	-1	-1	1	1	23	16	9	3	-1	-1
2b7	1794	0	31	2b7~57-53 5rep	10	5	2015-05-08	2015-09-15	DC    	-1	8	U	6	-1	-1	-1	-1	-1	1	1	23	2	3	1	-1	-1
2b7	1795	0	52	2b7~57-53	10	5	2015-05-08	2015-09-15	DC    	-1	8	U	5	-1	-1	-1	-1	-1	1	1	23	3	5	1	-1	-1
2b7	1796	0	73	2b7~57-53	10	3	2015-05-08	2015-09-15	DC    	-1	8	U	7	-1	-1	-1	-1	-1	1	1	23	4	6	2	-1	-1
2b7	1797	0	88	2b7~57-53	10	3	2015-05-08	2015-09-15	DC    	-1	4	U	7	-1	-1	-1	-1	-1	1	1	23	4	21	2	-1	-1
2b70	1798	0	78	0	10	2	2015-05-08	2015-09-15	DC    	-1	8	N	1	-1	-1	-1	-1	-1	1	1	23	4	11	2	-1	-1
2b71	1799	Nice!	79	2b71 3rep 1dot	10	10	2015-05-08	2015-09-15	DC    	-1	9	Y	8	-1	-1	-1	-1	-1	1	1	23	4	12	2	-1	-1
2b72	1800	0	50	0	10	5	2015-05-08	2015-09-15	DC    	-1	9	U	6	-1	-1	-1	-1	-1	1	1	23	3	3	1	-1	-1
2b73	1801	0	334	2b73 0rep 1dot	10	2	2015-05-08	2015-09-15	DC    	-1	6	U	12	-1	-1	-1	-1	-1	1	1	23	16	11	3	-1	-1
2rr11	1802	8 inch ok retry	188	2rr11 2rep	9	4	2015-05-08	2015-09-15	MS    	-1	7	U	7	11	11	-1	-1	-1	1	1	23	8	23	5	-1	-1
2rr12	1803	8 inch	187	0	8	4	2015-05-08	2015-09-15	MS    	-1	8	U	5	8	8	-1	-1	-1	1	1	23	8	22	5	-1	-1
2rr13	1804	8 inch DCs	215	0	6	2	2015-05-08	2015-09-15	MS    	-1	5	U	4	4	4	-1	-1	-1	1	1	23	9	22	5	-1	-1
2rr14	1805	8 inch DCs	216	2rr14-194-151_1_MS 2rep	7	5	2015-05-08	2015-09-15	MS    	-1	6	Y	4	13	13	-1	-1	-1	1	1	23	9	23	5	-1	-1
3aa202	1806	Mini-Stools	1	3aa202~62-37 1rep	1	1	2015-05-08	2015-09-15	1-0   	-1	10	U	-1	10	10	-1	-1	-1	1	1	23	1	1	4	-1	-1
3aa202	1807	0	337	3aa202~62-37	6	0	2015-05-08	2015-09-15	DC    	-1	5	U	0	-1	-1	-1	-1	-1	1	1	23	17	2	3	-1	-1
3bc1	1808	Renamed from 3cagc1 to 3bc1	371	3bc1-62-22_1_MS 3rep	10	9	2015-05-08	2015-09-15	MS    	-1	42	Y	7	20	20	-1	-1	-1	1	1	23	20	2	7	-1	-1
3cagc2	1809	0	386	0	10	6	2015-05-08	2015-09-15	MS    	-1	10	U	7	14	14	-1	-1	-1	1	1	23	21	3	7	-1	-1
3bc3	1810	Nice!	387	3bc3-52-14_1_MS 4rep 1dot	10	10	2015-05-08	2015-09-15	MS    	-1	10	Y	7	21	21	-1	-1	-1	1	1	23	21	4	7	-1	-1
3bc4	1811	0	385	3bc4-69-25_1_MS 4rep	10	10	2015-05-08	2015-09-15	MS    	-1	11	Y	6	18	18	-1	-1	-1	1	1	23	21	2	7	-1	-1
3bc5	1812	0	372	3bc5-131-120_1_MS 3rep	10	6	2015-05-08	2015-09-15	MS    	-1	41	Y	7	17	17	-1	-1	-1	1	1	23	20	3	7	-1	-1
3rr1	1813	1-0 ortet and 6 inch Dcs	113	0	6	0	2015-05-08	2015-09-15	MS    	-1	4	U	0	9	9	-1	-1	-1	1	1	23	6	4	5	-1	-1
3rr2	1814	1-0 ortet and 6 inch Dcs	110	0	5	0	2015-05-08	2015-09-15	MS    	-1	8	N	0	10	10	-1	-1	-1	1	1	23	6	1	5	-1	-1
41aa111	1815	0	339	41aa111~77-83	10	4	2015-05-08	2015-09-15	DC    	-1	5	U	6	-1	-1	-1	-1	-1	1	1	23	17	4	3	-1	-1
4ab4	1816	0	56	4ab4~30-19 4rep 2dot	10	6	2015-05-08	2015-09-15	DC    	-1	9	U	6	-1	-1	-1	-1	-1	1	1	23	3	9	1	-1	-1
4ab4	1817	0	86	4ab4~30-19	10	2	2015-05-08	2015-09-15	DC    	-1	10	U	9	-1	-1	-1	-1	-1	1	1	23	4	19	2	-1	-1
4ab4	1818	0	356	4ab4~30-19	14	11	2015-05-08	2015-09-15	DC    	-1	12	Y	7	-1	-1	-1	-1	-1	1	1	23	18	9	7	-1	-1
4acag7	1819	Nice!	357	4acag7-35-116_1_MS 4rep 1dot	10	7	2015-05-08	2015-09-15	MS    	-1	10	Y	11	10	10	-1	-1	-1	1	1	23	18	10	7	-1	-1
4acag8	1820	0	370	0	13	7	2015-05-08	2015-09-15	ODC   	-1	45	U	8	-1	-1	-1	-1	-1	1	1	23	20	1	7	-1	-1
4ab9	1821	Nice!	384	4ab9-24-55_1_MS rep4 2dot	13	9	2015-05-08	2015-09-15	MS    	-1	10	Y	12	16	16	-1	-1	-1	1	1	23	21	1	7	-1	-1
4gw10	1822	8 inch cuttings (GA like leaves) nice	297	4gw10-112-81_1_MS 3rep 1dot	10	6	2015-05-08	2015-09-15	MS    	-1	42	Y	8	21	21	-1	-1	-1	1	1	23	14	3	6	-1	-1
4gw10	1823	retry	314	4gw10-112-81_1_MS	6	3	2015-05-08	2015-09-15	DC    	-1	4	N	5	17	17	-1	-1	-1	1	1	23	15	6	6	-1	-1
4gw11	1824	8 inch cuttings (GA like leaves) nice	296	4gw11-195-40_1_MS 4rep 1dot	10	5	2015-05-08	2015-09-15	MS    	-1	11	Y	8	20	20	-1	-1	-1	1	1	23	14	2	6	-1	-1
4gw11	1825	GA like  	301	4gw11-195-40_1_MS	6	3	2015-05-08	2015-09-15	MS    	-1	5	U	3	17	17	-1	-1	-1	1	1	23	14	7	6	-1	-1
4gw12	1826	GA like retry	300	4gw12-87-83_1_MS 2rep 1dot	6	4	2015-05-08	2015-09-15	MS    	-1	4	Y	8	18	18	-1	-1	-1	1	1	23	14	6	6	-1	-1
4gw12	1827	GA type	311	4gw12-87-83_1_MS	10	0	2015-05-08	2015-09-15	DC    	-1	10	U	0	10	10	-1	-1	-1	1	1	23	15	3	6	-1	-1
4gw13	1828	GA type	312	4gw13 2rep 1dot	10	4	2015-05-08	2015-09-15	DC    	-1	10	U	5	15	15	-1	-1	-1	1	1	23	15	4	6	-1	-1
4gw13	1829	GA type	315	0	6	3	2015-05-08	2015-09-15	DC    	-1	4	Y	5	16	16	-1	-1	-1	1	1	23	15	7	6	-1	-1
4gw14	1830	GA like  	302	0	6	0	2015-05-08	2015-09-15	MS    	-1	5	U	0	18	18	-1	-1	-1	1	1	23	14	8	6	-1	-1
4gw15	1831	GA type	316	0	4	1	2015-05-08	2015-09-15	DC    	-1	4	U	4	12	12	-1	-1	-1	1	1	23	15	8	6	-1	-1
4gw3	1832	GA type	368	0	9	3	2015-05-08	2015-09-15	MS    	-1	12	U	8	15	15	-1	-1	-1	1	1	23	19	10	7	-1	-1
4rr1	1833	1-0 ortet and 6 inch Dcs	111	0	2	0	2015-05-08	2015-09-15	MS    	-1	6	N	0	4	4	-1	-1	-1	1	1	23	6	2	5	-1	-1
4rr2	1834	0	138	0	5	0	2015-05-08	2015-09-15	MS    	-1	4	U	0	12	12	-1	-1	-1	1	1	23	7	2	5	-1	-1
5cagr1	1835	1-0 ortet and 6 inch Dcs	112	0	8	4	2015-05-08	2015-09-15	MS    	-1	5	U	4	13	13	-1	-1	-1	1	1	23	6	3	5	-1	-1
5cagr2	1836	weak	367	0	10	7	2015-05-08	2015-09-15	DC    	-1	12	U	5	-1	-1	-1	-1	-1	1	1	23	19	9	7	-1	-1
5br3	1837	0	355	5br3 3rep	10	8	2015-05-08	2015-09-15	DC    	-1	8	Y	8	-1	-1	-1	-1	-1	1	1	23	18	8	7	-1	-1
5rb1	1838	0	256	0	6	1	2015-05-08	2015-09-15	MS    	-1	4	N	8	15	15	-1	-1	-1	1	1	23	11	15	6	-1	-1
5rb2	1839	0	236	0	6	2	2015-05-08	2015-09-15	MS    	-1	8	U	4	16	16	-1	-1	-1	1	1	23	10	15	6	-1	-1
5rb3	1840	0	255	0	6	0	2015-05-08	2015-09-15	MS    	-1	4	N	0	11	11	-1	-1	-1	1	1	23	11	14	6	-1	-1
6ba1	1841	0	299	0	6	4	2015-05-08	2015-09-15	MS    	-1	4	U	7	15	15	-1	-1	-1	1	1	23	14	5	6	-1	-1
6ba2	1842	ok	313	6ba2 3rep	6	6	2015-05-08	2015-09-15	ODC   	-1	4	Y	7	14	14	-1	-1	-1	1	1	23	15	5	6	-1	-1
6ba3	1843	0	298	0	6	2	2015-05-08	2015-09-15	MS    	-1	4	U	4	13	13	-1	-1	-1	1	1	23	14	4	6	-1	-1
7bt1	1844	nice	282	7bt1-55-69_1_MS 3rep	6	5	2015-05-08	2015-09-15	MS    	-1	7	Y	8	14	14	-1	-1	-1	1	1	23	13	5	6	-1	-1
7bt10	1845	0	283	7bt10-100-113_1_MS 2rep	6	5	2015-05-08	2015-09-15	MS    	-1	5	Y	6	12	12	-1	-1	-1	1	1	23	13	6	6	-1	-1
7bt2	1846	0	267	0	6	2	2015-05-08	2015-09-15	MS    	-1	6	U	4	7	7	-1	-1	-1	1	1	23	12	7	6	-1	-1
7bt3	1847	0	262	0	6	2	2015-05-08	2015-09-15	MS    	-1	6	U	7	13	13	-1	-1	-1	1	1	23	12	2	6	-1	-1
7bt4	1848	0	281	0	6	5	2015-05-08	2015-09-15	MS    	-1	5	U	7	9	9	-1	-1	-1	1	1	23	13	4	6	-1	-1
7bt5	1849	0	265	0	6	1	2015-05-08	2015-09-15	MS    	-1	5	U	11	19	19	-1	-1	-1	1	1	23	12	5	6	-1	-1
7bt6	1850	0	263	0	6	3	2015-05-08	2015-09-15	MS    	-1	5	U	7	10	10	-1	-1	-1	1	1	23	12	3	6	-1	-1
7bt7	1851	0	280	7bt7-163-179_1_MS 2rep	6	3	2015-05-08	2015-09-15	MS    	-1	4	Y	7	14	14	-1	-1	-1	1	1	23	13	3	6	-1	-1
7bt8	1852	0	264	0	5	0	2015-05-08	2015-09-15	MS    	-1	4	U	0	0	0	-1	-1	-1	1	1	23	12	4	6	-1	-1
7bt9	1853	0	266	7bt9-119-98_1_MS 2rep	6	4	2015-05-08	2015-09-15	MS    	-1	5	Y	7	17	17	-1	-1	-1	1	1	23	12	6	6	-1	-1
7xbt	1854	8 inch stem ortets ODC	427	7xbt 10rep	21	17	2015-05-08	2015-09-15	ODC   	-1	5	U	8	16	16	-1	-1	-1	1	1	23	24	8	8	-1	-1
7xbt	1855	8 inch stem ortets ODC	436	0	23	19	2015-05-08	2015-09-15	1-0   	-1	5	U	7	15	15	-1	-1	-1	1	1	23	25	8	8	-1	-1
80aa3mf	1856	2 1-0 8 inch cuttings, plant at Post	323	80aa3mf~2-8 2rep 2dot	10	4	2015-05-08	2015-09-15	MS    	-1	8	U	8	19	19	-1	-1	-1	1	1	23	15	15	6	-1	-1
82aa3	1857	CSSE selection, Barely 4 inches growth	140	82aa3~75-89 1rep	5	1	2015-05-08	2015-09-15	MS    	-1	4	U	2	3	3	-1	-1	-1	1	1	23	7	4	5	-1	-1
83aa66	1858	Brads container grown transplants	449	83aa66	1	1	2015-05-08	2015-09-15	WASP  	-1	3	Y	12	12	12	-1	-1	-1	1	1	23	28	6	9	-1	-1
83aa70	1859	Brads container grown transplants	448	83aa70 1rep	3	3	2015-05-08	2015-09-15	WASP  	-1	3	Y	7	16	16	-1	-1	-1	1	1	23	28	5	9	-1	-1
83aa74	1860	Brads container grown transplants	447	83aa74 1rep	2	2	2015-05-08	2015-09-15	WASP  	-1	3	Y	11	-1	-1	-1	-1	-1	1	1	23	28	4	9	-1	-1
89aa1	1861	Mini-Stools	12	89aa1 1rep 2dot	3	3	2015-05-08	2015-09-15	1-1   	-1	7	U	-1	14	14	-1	-1	-1	1	1	23	1	12	4	-1	-1
89aa1	1862	0	365	0	10	0	2015-05-08	2015-09-15	DC    	-1	7	U	0	0	0	-1	-1	-1	1	1	23	19	7	3	-1	-1
89aa4	1863	Mini-Stools	24	0	1	1	2015-05-08	2015-09-15	1-1   	-1	10	U	-1	7	7	-1	-1	-1	1	1	23	1	24	4	-1	-1
8bg1	1864	0	278	18bg1-103-91_1_MS	6	1	2015-05-08	2015-09-15	MS    	-1	4	U	7	8	8	-1	-1	-1	1	1	23	13	1	6	-1	-1
8bg10	1865	0	240	8bg10-107-50_1_MS 2rep	6	5	2015-05-08	2015-09-15	MS    	-1	4	Y	6	19	19	-1	-1	-1	1	1	23	10	19	6	-1	-1
8bg11	1866	0	259	0	6	3	2015-05-08	2015-09-15	MS    	-1	4	N	6	9	9	-1	-1	-1	1	1	23	11	18	6	-1	-1
8bg12	1867	0	239	0	5	3	2015-05-08	2015-09-15	MS    	-1	4	N	5	12	12	-1	-1	-1	1	1	23	10	18	6	-1	-1
8bg2	1868	0	260	18bg2-105-54_1_MS	6	3	2015-05-08	2015-09-15	MS    	-1	4	Y	7	14	14	-1	-1	-1	1	1	23	11	19	6	-1	-1
8bg3	1869	0	279	8bg3-89-106_1_MS 3rep	6	4	2015-05-08	2015-09-15	MS    	-1	4	Y	8	15	15	-1	-1	-1	1	1	23	13	2	6	-1	-1
8bg4	1870	retry	238	8bg4-185-147_1_MS 3rep	6	3	2015-05-08	2015-09-15	MS    	-1	7	Y	6	19	19	-1	-1	-1	1	1	23	10	17	6	-1	-1
8bg5	1871	0	241	18bg5-230-181_1_MS 2rep	6	4	2015-05-08	2015-09-15	MS    	-1	4	Y	6	21	21	-1	-1	-1	1	1	23	10	20	6	-1	-1
8bg6	1872	0	257	0	6	2	2015-05-08	2015-09-15	MS    	-1	4	U	7	15	15	-1	-1	-1	1	1	23	11	16	6	-1	-1
8bg7	1873	0	258	8bg7-141-96_1_MS 3rep	6	6	2015-05-08	2015-09-15	MS    	-1	4	Y	4	12	12	-1	-1	-1	1	1	23	11	17	6	-1	-1
8bg8	1874	retry	237	8bg8-228-154_1_MS 2rep	6	3	2015-05-08	2015-09-15	MS    	-1	4	Y	4	20	20	-1	-1	-1	1	1	23	10	16	6	-1	-1
8bg9	1875	0	261	8bg9-142-140_1_MS 3rep	6	3	2015-05-08	2015-09-15	MS    	-1	4	Y	8	18	18	-1	-1	-1	1	1	23	12	1	6	-1	-1
8xbg	1876	8 inch stem ortets ODC	421	8xbg 13rep	14	11	2015-05-08	2015-09-15	ODC   	-1	4	U	7	17	17	-1	-1	-1	1	1	23	24	2	8	-1	-1
8xbg	1877	8 inch stem ortets ODC	430	13xgb	15	14	2015-05-08	2015-09-15	WASP  	-1	4	U	8	17	17	-1	-1	-1	1	1	23	25	2	8	-1	-1
92aa11	1878	Mini-Stools, nice	22	92aa11~9-3 4rep 2dot 8whip	3	3	2015-05-08	2015-09-15	1-1   	-1	10	U	-1	16	16	-1	-1	-1	1	1	23	1	22	4	-1	-1
92aa11	1879	0	45	92aa11~9-3	10	5	2015-05-08	2015-09-15	DC    	-1	8	U	11	-1	-1	-1	-1	-1	1	1	23	2	17	1	-1	-1
92aa11	1880	nice	70	92aa11~9-3	10	5	2015-05-08	2015-09-15	DC    	-1	8	U	12	-1	-1	-1	-1	-1	1	1	23	4	3	2	-1	-1
92aa11	1881	0	352	92aa11~9-3	10	7	2015-05-08	2015-09-15	DC    	-1	8	Y	10	-1	-1	-1	-1	-1	1	1	23	18	5	3	-1	-1
92aa11	1882	ok	353	92aa11~9-3	10	6	2015-05-08	2015-09-15	DC    	-1	8	Y	13	-1	-1	-1	-1	-1	1	1	23	18	6	3	-1	-1
93aa11	1883	0	51	93aa11~6-9 4rep	10	5	2015-05-08	2015-09-15	DC    	-1	9	U	7	-1	-1	-1	-1	-1	1	1	23	3	4	1	-1	-1
93aa11	1884	0	107	93aa11~6-9	10	6	2015-05-08	2015-09-15	DC    	-1	8	U	8	-1	-1	-1	-1	-1	1	1	23	5	19	2	-1	-1
95aa11	1885	Mini-Stools	11	95aa11~27-47 3rep 2dot	2	2	2015-05-08	2015-09-15	1-1   	-1	10	U	-1	14	14	-1	-1	-1	1	1	23	1	11	4	-1	-1
95aa11	1886	0	38	95aa11~27-47	10	5	2015-05-08	2015-09-15	DC    	-1	7	U	9	-1	-1	-1	-1	-1	1	1	23	2	10	1	-1	-1
95aa11	1887	0	66	95aa11~27-47	10	4	2015-05-08	2015-09-15	DC    	-1	8	U	5	-1	-1	-1	-1	-1	1	1	23	3	19	1	-1	-1
95aa11	1888	0	91	95aa11~27-47	10	5	2015-05-08	2015-09-15	DC    	-1	9	U	7	-1	-1	-1	-1	-1	1	1	23	5	3	2	-1	-1
95aa11	1889	DC only	136	95aa11~27-47	5	8	2015-05-08	2015-09-15	DC    	-1	10	U	4	-1	-1	-1	-1	-1	1	1	23	6	27	5	-1	-1
97aa11	1890	Mini-Stools	19	97aa11~24-30 4rep 2dot 3whip 	2	2	2015-05-08	2015-09-15	1-1   	-1	12	U	-1	16	16	-1	-1	-1	1	1	23	1	19	4	-1	-1
97aa11	1891	0	63	97aa11~24-30	10	9	2015-05-08	2015-09-15	DC    	-1	8	U	6	-1	-1	-1	-1	-1	1	1	23	3	16	1	-1	-1
97aa11	1892	nice	89	97aa11~24-30	10	10	2015-05-08	2015-09-15	DC    	-1	8	Y	9	-1	-1	-1	-1	-1	1	1	23	5	1	2	-1	-1
97aa11	1893	0	351	97aa11~24-30	10	7	2015-05-08	2015-09-15	DC    	-1	8	U	5	-1	-1	-1	-1	-1	1	1	23	18	4	3	-1	-1
97aa12	1894	Mini-Stools	21	97aa12~25-16 3rep 2dot 2whip	2	2	2015-05-08	2015-09-15	1-1   	-1	10	U	-1	15	15	-1	-1	-1	1	1	23	1	21	4	-1	-1
97aa12	1895	0	46	97aa12~25-16	10	5	2015-05-08	2015-09-15	DC    	-1	11	U	8	-1	-1	-1	-1	-1	1	1	23	2	18	1	-1	-1
97aa12	1896	0	71	97aa12~25-16	10	5	2015-05-08	2015-09-15	DC    	-1	9	U	7	-1	-1	-1	-1	-1	1	1	23	4	4	2	-1	-1
97aa12	1897	0	364	97aa12~25-16	10	7	2015-05-08	2015-09-15	DC    	-1	9	U	8	-1	-1	-1	-1	-1	1	1	23	19	6	3	-1	-1
98aa11	1898	Mini-Stools	15	98aa11-326-76_1_1-0 6rep 9whip 4dot	6	6	2015-05-08	2015-09-15	1-1   	-1	11	U	-1	17	17	-1	-1	-1	1	1	23	1	15	4	-1	-1
98aa11	1899	0	33	98aa11-326-76_1_1-0	10	5	2015-05-08	2015-09-15	DC    	-1	6	U	6	-1	-1	-1	-1	-1	1	1	23	2	5	1	-1	-1
98aa11	1900	Stock was 2' tall 1-0, grew to 9.5' tall	67	98aa11-326-76_1_1-0	3	3	2015-05-08	2015-09-15	1-0   	-1	14	Y	-1	19	19	-1	-1	-1	1	1	23	3	20	1	-1	-1
98aa11	1901	0	84	98aa11-326-76_1_1-0	10	5	2015-05-08	2015-09-15	DC    	-1	5	U	5	-1	-1	-1	-1	-1	1	1	23	4	17	2	-1	-1
98aa11	1902	0	96	98aa11-326-76_1_1-0	10	5	2015-05-08	2015-09-15	DC    	-1	8	U	8	-1	-1	-1	-1	-1	1	1	23	5	8	2	-1	-1
98aa11	1903	0	98	98aa11-326-76_1_1-0	10	2	2015-05-08	2015-09-15	DC    	-1	7	U	10	-1	-1	-1	-1	-1	1	1	23	5	10	2	-1	-1
98aa11	1904	0	338	98aa11-326-76_1_1-0	10	8	2015-05-08	2015-09-15	DC    	-1	5	Y	9	-1	-1	-1	-1	-1	1	1	23	17	3	3	-1	-1
98aa11	1905	WASP planted 4/12/15	445	98aa11-326-76_1_1-0	5	5	2015-05-08	2015-09-15	WASP  	-1	3	U	15	-1	-1	-1	-1	-1	1	1	23	28	2	9	-1	-1
9br1	1906	0	139	0	6	4	2015-05-08	2015-09-15	MS    	-1	4	U	4	12	12	-1	-1	-1	1	1	23	7	3	5	-1	-1
a502	1907	Mini-Stools, poor	20	A502~66-65 3rep	3	1	2015-05-08	2015-09-15	1-1   	-1	18	U	-1	4	4	-1	-1	-1	1	1	23	1	20	4	-1	-1
a502	1908	8 inches long - weak	65	a502~66-65	10	4	2015-05-08	2015-09-15	DC    	-1	14	U	4	-1	-1	-1	-1	-1	1	1	23	3	18	1	-1	-1
a502	1909	0	90	a502~66-65	10	3	2015-05-08	2015-09-15	DC    	-1	12	U	7	-1	-1	-1	-1	-1	1	1	23	5	2	2	-1	-1
aa4102	1910	WASP planted 4/12/15	444	Aa4102~72-84 3rep	7	6	2015-05-08	2015-09-15	WASP  	-1	3	U	7	9	9	-1	-1	-1	1	1	23	28	1	9	-1	-1
aag2001	1911	1-0	335	Aag2001~44-64 3rep	2	2	2015-05-08	2015-09-15	1-0   	-1	3	U	7	-1	-1	-1	-1	-1	1	1	23	16	12	3	-1	-1
aag2001	1912	WASP planted 4/12/15, 2 have noticable topiasis	446	aag2001~44-64	3	3	2015-05-08	2015-09-15	WASP  	-1	3	U	5	11	11	-1	-1	-1	1	1	23	28	3	9	-1	-1
aesg3	1913	8 inch with 2 1-0 trees, willow	369	aesg3 3rep	8	2	2015-05-08	2015-09-15	MS    	-1	8	U	5	12	12	-1	-1	-1	1	1	23	19	11	7	-1	-1
agrr1	1914	Mini-Stools (should be more)	16	Agrr1~49-70 1rep	2	1	2015-05-08	2015-09-15	1-1   	-1	13	U	-1	12	12	-1	-1	-1	1	1	23	1	16	4	-1	-1
c173	1915	Mini-Stools 1 inch root collar, cut low, poor (roots too small).	17	c173-199-225_1_MS 5rep 3dot	2	2	2015-05-08	2015-09-15	1-1   	-1	20	U	-1	6	6	-1	-1	-1	1	1	23	1	17	4	-1	-1
c173	1916	8 inch cuttings with 3 1-0 stock plants. Post DR	358	c173-199-225_1_MS	12	4	2015-05-08	2015-09-15	MS    	-1	10	Y	8	13	13	-1	-1	-1	1	1	23	18	11	7	-1	-1
c173	1917	0	361	c173-199-225_1_MS	10	7	2015-05-08	2015-09-15	DC    	-1	12	Y	10	-1	-1	-1	-1	-1	1	1	23	19	3	3	-1	-1
cag204	1918	Mini-Stools	27	Cag204~74-78 3rep 1dot	3	3	2015-05-08	2015-09-15	1-1   	-1	8	U	-1	8	8	-1	-1	-1	1	1	23	1	27	4	-1	-1
cag204	1919	8 inches long - weak	64	cag204~74-78	10	4	2015-05-08	2015-09-15	DC    	-1	12	U	5	-1	-1	-1	-1	-1	1	1	23	3	17	1	-1	-1
cag204	1920	8 inches long - weak	69	cag204~74-78	10	5	2015-05-08	2015-09-15	DC    	-1	13	U	5	-1	-1	-1	-1	-1	1	1	23	4	2	2	-1	-1
cag204	1921	8 inch cuttings	350	cag204~74-78	10	6	2015-05-08	2015-09-15	DC    	-1	10	Y	6	-1	-1	-1	-1	-1	1	1	23	18	3	3	-1	-1
dn34	1922	Mini-Stools	9	Dn34~45-66 12rep 8dot	6	6	2015-05-08	2015-09-15	1-1   	-1	11	U	-1	11	11	-1	-1	-1	1	1	23	1	9	4	-1	-1
dn34	1923	0	41	dn34~45-66	10	9	2015-05-08	2015-09-15	DC    	-1	8	U	4	-1	-1	-1	-1	-1	1	1	23	2	13	1	-1	-1
dn34	1924	weak	80	dn34~45-66	10	6	2015-05-08	2015-09-15	DC    	-1	8	U	4	-1	-1	-1	-1	-1	1	1	23	4	13	2	-1	-1
dn34	1925	0	346	dn34~45-66	10	10	2015-05-08	2015-09-15	DC    	-1	5	U	10	-1	-1	-1	-1	-1	1	1	23	17	11	3	-1	-1
dn34	1926	0	359	dn34~45-66	10	8	2015-05-08	2015-09-15	DC    	-1	8	U	9	-1	-1	-1	-1	-1	1	1	23	19	1	3	-1	-1
gg10	1927	Initially named E5 - FW? (Leagl house)	453	gg10-173-233_1_1-0	3	1	2015-05-08	2015-09-15	1-0   	-1	11	Y	10	10	10	-1	-1	-1	1	1	23	29	4	10	-1	-1
gg7	1928	Initially named E2 - FW by EEs house steps	450	gg7-38-107_1_1-0	4	3	2015-05-08	2015-09-15	1-0   	-1	7	Y	10	10	10	-1	-1	-1	1	1	23	29	1	10	-1	-1
gg8	1929	Initially named E4 - FW? - Johns roadside bank	451	gg8-42-123_1_1-0	1	1	2015-05-08	2015-09-15	1-0   	-1	30	Y	7	7	7	-1	-1	-1	1	1	23	29	2	10	-1	-1
gg9	1930	Initially named E3 - FW, 21 paces North of EEs wood shed.	452	gg9-14-61_1_1-0	2	1	2015-05-08	2015-09-15	1-0   	-1	18	Y	19	19	19	-1	-1	-1	1	1	23	29	3	10	-1	-1
nfa	1931	Mini-Stools, poor	26	Nfa~67-44 3rep	2	2	2015-05-08	2015-09-15	1-1   	-1	12	U	-1	9	9	-1	-1	-1	1	1	23	1	26	4	-1	-1
nfa	1932	8 inch cuttings, weak	366	nfa~67-44	8	5	2015-05-08	2015-09-15	MS    	-1	7	U	5	5	5	-1	-1	-1	1	1	23	19	8	7	-1	-1
plaza	1933	Ag plaza cuttings were 6 inch	137	Plaza~70-81 2rep	6	3	2015-05-08	2015-09-15	MS    	-1	4	U	0	8	8	-1	-1	-1	1	1	23	7	1	5	-1	-1
tc72	1934	Mini-Stools TC alba	23	tc72 3rep 1whip	1	1	2015-05-08	2015-09-15	1-1   	-1	18	U	-1	9	9	-1	-1	-1	1	1	23	1	23	4	-1	-1
tc72	1935	ok	354	tc72	10	6	2015-05-08	2015-09-15	DC    	-1	8	Y	7	-1	-1	-1	-1	-1	1	1	23	18	7	3	-1	-1
zoss	1936	Mini-Stools	28	Zoss~71-62 3rep 3dot 1whip	2	2	2015-05-08	2015-09-15	1-1   	-1	15	U	-1	13	13	-1	-1	-1	1	1	23	1	28	4	-1	-1
zoss	1937	8 inch cutting Nice retry	165	zoss~71-62	17	8	2015-05-08	2015-09-15	MS    	-1	8	U	7	14	14	-1	-1	-1	1	1	23	7	29	5	-1	-1
100aa11	1938	0	14,8,2,4,7	100aa11~rankms=50_rankdc=53_reps=4_srate=0.8_class=A	6	6	2016-04-15	2016-09-11	MS    	25	11	U	-1	15	15	15	-1	-1	2	2	24	2	12	4	-1	-1
100aa11	1939	0	14,8,2,4,7	100aa11~rankms=50_rankdc=53_reps=4_srate=0.8_class=A	5	4	2016-04-15	2016-09-11	DC    	20	11	U	8	-1	-1	4	-1	-1	2	2	24	12	19	1	-1	-1
100aa11	1940	0	14,8,2,4,7	100aa11~rankms=50_rankdc=53_reps=4_srate=0.8_class=A	5	5	2016-04-15	2016-09-11	DC    	20	11	U	7	-1	-1	2	-1	-1	2	2	24	13	17	1	-1	-1
100aa11	1941	0	14,8,2,4,7	100aa11~rankms=50_rankdc=53_reps=4_srate=0.8_class=A	5	3	2016-04-15	2016-09-11	DC    	20	10	U	6	-1	-1	7	-1	-1	2	2	24	13	18	1	-1	-1
100aa11	1942	0	14,8,2,4,7	100aa11~rankms=50_rankdc=53_reps=4_srate=0.8_class=A	5	5	2016-04-15	2016-09-11	DC    	20	6	U	9	-1	-1	11	-1	-1	2	2	24	18	21	1	-1	-1
100aa12	1943	0	14,8,2,3,5	100aa12~rankms=3_rankdc=5_reps=8_srate=0.8_class=A	2	2	2016-04-15	2016-09-11	MS    	25	13	U	-1	17	17	12	-1	-1	2	2	24	2	15	4	-1	-1
100aa12	1944	nice	14,8,2,3,5	100aa12~rankms=3_rankdc=5_reps=8_srate=0.8_class=A	2	2	2016-04-15	2016-09-11	MS    	25	15	Y	-1	23	23	20	-1	-1	2	2	24	4	26	4	-1	-1
100aa12	1945	0	14,8,2,3,5	100aa12~rankms=3_rankdc=5_reps=8_srate=0.8_class=A	2	2	2016-04-15	2016-09-11	MS    	25	13	U	-1	21	21	12	-1	-1	2	2	24	5	2	4	-1	-1
100aa12	1946	0	14,8,2,3,5	100aa12~rankms=3_rankdc=5_reps=8_srate=0.8_class=A	5	4	2016-04-15	2016-09-11	DC    	20	15	U	6	-1	-1	7	-1	-1	2	2	24	12	22	1	-1	-1
100aa12	1947	nice	14,8,2,3,5	100aa12~rankms=3_rankdc=5_reps=8_srate=0.8_class=A	5	5	2016-04-15	2016-09-11	DC    	20	13	Y	10	-1	-1	15	-1	-1	2	2	24	14	3	1	-1	-1
100aa12	1948	0	14,8,2,3,5	100aa12~rankms=3_rankdc=5_reps=8_srate=0.8_class=A	5	5	2016-04-15	2016-09-11	DC    	20	12	Y	13	-1	-1	15	-1	-1	2	2	24	18	1	1	-1	-1
100aa12	1949	branchy	14,8,2,3,5	100aa12~rankms=3_rankdc=5_reps=8_srate=0.8_class=A	5	5	2016-04-15	2016-09-11	DC    	20	12	Y	15	-1	-1	25	-1	-1	2	2	24	18	2	1	-1	-1
100aa12	1950	0	14,8,2,3,5	100aa12~rankms=3_rankdc=5_reps=8_srate=0.8_class=A	5	4	2016-04-15	2016-09-11	DC    	20	8	U	8	-1	-1	1	-1	-1	2	2	24	18	14	1	-1	-1
100aa12	1951	0	14,8,2,3,5	100aa12~rankms=3_rankdc=5_reps=8_srate=0.8_class=A	5	5	2016-04-15	2016-09-11	DC    	20	10	U	7	-1	-1	7	-1	-1	2	2	24	18	15	1	-1	-1
100aa12	1952	0	14,8,2,3,5	100aa12~rankms=3_rankdc=5_reps=8_srate=0.8_class=A	5	3	2016-04-15	2016-09-11	DC    	20	11	U	6	-1	-1	0	-1	-1	2	2	24	18	19	1	-1	-1
100aa12	1953	0	14,8,2,3,5	100aa12~rankms=3_rankdc=5_reps=8_srate=0.8_class=A	5	3	2016-04-15	2016-09-11	DC    	20	12	U	12	-1	-1	11	-1	-1	2	2	24	19	14	1	-1	-1
101aa11	1954	0	0,4,0,2,4	101aa11#rankms=58_rankdc=53_reps=2_srate=1.0_class=A	4	4	2016-04-15	2016-09-11	MS    	25	12	U	-1	14	14	17	-1	-1	2	2	24	1	33	4	-1	-1
101aa11	1955	0	0,4,0,2,4	101aa11#rankms=58_rankdc=53_reps=2_srate=1.0_class=A	5	5	2016-04-15	2016-09-11	DC    	20	9	U	7	-1	-1	0	-1	-1	2	2	24	18	17	1	-1	-1
101aa11	1956	0	0,4,0,2,4	101aa11#rankms=58_rankdc=53_reps=2_srate=1.0_class=A	5	5	2016-04-15	2016-09-11	DC    	20	12	U	10	-1	-1	4	-1	-1	2	2	24	19	13	1	-1	-1
104aa12	1957	edge biased	4,0,1,0,0	104aa12#rankms=40_rankdc=47_reps=2_srate=1.0_class=A	2	2	2016-04-15	2016-09-11	MS    	25	14	U	-1	16	16	17	-1	-1	2	2	24	6	8	4	-1	-1
104aa12	1958	0	4,0,1,0,0	104aa12#rankms=40_rankdc=47_reps=2_srate=1.0_class=A	5	5	2016-04-15	2016-09-11	DC    	20	12	U	7	-1	-1	0	-1	-1	2	2	24	9	18	1	-1	-1
104aa12	1959	0	4,0,1,0,0	104aa12#rankms=40_rankdc=47_reps=2_srate=1.0_class=A	5	5	2016-04-15	2016-09-11	DC    	20	13	Y	10	-1	-1	13	-1	-1	2	2	24	11	4	1	-1	-1
105aa3	1960	0	14,8,2,2,3	105aa3~rankms=9_rankdc=8_reps=4_srate=0.9_class=A	3	3	2016-04-15	2016-09-11	MS    	25	12	Y	-1	18	18	23	-1	-1	2	2	24	5	17	4	-1	-1
105aa3	1961	0	14,8,2,2,3	105aa3~rankms=9_rankdc=8_reps=4_srate=0.9_class=A	3	3	2016-04-15	2016-09-11	MS    	25	13	Y	-1	19	19	20	-1	-1	2	2	24	5	18	4	-1	-1
105aa3	1962	0	14,8,2,2,3	105aa3~rankms=9_rankdc=8_reps=4_srate=0.9_class=A	5	5	2016-04-15	2016-09-11	DC    	20	9	U	10	-1	-1	8	-1	-1	2	2	24	6	10	1	-1	-1
105aa3	1963	0	14,8,2,2,3	105aa3~rankms=9_rankdc=8_reps=4_srate=0.9_class=A	5	5	2016-04-15	2016-09-11	DC    	20	10	U	9	-1	-1	5	-1	-1	2	2	24	8	2	1	-1	-1
105aa3	1964	0	14,8,2,2,3	105aa3~rankms=9_rankdc=8_reps=4_srate=0.9_class=A	5	5	2016-04-15	2016-09-11	DC    	20	8	U	11	-1	-1	3	-1	-1	2	2	24	18	20	1	-1	-1
105aa3	1965	nice	14,8,2,2,3	105aa3~rankms=9_rankdc=8_reps=4_srate=0.9_class=A	5	4	2016-04-15	2016-09-11	DC    	20	8	Y	20	-1	-1	23	-1	-1	2	2	24	21	3	1	-1	-1
105aa4	1966	0	0,0,1,0,0	105aa4#rankms=109_rankdc=80_reps=2_srate=0.7_class=A	4	4	2016-04-15	2016-09-11	MS    	25	12	U	-1	10	10	4	-1	-1	2	2	24	4	10	4	-1	-1
105aa4	1967	0	0,0,1,0,0	105aa4#rankms=109_rankdc=80_reps=2_srate=0.7_class=A	5	5	2016-04-15	2016-09-11	DC    	20	10	U	8	-1	-1	4	-1	-1	2	2	24	6	5	1	-1	-1
105aa4	1968	0	0,0,1,0,0	105aa4#rankms=109_rankdc=80_reps=2_srate=0.7_class=A	5	2	2016-04-15	2016-09-11	DC    	20	8	U	8	-1	-1	0	-1	-1	2	2	24	7	8	1	-1	-1
105aa5	1969	0	14,8,2,2,4	105aa5#rankms=8_rankdc=9_reps=4_srate=1.0_class=A	4	4	2016-04-15	2016-09-11	MS    	25	14	Y	-1	20	20	32	-1	-1	2	2	24	5	25	4	-1	-1
105aa5	1970	0	14,8,2,2,4	105aa5#rankms=8_rankdc=9_reps=4_srate=1.0_class=A	5	5	2016-04-15	2016-09-11	DC    	20	12	Y	11	-1	-1	15	-1	-1	2	2	24	8	21	1	-1	-1
105aa5	1971	nice competetive	14,8,2,2,4	105aa5#rankms=8_rankdc=9_reps=4_srate=1.0_class=A	4	5	2016-04-15	2016-09-11	DC    	20	12	Y	11	-1	-1	16	-1	-1	2	2	24	9	15	1	-1	-1
105aa5	1972	0	14,8,2,2,4	105aa5#rankms=8_rankdc=9_reps=4_srate=1.0_class=A	5	5	2016-04-15	2016-09-11	DC    	20	9	U	6	-1	-1	4	-1	-1	2	2	24	19	16	1	-1	-1
105aa5	1973	0	14,8,2,2,4	105aa5#rankms=8_rankdc=9_reps=4_srate=1.0_class=A	5	5	2016-04-15	2016-09-11	DC    	20	10	U	12	-1	-1	10	-1	-1	2	2	24	21	2	1	-1	-1
106aa1	1974	nice	4,8,1,1,5	106aa1#rankms=6_rankdc=48_reps=2_srate=0.9_class=A	3	3	2016-04-15	2016-09-11	MS    	25	14	Y	-1	21	21	29	-1	-1	2	2	24	6	25	4	-1	-1
106aa1	1975	0	4,8,1,1,5	106aa1#rankms=6_rankdc=48_reps=2_srate=0.9_class=A	5	4	2016-04-15	2016-09-11	DC    	20	12	U	8	-1	-1	4	-1	-1	2	2	24	15	18	1	-1	-1
106aa1	1976	0	4,8,1,1,5	106aa1#rankms=6_rankdc=48_reps=2_srate=0.9_class=A	5	5	2016-04-15	2016-09-11	DC    	20	13	U	10	-1	-1	11	-1	-1	2	2	24	17	4	1	-1	-1
106aa2	1977	0	0	0	2	2	2016-04-15	2016-09-11	MS    	25	12	U	-1	17	17	8	-1	-1	2	2	24	6	18	4	-1	-1
106aa2	1978	0	0	0	5	5	2016-04-15	2016-09-11	DC    	20	14	U	7	-1	-1	3	-1	-1	2	2	24	17	5	1	-1	-1
106aa3	1979	0	4,0,1,0,0	106aa3#rankms=24_rankdc=101_reps=2_srate=0.5_class=A	2	2	2016-04-15	2016-09-11	MS    	25	13	Y	-1	19	19	13	-1	-1	2	2	24	5	33	4	-1	-1
106aa3	1980	0	4,0,1,0,0	106aa3#rankms=24_rankdc=101_reps=2_srate=0.5_class=A	5	5	2016-04-15	2016-09-11	DC    	20	12	U	5	-1	-1	7	-1	-1	2	2	24	13	4	1	-1	-1
106aa3	1981	0	4,0,1,0,0	106aa3#rankms=24_rankdc=101_reps=2_srate=0.5_class=A	5	0	2016-04-15	2016-09-11	DC    	20	12	U	0	-1	-1	0	-1	-1	2	2	24	14	14	1	-1	-1
106aa4	1982	0	0	0	2	2	2016-04-15	2016-09-11	MS    	25	12	U	-1	16	16	9	-1	-1	2	2	24	1	16	4	-1	-1
106aa4	1983	0	0	0	5	5	2016-04-15	2016-09-11	DC    	20	13	U	6	-1	-1	0	-1	-1	2	2	24	10	8	1	-1	-1
106aa6	1984	0	5,0,0,0,0	0	1	1	2016-04-15	2016-09-11	MS    	25	11	U	-1	17	17	4	-1	-1	2	2	24	1	22	4	-1	-1
106aa6	1985	0	5,0,0,0,0	0	5	4	2016-04-15	2016-09-11	DC    	20	11	U	5	-1	-1	2	-1	-1	2	2	24	10	13	1	-1	-1
106aa7	1986	Nice  syliptical 2016 FDC selection with 21mm collar. Rooted as a FDC cutting for 2 years.	5,0,1,0,0	106aa7~rankms=-1_rankdc=2_reps=1_srate=1.0_class=A	1	1	2016-04-15	2016-09-11	FDC   	20	12	U	21	-1	-1	7	-1	-1	2	2	24	20	6	3	-1	-1
106aa8	1987	Nice  syliptical 2016 FDC selection with 21mm collar. Rooted as a FDC cutting for 2 years.	5,0,0,0,0	106aa8~rankms=-1_rankdc=2_reps=1_srate=1.0_class=A	1	1	2016-04-15	2016-09-11	FDC   	20	12	U	21	-1	-1	7	-1	-1	2	2	24	20	6	3	-1	-1
106xaa	1988	1=9cuttings	0	0	4	4	2016-04-15	2016-09-11	FDC   	20	12	U	11	-1	-1	10	-1	-1	2	2	24	20	6	3	-1	-1
106xaa	1989	1=8cuttings	0	0	4	4	2016-04-15	2016-09-11	FDC   	20	9	U	10	-1	-1	8	-1	-1	2	2	24	21	5	3	-1	-1
107aa1	1990	0	0	0	2	2	2016-04-15	2016-09-11	MS    	25	11	U	-1	15	15	5	-1	-1	2	2	24	6	13	4	-1	-1
107aa1	1991	0	0	0	5	2	2016-04-15	2016-09-11	DC    	20	12	U	7	-1	-1	0	-1	-1	2	2	24	17	18	1	-1	-1
107aa2	1992	0	0	0	2	2	2016-04-15	2016-09-11	MS    	25	12	U	-1	19	19	8	-1	-1	2	2	24	6	23	4	-1	-1
107aa2	1993	0	0	0	5	5	2016-04-15	2016-09-11	DC    	20	13	U	7	-1	-1	3	-1	-1	2	2	24	10	21	1	-1	-1
107aa3	1994	syliptec shoots	0	107aa3#rankms=33_rankdc=61_reps=1_srate=1.0_class=A	2	2	2016-04-15	2016-09-11	MS    	25	12	U	-1	18	18	6	-1	-1	2	2	24	6	12	4	-1	-1
107aa3	1995	0	0	107aa3#rankms=33_rankdc=61_reps=1_srate=1.0_class=A	5	5	2016-04-15	2016-09-11	DC    	20	10	U	8	-1	-1	0	-1	-1	2	2	24	16	18	1	-1	-1
107aa7	1996	0	4,8,1,2,0	107aa7#rankms=23_rankdc=42_reps=1_srate=1.0_class=A	2	2	2016-04-15	2016-09-11	MS    	25	14	U	-1	19	19	14	-1	-1	2	2	24	6	22	4	-1	-1
107aa7	1997	0	4,8,1,2,0	107aa7#rankms=23_rankdc=42_reps=1_srate=1.0_class=A	5	5	2016-04-15	2016-09-11	DC    	20	13	Y	9	-1	-1	14	-1	-1	2	2	24	14	18	1	-1	-1
107xaa	1998	Retained 2	0	107xaa?0_0_0_0_class=A	10	9	2016-04-15	2016-09-11	FDC   	20	9	U	8	-1	-1	3	-1	-1	2	2	24	20	8	3	-1	-1
107xaa	1999	0	0	107xaa?0_0_0_0_class=A	10	10	2016-04-15	2016-09-11	FDC   	20	10	U	7	-1	-1	5	-1	-1	2	2	24	21	7	3	-1	-1
11ab1	2000	0	0	0	2	2	2016-04-15	2016-09-11	MS    	25	12	U	-1	15	15	8	-1	-1	2	2	24	1	18	4	-1	-1
11ab1	2001	0	0	0	5	5	2016-04-15	2016-09-11	DC    	20	10	U	7	-1	-1	1	-1	-1	2	2	24	10	6	1	-1	-1
11ab1	2002	0	0	0	5	5	2016-04-15	2016-09-11	DC    	20	11	U	6	-1	-1	5	-1	-1	2	2	24	11	6	1	-1	-1
11ab10	2003	nice	14,8,2,2,2	11ab10~rankms=2_rankdc=27_reps=2_srate=0.8_class=AH	2	2	2016-04-15	2016-09-11	MS    	25	14	Y	-1	24	24	18	-1	-1	2	2	24	6	19	4	-1	-1
11ab10	2004	0	14,8,2,2,2	11ab10~rankms=2_rankdc=27_reps=2_srate=0.8_class=AH	5	4	2016-04-15	2016-09-11	DC    	20	12	U	12	-1	-1	11	-1	-1	2	2	24	16	15	1	-1	-1
11ab10	2005	0	14,8,2,2,2	11ab10~rankms=2_rankdc=27_reps=2_srate=0.8_class=AH	5	4	2016-04-15	2016-09-11	DC    	20	12	Y	12	-1	-1	18	-1	-1	2	2	24	17	6	1	-1	-1
11ab11	2006	0	4,0,1,0,0	11ab11#rankms=13_rankdc=114_reps=1_srate=0.2_class=AH	2	2	2016-04-15	2016-09-11	MS    	25	16	Y	-1	21	21	13	-1	-1	2	2	24	1	19	4	-1	-1
11ab11	2007	0	4,0,1,0,0	11ab11#rankms=13_rankdc=114_reps=1_srate=0.2_class=AH	5	1	2016-04-15	2016-09-11	DC    	20	12	U	7	-1	-1	0	-1	-1	2	2	24	10	19	1	-1	-1
11ab20	2008	edge biased	0	0	2	2	2016-04-15	2016-09-11	MS    	25	10	U	-1	16	16	14	-1	-1	2	2	24	6	3	4	-1	-1
11ab20	2009	0	0	0	5	2	2016-04-15	2016-09-11	DC    	20	13	U	5	-1	-1	0	-1	-1	2	2	24	8	18	1	-1	-1
11ab20	2010	0	0	0	5	5	2016-04-15	2016-09-11	DC    	20	12	U	5	-1	-1	0	-1	-1	2	2	24	11	2	1	-1	-1
11ab22	2011	edge biased	14,8,2,2,0	11ab22~rankms=16_rankdc=43_reps=2_srate=0.8_class=AH	3	3	2016-04-15	2016-09-11	MS    	25	12	Y	-1	20	20	20	-1	-1	2	2	24	6	6	4	-1	-1
11ab22	2012	nice	14,8,2,2,0	11ab22~rankms=16_rankdc=43_reps=2_srate=0.8_class=AH	5	5	2016-04-15	2016-09-11	DC    	20	12	Y	13	-1	-1	14	-1	-1	2	2	24	8	19	1	-1	-1
11ab22	2013	0	14,8,2,2,0	11ab22~rankms=16_rankdc=43_reps=2_srate=0.8_class=AH	5	3	2016-04-15	2016-09-11	DC    	20	13	U	6	-1	-1	6	-1	-1	2	2	24	10	3	1	-1	-1
11ab3	2014	0	4,0,1,0,0	11ab3#rankms=25_rankdc=77_reps=2_srate=0.7_class=AH	2	2	2016-04-15	2016-09-11	MS    	25	11	U	-1	19	19	12	-1	-1	2	2	24	1	10	4	-1	-1
11ab3	2015	0	4,0,1,0,0	11ab3#rankms=25_rankdc=77_reps=2_srate=0.7_class=AH	5	3	2016-04-15	2016-09-11	DC    	20	11	U	8	-1	-1	0	-1	-1	2	2	24	10	14	1	-1	-1
11ab3	2016	0	4,0,1,0,0	11ab3#rankms=25_rankdc=77_reps=2_srate=0.7_class=AH	5	4	2016-04-15	2016-09-11	DC    	20	11	U	9	-1	-1	4	-1	-1	2	2	24	10	15	1	-1	-1
11xab	2017	0	0	11xab?0_0_0_0_class=AH	6	5	2016-04-15	2016-09-11	FDC   	20	10	U	6	-1	-1	1	-1	-1	2	2	24	20	12	3	-1	-1
11xab	2018	1=nice	0	11xab?0_0_0_0_class=AH	6	5	2016-04-15	2016-09-11	FDC   	20	11	U	12	-1	-1	9	-1	-1	2	2	24	21	11	3	-1	-1
13gb3	2019	0	0	0	2	1	2016-04-15	2016-09-11	MS    	25	14	U	-1	11	11	1	-1	-1	2	2	24	1	15	4	-1	-1
13gb3	2020	0	0	0	5	0	2016-04-15	2016-09-11	DC    	20	13	U	0	-1	-1	0	-1	-1	2	2	24	11	12	1	-1	-1
13gb3	2021	0	0	0	5	0	2016-04-15	2016-09-11	DC    	20	12	U	0	-1	-1	0	-1	-1	2	2	24	11	13	1	-1	-1
13gb6	2022	0	0,0,1,0,0	13gb6#rankms=40_rankdc=111_reps=2_srate=0.2_class=ASH	2	2	2016-04-15	2016-09-11	MS    	25	14	U	-1	17	17	7	-1	-1	2	2	24	4	18	4	-1	-1
13gb6	2023	0	0,0,1,0,0	13gb6#rankms=40_rankdc=111_reps=2_srate=0.2_class=ASH	5	0	2016-04-15	2016-09-11	DC    	20	13	U	0	-1	-1	0	-1	-1	2	2	24	14	1	1	-1	-1
13gb6	2024	0	0,0,1,0,0	13gb6#rankms=40_rankdc=111_reps=2_srate=0.2_class=ASH	5	2	2016-04-15	2016-09-11	DC    	20	12	U	9	-1	-1	0	-1	-1	2	2	24	15	2	1	-1	-1
13gb7	2025	0	0	0	1	1	2016-04-15	2016-09-11	MS    	25	17	U	-1	6	6	0	-1	-1	2	2	24	2	21	4	-1	-1
13gb7	2026	0	0	0	5	0	2016-04-15	2016-09-11	DC    	20	14	U	0	-1	-1	0	-1	-1	2	2	24	14	12	1	-1	-1
13gb7	2027	0	0	0	5	0	2016-04-15	2016-09-11	DC    	20	12	U	0	-1	-1	0	-1	-1	2	2	24	15	11	1	-1	-1
13xgb	2028	0	0	0	1	1	2016-04-15	2016-09-11	FDC   	20	8	U	7	-1	-1	0	-1	-1	2	2	24	20	2	3	-1	-1
13xgb	2029	0	0	0	1	1	2016-04-15	2016-09-11	FDC   	20	10	U	8	-1	-1	0	-1	-1	2	2	24	21	2	3	-1	-1
14b1	2030	0	0	0	3	3	2016-04-15	2016-09-11	MS    	25	13	U	-1	11	11	6	-1	-1	2	2	24	4	15	4	-1	-1
14b1	2031	0	0	0	5	5	2016-04-15	2016-09-11	DC    	20	10	U	5	-1	-1	2	-1	-1	2	2	24	6	2	1	-1	-1
14b1	2032	0	0	0	5	5	2016-04-15	2016-09-11	DC    	20	11	U	6	-1	-1	0	-1	-1	2	2	24	9	14	1	-1	-1
14b10	2033	0	14,8,2,2,4	14b10~rankms=56_rankdc=48_reps=2_srate=1.0_class=H	3	3	2016-04-15	2016-09-11	MS    	25	12	U	-1	15	15	9	-1	-1	2	2	24	3	34	4	-1	-1
14b10	2034	0	14,8,2,2,4	14b10~rankms=56_rankdc=48_reps=2_srate=1.0_class=H	5	5	2016-04-15	2016-09-11	DC    	20	8	Y	7	-1	-1	7	-1	-1	2	2	24	7	6	1	-1	-1
14b10	2035	0	14,8,2,2,4	14b10~rankms=56_rankdc=48_reps=2_srate=1.0_class=H	5	5	2016-04-15	2016-09-11	DC    	20	9	Y	9	-1	-1	10	-1	-1	2	2	24	8	15	1	-1	-1
14b11	2036	0	4,0,1,0,0	14b11#rankms=85_rankdc=82_reps=2_srate=0.8_class=H	3	3	2016-04-15	2016-09-11	MS    	25	12	U	-1	12	12	11	-1	-1	2	2	24	5	14	4	-1	-1
14b11	2037	0	4,0,1,0,0	14b11#rankms=85_rankdc=82_reps=2_srate=0.8_class=H	5	3	2016-04-15	2016-09-11	DC    	20	9	U	5	-1	-1	0	-1	-1	2	2	24	8	13	1	-1	-1
14b11	2038	0	4,0,1,0,0	14b11#rankms=85_rankdc=82_reps=2_srate=0.8_class=H	5	5	2016-04-15	2016-09-11	DC    	20	9	U	8	-1	-1	1	-1	-1	2	2	24	9	6	1	-1	-1
14b12	2039	0	0	0	3	3	2016-04-15	2016-09-11	MS    	25	12	U	-1	9	9	0	-1	-1	2	2	24	4	13	4	-1	-1
14b12	2040	0	0	0	5	5	2016-04-15	2016-09-11	DC    	20	11	U	6	-1	-1	3	-1	-1	2	2	24	6	8	1	-1	-1
14b12	2041	0	0	0	5	5	2016-04-15	2016-09-11	DC    	20	8	U	3	-1	-1	5	-1	-1	2	2	24	7	5	1	-1	-1
14b13	2042	0	0	0	3	3	2016-04-15	2016-09-11	MS    	25	12	Y	-1	16	16	18	-1	-1	2	2	24	5	24	4	-1	-1
14b13	2043	0	0	0	5	3	2016-04-15	2016-09-11	DC    	20	13	U	10	-1	-1	9	-1	-1	2	2	24	7	1	1	-1	-1
14b13	2044	0	0	0	5	2	2016-04-15	2016-09-11	DC    	20	13	U	14	-1	-1	5	-1	-1	2	2	24	9	11	1	-1	-1
14b14	2045	nice	4,8,1,2,0	14b14#rankms=56_rankdc=67_reps=2_srate=0.3_class=H	3	3	2016-04-15	2016-09-11	MS    	25	12	Y	-1	14	14	19	-1	-1	2	2	24	5	13	4	-1	-1
14b14	2046	0	4,8,1,2,0	14b14#rankms=56_rankdc=67_reps=2_srate=0.3_class=H	5	2	2016-04-15	2016-09-11	DC    	20	12	U	21	-1	-1	9	-1	-1	2	2	24	9	20	1	-1	-1
14b14	2047	0	0	0	4	1	2016-04-15	2016-09-11	DC    	20	11	U	14	-1	-1	5	-1	-1	2	2	24	9	21	1	-1	-1
14b15	2048	0	0	0	3	3	2016-04-15	2016-09-11	MS    	25	10	U	-1	13	13	9	-1	-1	2	2	24	4	11	4	-1	-1
14b15	2049	0	0	0	5	2	2016-04-15	2016-09-11	DC    	20	10	U	10	-1	-1	1	-1	-1	2	2	24	6	6	1	-1	-1
14b16	2050	propagates well	4,0,1,2,3	14b16#rankms=7_rankdc=72_reps=2_srate=1.0_class=H	2	2	2016-04-15	2016-09-11	MS    	25	12	Y	-1	22	22	15	-1	-1	2	2	24	4	7	4	-1	-1
14b16	2051	propagates well	4,0,1,2,3	14b16#rankms=7_rankdc=72_reps=2_srate=1.0_class=H	5	5	2016-04-15	2016-09-11	DC    	20	8	U	6	-1	-1	4	-1	-1	2	2	24	6	4	1	-1	-1
14b16	2052	propagates well	4,0,1,2,3	14b16#rankms=7_rankdc=72_reps=2_srate=1.0_class=H	5	5	2016-04-15	2016-09-11	DC    	20	8	Y	6	-1	-1	6	-1	-1	2	2	24	7	7	1	-1	-1
14b17	2053	0	4,0,1,1,0	14b17#rankms=45_rankdc=77_reps=2_srate=0.6_class=H	3	3	2016-04-15	2016-09-11	MS    	25	12	Y	-1	15	15	19	-1	-1	2	2	24	4	8	4	-1	-1
14b17	2054	0	4,0,1,1,0	14b17#rankms=45_rankdc=77_reps=2_srate=0.6_class=H	5	4	2016-04-15	2016-09-11	DC    	20	9	U	6	-1	-1	4	-1	-1	2	2	24	8	16	1	-1	-1
14b17	2055	QTY=4	4,0,1,1,0	14b17#rankms=45_rankdc=77_reps=2_srate=0.6_class=H	4	2	2016-04-15	2016-09-11	DC    	20	11	U	12	-1	-1	6	-1	-1	2	2	24	9	10	1	-1	-1
14b18	2056	0	0	0	3	3	2016-04-15	2016-09-11	MS    	25	12	Y	-1	15	15	18	-1	-1	2	2	24	4	9	4	-1	-1
14b18	2057	0	0	0	5	4	2016-04-15	2016-09-11	DC    	20	11	U	9	-1	-1	8	-1	-1	2	2	24	9	9	1	-1	-1
14b19	2058	0	4,0,1,0,0	14b19#rankms=64_rankdc=100_reps=2_srate=0.5_class=H	3	3	2016-04-15	2016-09-11	MS    	25	12	U	-1	14	14	12	-1	-1	2	2	24	4	17	4	-1	-1
14b19	2059	0	4,0,1,0,0	14b19#rankms=64_rankdc=100_reps=2_srate=0.5_class=H	5	3	2016-04-15	2016-09-11	DC    	20	11	U	5	-1	-1	0	-1	-1	2	2	24	6	7	1	-1	-1
14b19	2060	0	4,0,1,0,0	14b19#rankms=64_rankdc=100_reps=2_srate=0.5_class=H	5	2	2016-04-15	2016-09-11	DC    	20	9	U	9	-1	-1	0	-1	-1	2	2	24	7	4	1	-1	-1
14b20	2061	0	0	0	2	1	2016-04-15	2016-09-11	MS    	25	12	U	-1	9	9	0	-1	-1	2	2	24	4	12	4	-1	-1
14b20	2062	0	0	0	5	5	2016-04-15	2016-09-11	DC    	20	10	U	3	-1	-1	1	-1	-1	2	2	24	9	12	1	-1	-1
14b21	2063	biased	14,8,2,2,3	14b21~rankms=30_rankdc=29_reps=2_srate=0.9_class=H	3	3	2016-04-15	2016-09-11	MS    	25	12	U	-1	17	17	20	-1	-1	2	2	24	4	1	4	-1	-1
14b21	2064	0	14,8,2,2,3	14b21~rankms=30_rankdc=29_reps=2_srate=0.9_class=H	5	5	2016-04-15	2016-09-11	DC    	20	11	U	9	-1	-1	6	-1	-1	2	2	24	8	14	1	-1	-1
14b21	2065	0	14,8,2,2,3	14b21~rankms=30_rankdc=29_reps=2_srate=0.9_class=H	5	4	2016-04-15	2016-09-11	DC    	20	10	U	15	-1	-1	11	-1	-1	2	2	24	9	8	1	-1	-1
14b3	2066	0	0,0,1,0,0	14b3#rankms=75_rankdc=82_reps=2_srate=0.8_class=H	3	3	2016-04-15	2016-09-11	MS    	25	12	U	-1	13	13	11	-1	-1	2	2	24	4	5	4	-1	-1
14b3	2067	0	0,0,1,0,0	14b3#rankms=75_rankdc=82_reps=2_srate=0.8_class=H	5	3	2016-04-15	2016-09-11	DC    	20	11	U	7	-1	-1	0	-1	-1	2	2	24	8	9	1	-1	-1
14b3	2068	0	0,0,1,0,0	14b3#rankms=75_rankdc=82_reps=2_srate=0.8_class=H	5	5	2016-04-15	2016-09-11	DC    	20	9	U	6	-1	-1	5	-1	-1	2	2	24	8	10	1	-1	-1
14b30	2069	0	4,0,1,0,0	14b30#rankms=103_rankdc=63_reps=1_srate=0.8_class=H	1	1	2016-04-15	2016-09-11	MS    	25	15	U	-1	11	11	1	-1	-1	2	2	24	1	8	4	-1	-1
14b30	2070	0	4,0,1,0,0	14b30#rankms=103_rankdc=63_reps=1_srate=0.8_class=H	5	4	2016-04-15	2016-09-11	DC    	20	12	U	9	-1	-1	6	-1	-1	2	2	24	11	10	1	-1	-1
14b31	2071	0	14,0,2,0,0	14b31~rankms=133_rankdc=7_reps=1_srate=1.0_class=H	1	1	2016-04-15	2016-09-11	MS    	25	15	U	-1	8	8	0	-1	-1	2	2	24	1	28	4	-1	-1
14b31	2072	nice	14,0,2,0,0	14b31~rankms=133_rankdc=7_reps=1_srate=1.0_class=H	5	5	2016-04-15	2016-09-11	DC    	20	13	Y	14	-1	-1	16	-1	-1	2	2	24	11	11	1	-1	-1
14b4	2073	nice	4,0,1,0,0	14b4#rankms=23_rankdc=89_reps=2_srate=0.5_class=H	3	3	2016-04-15	2016-09-11	MS    	25	14	Y	-1	18	18	24	-1	-1	2	2	24	5	10	4	-1	-1
14b4	2074	0	4,0,1,0,0	14b4#rankms=23_rankdc=89_reps=2_srate=0.5_class=H	5	2	2016-04-15	2016-09-11	DC    	20	11	U	10	-1	-1	2	-1	-1	2	2	24	6	9	1	-1	-1
14b4	2075	0	4,0,1,0,0	14b4#rankms=23_rankdc=89_reps=2_srate=0.5_class=H	5	3	2016-04-15	2016-09-11	DC    	20	15	U	8	-1	-1	2	-1	-1	2	2	24	9	3	1	-1	-1
14b40	2076	nice big leaves FDC selection 	12,0,0,0,0	14b40#0_0_0_0_class=H	1	1	2016-04-15	2016-09-11	DC    	20	12	U	8	-1	-1	1	-1	-1	2	2	24	9	3	1	-1	-1
14b41	2077	nice FDC Selection	1,0,1,0,0	14b41#0_0_0_0_class=H	1	1	2016-04-15	2016-09-11	DC    	20	12	U	8	-1	-1	1	-1	-1	2	2	24	9	3	1	-1	-1
14b6	2078	0	4,0,1,0,0	14b6#rankms=105_rankdc=64_reps=1_srate=1.0_class=H	3	3	2016-04-15	2016-09-11	MS    	25	12	U	-1	10	10	7	-1	-1	2	2	24	4	16	4	-1	-1
14b6	2079	0	4,0,1,0,0	14b6#rankms=105_rankdc=64_reps=1_srate=1.0_class=H	5	5	2016-04-15	2016-09-11	DC    	20	10	Y	7	-1	-1	5	-1	-1	2	2	24	7	3	1	-1	-1
14b7	2080	nice - no bias	28,4,2,2,5	14b7~rankms=21_rankdc=51_reps=2_srate=1.0_class=H	3	3	2016-04-15	2016-09-11	MS    	25	12	Y	-1	19	19	21	-1	-1	2	2	24	4	14	4	-1	-1
14b7	2081	0	28,4,2,2,5	14b7~rankms=21_rankdc=51_reps=2_srate=1.0_class=H	5	5	2016-04-15	2016-09-11	DC    	20	7	U	6	-1	-1	1	-1	-1	2	2	24	6	3	1	-1	-1
14b7	2082	0	28,4,2,2,5	14b7~rankms=21_rankdc=51_reps=2_srate=1.0_class=H	5	5	2016-04-15	2016-09-11	DC    	20	10	Y	9	-1	-1	15	-1	-1	2	2	24	7	9	1	-1	-1
14b9	2083	0	0	0	5	4	2016-04-15	2016-09-11	DC    	20	12	U	10	-1	-1	6	-1	-1	2	2	24	10	1	1	-1	-1
14b9	2084	0	0	0	1	1	2016-04-15	2016-09-11	MS    	25	13	U	-1	17	17	4	-1	-1	2	2	24	3	9	4	-1	-1
14xb	2085	2=ok	4,0,0,0,0	14xb?0_0_0_0_class=H	10	8	2016-04-15	2016-09-11	FDC   	20	9	U	7	-1	-1	4	-1	-1	2	2	24	20	14	3	-1	-1
14xb	2086	3=nice retained 4	4,0,0,0,0	14xb?0_0_0_0_class=H	9	8	2016-04-15	2016-09-11	FDC   	20	7	Y	9	-1	-1	16	-1	-1	2	2	24	21	13	3	-1	-1
15b1	2087	0	0	0	3	3	2016-04-15	2016-09-11	MS    	25	11	U	-1	9	9	4	-1	-1	2	2	24	3	19	4	-1	-1
15b1	2088	0	0	0	5	5	2016-04-15	2016-09-11	DC    	20	11	U	7	-1	-1	0	-1	-1	2	2	24	16	14	1	-1	-1
15b11	2089	0	4,0,1,0,0	15b11#rankms=51_rankdc=85_reps=2_srate=0.5_class=H	3	3	2016-04-15	2016-09-11	MS    	25	12	U	-1	15	15	14	-1	-1	2	2	24	4	2	4	-1	-1
15b11	2090	0	4,0,1,0,0	15b11#rankms=51_rankdc=85_reps=2_srate=0.5_class=H	5	3	2016-04-15	2016-09-11	DC    	20	12	U	5	-1	-1	0	-1	-1	2	2	24	8	3	1	-1	-1
15b11	2091	0	4,0,1,0,0	15b11#rankms=51_rankdc=85_reps=2_srate=0.5_class=H	5	2	2016-04-15	2016-09-11	DC    	20	14	U	15	-1	-1	6	-1	-1	2	2	24	8	17	1	-1	-1
15b12	2092	0	0	0	3	3	2016-04-15	2016-09-11	MS    	25	12	U	-1	6	6	0	-1	-1	2	2	24	3	26	4	-1	-1
15b12	2093	0	0	0	5	4	2016-04-15	2016-09-11	DC    	20	10	U	5	-1	-1	0	-1	-1	2	2	24	16	16	1	-1	-1
15b14	2094	small diameter stools	4,0,1,0,0	15b14#rankms=156_rankdc=129_reps=1_srate=0.0_class=H	2	2	2016-04-15	2016-09-11	MS    	25	15	U	-1	9	9	9	-1	-1	2	2	24	5	16	4	-1	-1
15b14	2095	1st DC	4,0,1,0,0	15b14#rankms=156_rankdc=129_reps=1_srate=0.0_class=H	5	0	2016-04-15	2016-09-11	MS    	25	10	U	0	-1	-1	0	-1	-1	2	2	24	6	1	1	-1	-1
15b14	2096	0	4,0,1,0,0	15b14#rankms=156_rankdc=129_reps=1_srate=0.0_class=H	5	0	2016-04-15	2016-09-11	DC    	20	13	U	0	-1	-1	0	-1	-1	2	2	24	8	5	1	-1	-1
15b16	2097	0	0	0	3	3	2016-04-15	2016-09-11	MS    	25	10	U	-1	9	9	5	-1	-1	2	2	24	5	12	4	-1	-1
15b16	2098	0	0	0	5	5	2016-04-15	2016-09-11	DC    	20	9	U	5	-1	-1	0	-1	-1	2	2	24	9	4	1	-1	-1
15b16	2099	0	0	0	5	4	2016-04-15	2016-09-11	DC    	20	9	U	8	-1	-1	0	-1	-1	2	2	24	9	5	1	-1	-1
15b17	2100	0	0	0	3	3	2016-04-15	2016-09-11	MS    	25	13	U	-1	10	10	5	-1	-1	2	2	24	4	3	4	-1	-1
15b17	2101	0	0	0	5	5	2016-04-15	2016-09-11	DC    	20	12	U	8	-1	-1	4	-1	-1	2	2	24	8	6	1	-1	-1
15b17	2102	0	0	0	5	5	2016-04-15	2016-09-11	DC    	20	13	U	5	-1	-1	0	-1	-1	2	2	24	8	11	1	-1	-1
15b4	2103	0	0	0	2	1	2016-04-15	2016-09-11	MS    	25	10	U	-1	8	8	0	-1	-1	2	2	24	3	22	4	-1	-1
15b4	2104	0	0	0	5	3	2016-04-15	2016-09-11	DC    	20	8	U	4	-1	-1	0	-1	-1	2	2	24	14	22	1	-1	-1
15b4	2105	0	0	0	5	0	2016-04-15	2016-09-11	DC    	20	11	U	0	-1	-1	0	-1	-1	2	2	24	15	5	1	-1	-1
15b5	2106	0	4,0,1,0,0	15b5#rankms=121_rankdc=38_reps=1_srate=1.0_class=H	2	2	2016-04-15	2016-09-11	MS    	25	12	U	-1	9	9	0	-1	-1	2	2	24	3	18	4	-1	-1
15b5	2107	0	4,0,1,0,0	15b5#rankms=121_rankdc=38_reps=1_srate=1.0_class=H	5	5	2016-04-15	2016-09-11	DC    	20	13	U	10	-1	-1	6	-1	-1	2	2	24	14	20	1	-1	-1
15b6	2108	0	0	0	2	2	2016-04-15	2016-09-11	MS    	25	13	U	-1	8	8	0	-1	-1	2	2	24	3	30	4	-1	-1
15b6	2109	0	0	0	5	2	2016-04-15	2016-09-11	DC    	20	13	U	4	-1	-1	0	-1	-1	2	2	24	14	21	1	-1	-1
15b6	2110	0	0	0	5	3	2016-04-15	2016-09-11	DC    	20	12	U	12	-1	-1	9	-1	-1	2	2	24	16	2	1	-1	-1
15b8	2111	0	4,0,1,0,0	15b8#rankms=133_rankdc=27_reps=1_srate=1.0_class=H	3	3	2016-04-15	2016-09-11	MS    	25	12	U	-1	8	8	0	-1	-1	2	2	24	3	33	4	-1	-1
15b8	2112	0	4,0,1,0,0	15b8#rankms=133_rankdc=27_reps=1_srate=1.0_class=H	5	5	2016-04-15	2016-09-11	DC    	20	11	U	12	-1	-1	5	-1	-1	2	2	24	17	1	1	-1	-1
16ab1	2113	0	4,4,1,2,0	16ab1#rankms=15_rankdc=48_reps=1_srate=1.0_class=AH	2	2	2016-04-15	2016-09-11	MS    	25	13	U	-1	21	21	11	-1	-1	2	2	24	1	21	4	-1	-1
16ab1	2114	0	4,4,1,2,0	16ab1#rankms=15_rankdc=48_reps=1_srate=1.0_class=AH	5	5	2016-04-15	2016-09-11	DC    	20	14	Y	9	-1	-1	7	-1	-1	2	2	24	10	9	1	-1	-1
16ab4	2115	0	0	0	2	2	2016-04-15	2016-09-11	MS    	25	11	U	-1	10	10	0	-1	-1	2	2	24	1	24	4	-1	-1
16ab4	2116	0	0	0	5	5	2016-04-15	2016-09-11	DC    	20	11	U	7	-1	-1	1	-1	-1	2	2	24	11	9	1	-1	-1
16ab8	2117	0	14,0,2,2,0	16ab8~rankms=41_rankdc=33_reps=1_srate=0.8_class=AH	2	2	2016-04-15	2016-09-11	MS    	25	12	U	-1	17	17	6	-1	-1	2	2	24	1	12	4	-1	-1
16ab8	2118	0	14,0,2,2,0	16ab8~rankms=41_rankdc=33_reps=1_srate=0.8_class=AH	5	4	2016-04-15	2016-09-11	DC    	20	12	Y	13	-1	-1	14	-1	-1	2	2	24	11	7	1	-1	-1
16xab	2119	0	0	16xab?0_0_0_0_class=AH	4	4	2016-04-15	2016-09-11	FDC   	20	9	U	8	-1	-1	1	-1	-1	2	2	24	20	7	3	-1	-1
16xab	2120	ok, retained 1	0	16xab?0_0_0_0_class=AH	4	4	2016-04-15	2016-09-11	FDC   	20	9	U	16	-1	-1	9	-1	-1	2	2	24	21	6	3	-1	-1
17b3	2121	0	0	0	1	0	2016-04-15	2016-09-11	MS    	25	14	U	-1	0	0	0	-1	-1	2	2	24	3	16	4	-1	-1
17b3	2122	0	0	0	5	0	2016-04-15	2016-09-11	DC    	20	8	U	0	-1	-1	0	-1	-1	2	2	24	15	7	1	-1	-1
17b3	2123	0	0	0	5	1	2016-04-15	2016-09-11	DC    	20	12	U	7	-1	-1	0	-1	-1	2	2	24	17	16	1	-1	-1
18bg1	2124	0	0	0	3	3	2016-04-15	2016-09-11	MS    	25	11	U	-1	8	8	0	-1	-1	2	2	24	3	32	4	-1	-1
18bg1	2125	0	0	0	5	4	2016-04-15	2016-09-11	DC    	20	9	U	5	-1	-1	0	-1	-1	2	2	24	17	3	1	-1	-1
18bg1	2126	0	0	0	5	5	2016-04-15	2016-09-11	DC    	20	9	U	8	-1	-1	0	-1	-1	2	2	24	17	12	1	-1	-1
18bg11	2127	0	0	0	1	0	2016-04-15	2016-09-11	MS    	25	14	U	-1	0	0	0	-1	-1	2	2	24	5	3	4	-1	-1
18bg11	2128	0	0	0	5	3	2016-04-15	2016-09-11	DC    	20	11	U	8	-1	-1	0	-1	-1	2	2	24	13	20	1	-1	-1
18bg12	2129	0	0	0	1	1	2016-04-15	2016-09-11	MS    	25	15	U	-1	9	9	0	-1	-1	2	2	24	5	6	4	-1	-1
18bg12	2130	0	0	0	5	4	2016-04-15	2016-09-11	DC    	20	12	U	6	-1	-1	0	-1	-1	2	2	24	13	16	1	-1	-1
18bg13	2131	0	0	0	3	2	2016-04-15	2016-09-11	MS    	25	12	U	-1	4	4	0	-1	-1	2	2	24	5	4	4	-1	-1
18bg13	2132	0	0	0	5	4	2016-04-15	2016-09-11	DC    	20	14	U	8	-1	-1	2	-1	-1	2	2	24	13	5	1	-1	-1
18bg15	2133	0	0	0	2	2	2016-04-15	2016-09-11	MS    	25	12	U	-1	14	14	4	-1	-1	2	2	24	1	35	4	-1	-1
18bg15	2134	0	0	0	5	5	2016-04-15	2016-09-11	DC    	20	13	U	5	-1	-1	0	-1	-1	2	2	24	18	11	1	-1	-1
18bg17	2135	0	4,0,1,0,0	18bg17#rankms=45_rankdc=77_reps=1_srate=0.8_class=ASH	2	2	2016-04-15	2016-09-11	MS    	25	10	U	-1	16	16	9	-1	-1	2	2	24	1	32	4	-1	-1
18bg17	2136	0	4,0,1,0,0	18bg17#rankms=45_rankdc=77_reps=1_srate=0.8_class=ASH	5	4	2016-04-15	2016-09-11	DC    	20	11	U	8	-1	-1	0	-1	-1	2	2	24	18	6	1	-1	-1
18bg18	2137	weak	0	0	2	2	2016-04-15	2016-09-11	MS    	25	10	U	-1	4	4	0	-1	-1	2	2	24	3	15	4	-1	-1
18bg18	2138	0	0	0	5	2	2016-04-15	2016-09-11	DC    	20	13	U	9	-1	-1	0	-1	-1	2	2	24	16	10	1	-1	-1
18bg19	2139	0	16,4,2,0,3	18bg19~rankms=76_rankdc=50_reps=1_srate=1.0_class=ASH	3	3	2016-04-15	2016-09-11	MS    	25	12	U	-1	13	13	9	-1	-1	2	2	24	1	34	4	-1	-1
18bg19	2140	0	16,4,2,0,3	18bg19~rankms=76_rankdc=50_reps=1_srate=1.0_class=ASH	5	5	2016-04-15	2016-09-11	DC    	20	11	U	9	-1	-1	4	-1	-1	2	2	24	18	9	1	-1	-1
18bg2	2141	0	16,4,2,0,2	18bg2~rankms=64_rankdc=46_reps=1_srate=1.0_class=ASH	3	3	2016-04-15	2016-09-11	MS    	25	12	U	-1	14	14	12	-1	-1	2	2	24	1	31	4	-1	-1
18bg2	2142	ok	16,4,2,0,2	18bg2~rankms=64_rankdc=46_reps=1_srate=1.0_class=ASH	5	5	2016-04-15	2016-09-11	DC    	20	15	U	9	-1	-1	10	-1	-1	2	2	24	19	7	1	-1	-1
18bg20	2143	small diameter stools	0	0	3	2	2016-04-15	2016-09-11	MS    	25	9	U	-1	6	6	4	-1	-1	2	2	24	5	15	4	-1	-1
18bg20	2144	0	0	0	5	4	2016-04-15	2016-09-11	DC    	20	10	U	7	-1	-1	0	-1	-1	2	2	24	12	5	1	-1	-1
18bg21	2145	0	0	0	2	2	2016-04-15	2016-09-11	MS    	25	12	U	-1	6	6	0	-1	-1	2	2	24	3	27	4	-1	-1
18bg21	2146	0	0	0	5	3	2016-04-15	2016-09-11	DC    	20	12	U	10	-1	-1	1	-1	-1	2	2	24	14	6	1	-1	-1
18bg22	2147	0	0	0	2	2	2016-04-15	2016-09-11	MS    	25	10	U	-1	14	14	4	-1	-1	2	2	24	3	24	4	-1	-1
18bg22	2148	0	0	0	5	3	2016-04-15	2016-09-11	DC    	20	9	U	7	-1	-1	0	-1	-1	2	2	24	14	7	1	-1	-1
18bg23	2149	0	0	0	3	3	2016-04-15	2016-09-11	MS    	25	12	U	-1	8	8	3	-1	-1	2	2	24	5	5	4	-1	-1
18bg23	2150	0	0	0	5	2	2016-04-15	2016-09-11	DC    	20	14	U	7	-1	-1	0	-1	-1	2	2	24	12	7	1	-1	-1
18bg24	2151	0	0	0	2	2	2016-04-15	2016-09-11	MS    	25	11	U	-1	8	8	0	-1	-1	2	2	24	4	30	4	-1	-1
18bg24	2152	0	0	0	5	3	2016-04-15	2016-09-11	DC    	20	13	U	6	-1	-1	0	-1	-1	2	2	24	12	15	1	-1	-1
18bg25	2153	0	14,8,2,2,4	18bg25~rankms=115_rankdc=59_reps=2_srate=0.8_class=ASH	3	3	2016-04-15	2016-09-11	MS    	25	13	U	-1	9	9	7	-1	-1	2	2	24	3	17	4	-1	-1
18bg25	2154	0	14,8,2,2,4	18bg25~rankms=115_rankdc=59_reps=2_srate=0.8_class=ASH	5	4	2016-04-15	2016-09-11	DC    	20	10	U	8	-1	-1	5	-1	-1	2	2	24	14	5	1	-1	-1
18bg25	2155	0	14,8,2,2,4	18bg25~rankms=115_rankdc=59_reps=2_srate=0.8_class=ASH	5	4	2016-04-15	2016-09-11	DC    	20	13	U	10	-1	-1	6	-1	-1	2	2	24	15	6	1	-1	-1
18bg3	2156	0	0	0	3	3	2016-04-15	2016-09-11	MS    	25	11	U	-1	8	8	4	-1	-1	2	2	24	3	23	4	-1	-1
18bg3	2157	0	0	0	5	0	2016-04-15	2016-09-11	DC    	20	12	U	0	-1	-1	0	-1	-1	2	2	24	15	20	1	-1	-1
18bg3	2158	0	0	0	5	3	2016-04-15	2016-09-11	DC    	20	13	U	5	-1	-1	0	-1	-1	2	2	24	16	12	1	-1	-1
18bg5	2159	0	0	0	1	0	2016-04-15	2016-09-11	MS    	25	17	U	-1	0	0	0	-1	-1	2	2	24	2	6	4	-1	-1
18bg5	2160	0	0	0	5	2	2016-04-15	2016-09-11	DC    	20	15	U	11	-1	-1	2	-1	-1	2	2	24	13	14	1	-1	-1
18bg8	2161	0	0	0	2	2	2016-04-15	2016-09-11	MS    	25	8	U	-1	5	5	0	-1	-1	2	2	24	2	9	4	-1	-1
18bg8	2162	0	0	0	5	1	2016-04-15	2016-09-11	DC    	20	8	U	4	-1	-1	0	-1	-1	2	2	24	12	17	1	-1	-1
18bg9	2163	0	0	0	3	3	2016-04-15	2016-09-11	MS    	25	8	U	-1	3	3	0	-1	-1	2	2	24	2	7	4	-1	-1
18bg9	2164	0	0	0	5	3	2016-04-15	2016-09-11	DC    	20	8	U	6	-1	-1	0	-1	-1	2	2	24	13	10	1	-1	-1
18xbg	2165	3=10cuttings nice leaves	4,0,0,0,0	18xbg?0_0_0_0_class=ASH	7	6	2016-04-15	2016-09-11	FDC   	20	8	U	11	-1	-1	10	-1	-1	2	2	24	20	5	3	-1	-1
18xbg	2166	0	4,0,0,0,0	18xbg?0_0_0_0_class=ASH	7	5	2016-04-15	2016-09-11	FDC   	20	10	U	7	-1	-1	8	-1	-1	2	2	24	21	4	3	-1	-1
19gb1	2167	nice - nice leaves	0,0,1,0,0	19gb1#rankms=62_rankdc=105_reps=2_srate=0.3_class=ASH	2	2	2016-04-15	2016-09-11	MS    	25	12	U	-1	15	15	4	-1	-1	2	2	24	4	20	4	-1	-1
19gb1	2168	0	0,0,1,0,0	19gb1#rankms=62_rankdc=105_reps=2_srate=0.3_class=ASH	5	0	2016-04-15	2016-09-11	DC    	20	13	U	0	-1	-1	0	-1	-1	2	2	24	12	6	1	-1	-1
19gb1	2169	0	0,0,1,0,0	19gb1#rankms=62_rankdc=105_reps=2_srate=0.3_class=ASH	5	3	2016-04-15	2016-09-11	DC    	20	13	U	7	-1	-1	5	-1	-1	2	2	24	14	2	1	-1	-1
19gb2	2170	0	0	0	2	2	2016-04-15	2016-09-11	MS    	25	13	U	-1	12	12	2	-1	-1	2	2	24	4	23	4	-1	-1
19gb2	2171	0	0	0	5	0	2016-04-15	2016-09-11	DC    	20	10	U	0	-1	-1	0	-1	-1	2	2	24	9	25	1	-1	-1
19gb2	2172	0	0	0	5	0	2016-04-15	2016-09-11	DC    	20	13	U	0	-1	-1	0	-1	-1	2	2	24	12	23	1	-1	-1
19gb9	2173	edge biased	4,0,1,0,0	19gb9#rankms=29_rankdc=96_reps=2_srate=0.5_class=ASH	2	2	2016-04-15	2016-09-11	MS    	25	13	U	-1	18	18	11	-1	-1	2	2	24	6	4	4	-1	-1
19gb9	2174	0	4,0,1,0,0	19gb9#rankms=29_rankdc=96_reps=2_srate=0.5_class=ASH	5	4	2016-04-15	2016-09-11	DC    	20	12	U	7	-1	-1	3	-1	-1	2	2	24	10	4	1	-1	-1
19gb9	2175	0	4,0,1,0,0	19gb9#rankms=29_rankdc=96_reps=2_srate=0.5_class=ASH	5	1	2016-04-15	2016-09-11	DC    	20	12	U	5	-1	-1	0	-1	-1	2	2	24	11	5	1	-1	-1
19xgb	2176	Start Family Dormant Cuttings (FDC) 1=6cuttings, retained 2	0	19xgb?0_0_0_0_class=ASH	3	3	2016-04-15	2016-09-11	FDC   	20	8	U	9	-1	-1	6	-1	-1	2	2	24	20	1	3	-1	-1
19xgb	2177	Retained 2	0	19xgb?0_0_0_0_class=ASH	3	2	2016-04-15	2016-09-11	FDC   	20	8	U	14	-1	-1	4	-1	-1	2	2	24	21	1	3	-1	-1
1bar1	2178	Dead	0	0	1	0	2016-04-15	2016-09-11	MS    	25	10	U	-1	0	0	0	-1	-1	2	2	24	1	4	4	-1	-1
1bar2	2179	Dead	0	0	1	1	2016-04-15	2016-09-11	MS    	25	8	U	-1	0	0	0	-1	-1	2	2	24	1	23	4	-1	-1
1bw1	2180	weak	0	0	2	2	2016-04-15	2016-09-11	MS    	25	11	U	-1	4	4	0	-1	-1	2	2	24	2	11	4	-1	-1
1bw1	2181	edge biased	0	0	2	2	2016-04-15	2016-09-11	MS    	25	7	U	-1	10	10	2	-1	-1	2	2	24	6	1	4	-1	-1
1bw1	2182	0	0	0	5	4	2016-04-15	2016-09-11	DC    	20	9	U	5	-1	-1	0	-1	-1	2	2	24	12	10	1	-1	-1
1bw1	2183	0	0	0	5	2	2016-04-15	2016-09-11	DC    	20	8	U	6	-1	-1	0	-1	-1	2	2	24	14	17	1	-1	-1
1bw6	2184	edge biased - AG type	14,8,2,2,6	1bw6~rankms=13_rankdc=39_reps=3_srate=1.0_class=H	4	4	2016-04-15	2016-09-11	MS    	25	10	Y	-1	20	20	23	-1	-1	2	2	24	6	5	4	-1	-1
1bw6	2185	ag type	14,8,2,2,6	1bw6~rankms=13_rankdc=39_reps=3_srate=1.0_class=H	5	5	2016-04-15	2016-09-11	DC    	20	11	Y	9	-1	-1	5	-1	-1	2	2	24	10	2	1	-1	-1
1bw6	2186	0	14,8,2,2,6	1bw6~rankms=13_rankdc=39_reps=3_srate=1.0_class=H	5	5	2016-04-15	2016-09-11	DC    	20	10	Y	11	-1	-1	6	-1	-1	2	2	24	11	3	1	-1	-1
1bw6	2187	0	14,8,2,2,6	1bw6~rankms=13_rankdc=39_reps=3_srate=1.0_class=H	5	5	2016-04-15	2016-09-11	DC    	20	9	U	8	-1	-1	1	-1	-1	2	2	24	18	18	1	-1	-1
1xarg	2188	S-N rows.Rakers seedlngs 6/18/16 (mixed with few 24x) 	0	0	4	4	2016-04-15	2016-09-11	SEL   	15	2	U	6	-1	-1	1	-1	-1	2	2	24	26	1	6	-1	-1
1xarg	2189	S-N rows.Rakers seedlngs 6/18/16 (mixed with few 24x) 	0	0	5	3	2016-04-15	2016-09-11	SEL   	15	2	U	7	-1	-1	0	-1	-1	2	2	24	27	1	6	-1	-1
20bs1	2190	0	14,8,2,2,1	20bs1~rankms=10_rankdc=10_reps=1_srate=1.0_class=AH	2	2	2016-04-15	2016-09-11	MS    	25	12	Y	-1	21	21	17	-1	-1	2	2	24	6	21	4	-1	-1
20bs1	2191	nice	14,8,2,2,1	20bs1~rankms=10_rankdc=10_reps=1_srate=1.0_class=AH	5	5	2016-04-15	2016-09-11	DC    	20	13	Y	13	-1	-1	18	-1	-1	2	2	24	12	3	1	-1	-1
20bs4	2192	0	0	0	2	2	2016-04-15	2016-09-11	MS    	25	14	U	-1	16	16	5	-1	-1	2	2	24	6	17	4	-1	-1
20bs4	2193	0	0	0	5	5	2016-04-15	2016-09-11	DC    	20	13	U	6	-1	-1	3	-1	-1	2	2	24	16	21	1	-1	-1
20bs5	2194	0	4,8,1,2,2	20bs5#rankms=26_rankdc=29_reps=1_srate=1.0_class=AH	2	2	2016-04-15	2016-09-11	MS    	25	9	U	-1	19	19	10	-1	-1	2	2	24	1	13	4	-1	-1
20bs5	2195	nice	4,8,1,2,2	20bs5#rankms=26_rankdc=29_reps=1_srate=1.0_class=AH	5	5	2016-04-15	2016-09-11	DC    	20	13	Y	11	-1	-1	12	-1	-1	2	2	24	11	19	1	-1	-1
20bs6	2196	0	4,0,1,0,0	20bs6#rankms=37_rankdc=51_reps=1_srate=1.0_class=AH	2	2	2016-04-15	2016-09-11	MS    	25	13	U	-1	17	17	11	-1	-1	2	2	24	1	25	4	-1	-1
20bs6	2197	0	4,0,1,0,0	20bs6#rankms=37_rankdc=51_reps=1_srate=1.0_class=AH	5	5	2016-04-15	2016-09-11	DC    	20	13	Y	8	-1	-1	11	-1	-1	2	2	24	11	15	1	-1	-1
20bs8	2198	0	4,0,1,0,0	20bs8#rankms=37_rankdc=56_reps=1_srate=0.6_class=AH	2	2	2016-04-15	2016-09-11	MS    	25	10	U	-1	17	17	11	-1	-1	2	2	24	6	20	4	-1	-1
20bs8	2199	0	4,0,1,0,0	20bs8#rankms=37_rankdc=56_reps=1_srate=0.6_class=AH	5	3	2016-04-15	2016-09-11	DC    	20	12	U	12	-1	-1	14	-1	-1	2	2	24	16	19	1	-1	-1
20xbs	2200	0	3,0,0,0,0	20xbs?0_0_0_0_class=ASH	7	6	2016-04-15	2016-09-11	FDC   	20	10	U	6	-1	-1	3	-1	-1	2	2	24	20	9	3	-1	-1
20xbs	2201	2=nice Retained 3	3,0,0,0,0	20xbs?0_0_0_0_class=ASH	6	6	2016-04-15	2016-09-11	FDC   	20	10	Y	15	-1	-1	16	-1	-1	2	2	24	21	8	3	-1	-1
22bg1	2202	0	0	0	3	3	2016-04-15	2016-09-11	MS    	25	13	U	-1	10	10	2	-1	-1	2	2	24	5	21	4	-1	-1
22bg1	2203	0	0	22bg1~rankms=112_rankdc=57_reps=3_srate=0.8_class=ASH	5	3	2016-04-15	2016-09-11	DC    	20	11	U	13	-1	-1	8	-1	-1	2	2	24	6	11	1	-1	-1
22bg1	2204	0	0	22bg1~rankms=112_rankdc=57_reps=3_srate=0.8_class=ASH	5	4	2016-04-15	2016-09-11	DC    	20	11	U	10	-1	-1	1	-1	-1	2	2	24	9	2	1	-1	-1
22bg1	2205	End of Rep 1 DC materials	0	22bg1~rankms=112_rankdc=57_reps=3_srate=0.8_class=ASH	5	5	2016-04-15	2016-09-11	DC    	20	8	U	7	-1	-1	0	-1	-1	2	2	24	20	3	1	-1	-1
22bg10	2206	0	0	0	3	3	2016-04-15	2016-09-11	MS    	25	14	U	-1	5	5	0	-1	-1	2	2	24	4	4	4	-1	-1
22bg10	2207	0	0	0	5	2	2016-04-15	2016-09-11	DC    	20	12	U	10	-1	-1	1	-1	-1	2	2	24	8	12	1	-1	-1
22bg10	2208	0	0	0	5	3	2016-04-15	2016-09-11	DC    	20	13	U	7	-1	-1	0	-1	-1	2	2	24	9	17	1	-1	-1
22bg11	2209	0	0	0	2	2	2016-04-15	2016-09-11	MS    	25	12	U	-1	7	7	0	-1	-1	2	2	24	3	28	4	-1	-1
22bg11	2210	0	0	0	5	2	2016-04-15	2016-09-11	DC    	20	12	U	9	-1	-1	0	-1	-1	2	2	24	16	3	1	-1	-1
22bg13	2211	0	0	0	2	2	2016-04-15	2016-09-11	MS    	25	15	U	-1	15	15	6	-1	-1	2	2	24	5	20	4	-1	-1
22bg13	2212	0	0	0	5	1	2016-04-15	2016-09-11	DC    	20	13	U	5	-1	-1	0	-1	-1	2	2	24	8	20	1	-1	-1
22bg13	2213	0	0	0	5	1	2016-04-15	2016-09-11	DC    	20	14	U	4	-1	-1	0	-1	-1	2	2	24	9	16	1	-1	-1
22bg2	2214	0	0	0	2	2	2016-04-15	2016-09-11	MS    	25	13	U	-1	5	5	0	-1	-1	2	2	24	5	23	4	-1	-1
22bg2	2215	0	0	0	5	2	2016-04-15	2016-09-11	DC    	20	12	U	4	-1	-1	0	-1	-1	2	2	24	8	7	1	-1	-1
22bg3	2216	0	0	0	2	2	2016-04-15	2016-09-11	MS    	25	12	U	-1	12	12	2	-1	-1	2	2	24	4	6	4	-1	-1
22bg3	2217	0	0	0	5	4	2016-04-15	2016-09-11	DC    	20	12	U	6	-1	-1	0	-1	-1	2	2	24	8	8	1	-1	-1
22bg5	2218	0	0	0	3	3	2016-04-15	2016-09-11	MS    	25	14	U	-1	15	15	16	-1	-1	2	2	24	5	22	4	-1	-1
22bg5	2219	0	0	0	5	5	2016-04-15	2016-09-11	DC    	20	11	U	4	-1	-1	0	-1	-1	2	2	24	8	4	1	-1	-1
22bg5	2220	0	0	0	5	4	2016-04-15	2016-09-11	DC    	20	12	U	7	-1	-1	1	-1	-1	2	2	24	9	7	1	-1	-1
7xbt	2378	2=nice Retained 2	0	7xbt?0_0_0_0_class=ASH	4	4	2016-04-15	2016-09-11	FDC   	20	11	U	16	-1	-1	12	-1	-1	2	2	24	21	10	3	-1	-1
22bg7	2221	edge biased - large clean leaves	4,0,1,0,0	22bg7#rankms=30_rankdc=92_reps=2_srate=0.6_class=ASH	2	2	2016-04-15	2016-09-11	MS    	25	13	U	-1	17	17	6	-1	-1	2	2	24	6	10	4	-1	-1
22bg7	2222	0	4,0,1,0,0	22bg7#rankms=30_rankdc=92_reps=2_srate=0.6_class=ASH	5	2	2016-04-15	2016-09-11	DC    	20	12	Y	7	-1	-1	0	-1	-1	2	2	24	7	2	1	-1	-1
22bg7	2223	Was mislabeled as 2bg7 then renamed as 22bg7	4,0,1,0,0	22bg7#rankms=30_rankdc=92_reps=2_srate=0.6_class=ASH	2	2	2016-04-15	2016-09-11	MS    	25	12	U	-1	18	18	9	-1	-1	2	2	24	3	7	4	-1	-1
22bg7	2224	0	4,0,1,0,0	22bg7#rankms=30_rankdc=92_reps=2_srate=0.6_class=ASH	5	4	2016-04-15	2016-09-11	DC    	20	14	U	7	-1	-1	0	-1	-1	2	2	24	9	13	1	-1	-1
22bg8	2225	0	4,0,1,0,0	22bg8#rankms=83_rankdc=80_reps=2_srate=0.6_class=ASH	2	2	2016-04-15	2016-09-11	MS    	25	14	U	-1	13	13	4	-1	-1	2	2	24	6	9	4	-1	-1
22bg8	2226	0	4,0,1,0,0	22bg8#rankms=83_rankdc=80_reps=2_srate=0.6_class=ASH	5	2	2016-04-15	2016-09-11	DC    	20	13	U	7	-1	-1	18	-1	-1	2	2	24	7	11	1	-1	-1
22bg8	2227	0	4,0,1,0,0	22bg8#rankms=83_rankdc=80_reps=2_srate=0.6_class=ASH	5	4	2016-04-15	2016-09-11	DC    	20	11	U	7	-1	-1	0	-1	-1	2	2	24	8	1	1	-1	-1
22xbg	2228	Retained 3	0	22xbg?0_0_0_0_class=ASH	7	5	2016-04-15	2016-09-11	FDC   	20	8	U	6	-1	-1	2	-1	-1	2	2	24	20	4	3	-1	-1
22xbg	2229	0	0	22xbg?0_0_0_0_class=ASH	12	8	2016-04-15	2016-09-11	FDC   	20	9	U	6	-1	-1	6	-1	-1	2	2	24	21	3	3	-1	-1
23ba10	2230	2 boles, big	14,8,2,2,4	23ba10~rankms=117_rankdc=37_reps=2_srate=1.0_class=AH	3	3	2016-04-15	2016-09-11	MS    	25	14	U	-1	8	8	14	-1	-1	2	2	24	3	14	4	-1	-1
23ba10	2231	0	14,8,2,2,4	23ba10~rankms=117_rankdc=37_reps=2_srate=1.0_class=AH	5	5	2016-04-15	2016-09-11	DC    	20	15	Y	11	-1	-1	6	-1	-1	2	2	24	14	8	1	-1	-1
23ba10	2232	0	14,8,2,2,4	23ba10~rankms=117_rankdc=37_reps=2_srate=1.0_class=AH	5	5	2016-04-15	2016-09-11	DC    	20	12	U	8	-1	-1	6	-1	-1	2	2	24	15	8	1	-1	-1
23ba11	2233	0	0	23ba11~rankms=109_rankdc=17_reps=2_srate=1.0_class=AH	4	4	2016-04-15	2016-09-11	MS    	25	13	U	-1	10	10	4	-1	-1	2	2	24	3	31	4	-1	-1
23ba11	2234	0	0	23ba11~rankms=109_rankdc=17_reps=2_srate=1.0_class=AH	5	5	2016-04-15	2016-09-11	DC    	20	12	U	7	-1	-1	5	-1	-1	2	2	24	15	22	1	-1	-1
23ba11	2235	0	0	23ba11~rankms=109_rankdc=17_reps=2_srate=1.0_class=AH	5	5	2016-04-15	2016-09-11	DC    	20	12	Y	16	-1	-1	17	-1	-1	2	2	24	17	2	1	-1	-1
23ba15	2236	0	14,4,2,1,0	23ba15~rankms=60_rankdc=4_reps=1_srate=1.0_class=AH	2	2	2016-04-15	2016-09-11	MS    	25	12	U	-1	15	15	5	-1	-1	2	2	24	3	20	4	-1	-1
23ba15	2237	Nice, was incorrectly named 2ba15	14,4,2,1,0	23ba15~rankms=60_rankdc=4_reps=1_srate=1.0_class=AH	5	5	2016-04-15	2016-09-11	DC    	20	13	Y	16	-1	-1	19	-1	-1	2	2	24	16	11	1	-1	-1
23ba18	2238	cuttings had 20 ft. of cuttings	14,4,2,0,3	23ba18~rankms=121_rankdc=6_reps=1_srate=1.0_class=AH	3	3	2016-04-15	2016-09-11	MS    	25	12	U	-1	9	9	0	-1	-1	2	2	24	3	29	4	-1	-1
23ba18	2239	0	14,4,2,0,3	23ba18~rankms=121_rankdc=6_reps=1_srate=1.0_class=AH	5	5	2016-04-15	2016-09-11	DC    	20	12	Y	14	-1	-1	20	-1	-1	2	2	24	15	21	1	-1	-1
23ba20	2240	Wavy, nice super thick stem, 2016 FDC selection with 24mm collar. Rooted as a FDC cutting for 2 years.	13,0,0,0,0	23ba20~0_0_0_0_class=AH	1	1	2016-04-15	2016-09-11	FDC   	20	12	Y	24	-1	-1	7	-1	-1	2	2	24	20	3	3	-1	-1
23ba21	2241	Nice straight stem, 2016 FDC selection with 18 mm collar. Rooted as a FDC cutting for 2 years.	13,0,0,0,0	23ba21~0_0_0_0_class=AH	1	1	2016-04-15	2016-09-11	FDC   	20	12	Y	18	-1	-1	7	-1	-1	2	2	24	20	3	3	-1	-1
23ba2	2242	0	4,0,1,0,2	23ba2#rankms=64_rankdc=88_reps=1_srate=0.8_class=AH	3	3	2016-04-15	2016-09-11	MS    	25	9	U	-1	15	15	2	-1	-1	2	2	24	1	20	4	-1	-1
23ba2	2243	all curly	4,0,1,0,2	23ba2#rankms=64_rankdc=88_reps=1_srate=0.8_class=AH	5	4	2016-04-15	2016-09-11	DC    	20	12	U	6	-1	-1	1	-1	-1	2	2	24	11	23	1	-1	-1
23ba3	2244	0	0	0	2	2	2016-04-15	2016-09-11	MS    	25	12	U	-1	13	13	4	-1	-1	2	2	24	1	11	4	-1	-1
23ba3	2245	0	0	0	5	4	2016-04-15	2016-09-11	DC    	20	13	U	8	-1	-1	1	-1	-1	2	2	24	10	10	1	-1	-1
23ba4	2246	Curvy	0	0	1	1	2016-04-15	2016-09-11	MS    	25	10	U	-1	12	12	3	-1	-1	2	2	24	1	3	4	-1	-1
23ba4	2247	all curly	0	0	5	5	2016-04-15	2016-09-11	DC    	20	8	U	5	-1	-1	0	-1	-1	2	2	24	11	16	1	-1	-1
23ba5	2248	0	4,8,1,1,0	23ba5#rankms=60_rankdc=49_reps=1_srate=1.0_class=AH	2	2	2016-04-15	2016-09-11	MS    	25	12	U	-1	15	15	5	-1	-1	2	2	24	1	14	4	-1	-1
23ba5	2249	0	4,8,1,1,0	23ba5#rankms=60_rankdc=49_reps=1_srate=1.0_class=AH	5	5	2016-04-15	2016-09-11	DC    	20	13	U	9	-1	-1	5	-1	-1	2	2	24	11	8	1	-1	-1
23xba	2250	0	9,0,0,0,0	23xba?0_0_0_0_class=AH	3	3	2016-04-15	2016-09-11	FDC   	20	8	U	-1	9	9	3	-1	-1	2	2	24	1	5	4	-1	-1
23xba	2251	nice - 1=9cuttings curly, retained 7	9,0,0,0,0	23xba?0_0_0_0_class=AH	4	4	2016-04-15	2016-09-11	FDC   	20	11	U	9	-1	-1	9	-1	-1	2	2	24	20	3	3	-1	-1
23xba	2252	0	9,0,0,0,0	23xba?0_0_0_0_class=AH	12	10	2016-04-15	2016-09-11	FDC   	20	9	U	8	-1	-1	5	-1	-1	2	2	24	20	10	3	-1	-1
23xba	2253	0	9,0,0,0,0	23xba?0_0_0_0_class=AH	13	10	2016-04-15	2016-09-11	FDC   	20	9	Y	11	-1	-1	30	-1	-1	2	2	24	21	9	3	-1	-1
25xr	2254	Rakers seedlngs 6/18/16	177,16,0,0,0	25xr?0_0_0_0_class=H	118	76	2016-04-15	2016-09-11	SEL   	15	2	Y	6	-1	-1	15	-1	-1	2	2	24	22	1	6	-1	-1
25xr	2255	Rakers seedlngs 6/18/16	177,16,0,0,0	25xr?0_0_0_0_class=H	118	68	2016-04-15	2016-09-11	SEL   	15	2	Y	6	-1	-1	20	-1	-1	2	2	24	23	1	6	-1	-1
25xr	2256	Bell Lights - seedling, 4/24, planted 6/15 Leaf issues	177,16,0,0,0	25xr?0_0_0_0_class=H	5	5	2016-04-15	2016-09-11	SEL   	15	2	U	10	-1	-1	3	-1	-1	2	2	24	24	3	6	-1	-1
25xr	2257	Rakers seedlngs 6/18/16 leaf issues	177,16,0,0,0	25xr?0_0_0_0_class=H	94	49	2016-04-15	2016-09-11	SEL   	15	2	Y	7	-1	-1	23	-1	-1	2	2	24	26	2	6	-1	-1
25xr	2258	Rakers seedlngs 6/18/16 leaf issues	177,16,0,0,0	25xr?0_0_0_0_class=H	94	51	2016-04-15	2016-09-11	SEL   	15	2	Y	7	-1	-1	21	-1	-1	2	2	24	27	2	6	-1	-1
2b21	2259	0	14,8,2,4,5	2b21~rankms=42_rankdc=30_reps=3_srate=0.9_class=H	3	3	2016-04-15	2016-09-11	MS    	25	12	U	-1	17	17	8	-1	-1	2	2	24	5	7	4	-1	-1
2b21	2260	0	14,8,2,4,5	2b21~rankms=42_rankdc=30_reps=3_srate=0.9_class=H	3	3	2016-04-15	2016-09-11	MS    	25	12	U	-1	15	15	7	-1	-1	2	2	24	5	9	4	-1	-1
2b21	2261	0	14,8,2,4,5	2b21~rankms=42_rankdc=30_reps=3_srate=0.9_class=H	5	5	2016-04-15	2016-09-11	DC    	20	12	Y	12	-1	-1	11	-1	-1	2	2	24	12	16	1	-1	-1
2b21	2262	0	14,8,2,4,5	2b21~rankms=42_rankdc=30_reps=3_srate=0.9_class=H	5	5	2016-04-15	2016-09-11	DC    	20	11	U	10	-1	-1	4	-1	-1	2	2	24	13	15	1	-1	-1
2b21	2263	0	14,8,2,4,5	2b21~rankms=42_rankdc=30_reps=3_srate=0.9_class=H	5	4	2016-04-15	2016-09-11	DC    	20	8	U	11	-1	-1	4	-1	-1	2	2	24	19	20	1	-1	-1
2b22	2264	0	4,8,0,0,0	2b22#rankms=66_rankdc=42_reps=2_srate=0.9_class=H	3	3	2016-04-15	2016-09-11	MS    	25	12	U	-1	13	13	11	-1	-1	2	2	24	1	37	4	-1	-1
2b22	2265	0	4,8,0,0,0	2b22#rankms=66_rankdc=42_reps=2_srate=0.9_class=H	1	1	2016-04-15	2016-09-11	MS    	25	16	U	-1	14	14	5	-1	-1	2	2	24	3	2	4	-1	-1
2b22	2266	0	4,8,0,0,0	2b22#rankms=66_rankdc=42_reps=2_srate=0.9_class=H	5	4	2016-04-15	2016-09-11	DC    	20	15	Y	14	-1	-1	18	-1	-1	2	2	24	15	12	1	-1	-1
2b22	2267	0	4,8,0,0,0	2b22#rankms=66_rankdc=42_reps=2_srate=0.9_class=H	5	5	2016-04-15	2016-09-11	DC    	20	10	U	6	-1	-1	0	-1	-1	2	2	24	19	10	1	-1	-1
2b24	2268	0	4,8,1,4,3	2b24#rankms=71_rankdc=29_reps=2_srate=0.9_class=H	2	2	2016-04-15	2016-09-11	MS    	25	13	U	-1	11	11	2	-1	-1	2	2	24	2	27	4	-1	-1
2b24	2269	0	4,8,1,4,3	2b24#rankms=71_rankdc=29_reps=2_srate=0.9_class=H	3	3	2016-04-15	2016-09-11	MS    	25	9	U	-1	15	15	14	-1	-1	2	2	24	5	11	4	-1	-1
2b24	2270	0	4,8,1,4,3	2b24#rankms=71_rankdc=29_reps=2_srate=0.9_class=H	5	5	2016-04-15	2016-09-11	DC    	20	10	Y	10	-1	-1	7	-1	-1	2	2	24	9	23	1	-1	-1
2b24	2271	0	4,8,1,4,3	2b24#rankms=71_rankdc=29_reps=2_srate=0.9_class=H	5	4	2016-04-15	2016-09-11	DC    	20	8	Y	13	-1	-1	13	-1	-1	2	2	24	13	8	1	-1	-1
2b25	2272	0	28,8,2,4,2	2b25~rankms=22_rankdc=24_reps=2_srate=0.7_class=H	4	4	2016-04-15	2016-09-11	MS    	25	12	Y	-1	18	18	30	-1	-1	2	2	24	2	13	4	-1	-1
2b25	2273	0	28,8,2,4,2	2b25~rankms=22_rankdc=24_reps=2_srate=0.7_class=H	5	4	2016-04-15	2016-09-11	DC    	20	11	Y	18	-1	-1	18	-1	-1	2	2	24	19	1	1	-1	-1
2b25	2274	0	28,8,2,4,2	2b25~rankms=22_rankdc=24_reps=2_srate=0.7_class=H	5	3	2016-04-15	2016-09-11	DC    	20	11	U	11	-1	-1	5	-1	-1	2	2	24	19	5	1	-1	-1
2b29	2275	0	28,8,2,2,7	2b29#rankms=47_rankdc=71_reps=3_srate=0.6_class=H	4	4	2016-04-15	2016-09-11	MS    	25	12	U	-1	15	15	17	-1	-1	2	2	24	3	1	4	-1	-1
2b29	2276	small dia cuttings	28,8,2,2,7	2b29#rankms=47_rankdc=71_reps=3_srate=0.6_class=H	5	2	2016-04-15	2016-09-11	DC    	20	6	U	13	-1	-1	4	-1	-1	2	2	24	9	1	1	-1	-1
2b29	2277	FW?	28,8,2,2,7	2b29#rankms=47_rankdc=71_reps=3_srate=0.6_class=H	5	4	2016-04-15	2016-09-11	DC    	20	13	U	8	-1	-1	5	-1	-1	2	2	24	12	12	1	-1	-1
2b29	2278	0	28,8,2,2,7	2b29#rankms=47_rankdc=71_reps=3_srate=0.6_class=H	5	3	2016-04-15	2016-09-11	DC    	20	13	U	8	-1	-1	7	-1	-1	2	2	24	18	5	1	-1	-1
2b3	2279	0	14,8,2,6,5	2b3~rankms=34_rankdc=19_reps=5_srate=0.9_class=H	1	1	2016-04-15	2016-09-11	MS    	25	12	U	-1	13	13	5	-1	-1	2	2	24	2	26	4	-1	-1
2b3	2280	0	14,8,2,6,5	2b3~rankms=34_rankdc=19_reps=5_srate=0.9_class=H	4	4	2016-04-15	2016-09-11	MS    	25	12	Y	-1	18	18	25	-1	-1	2	2	24	5	8	4	-1	-1
2b3	2281	0	14,8,2,6,5	2b3~rankms=34_rankdc=19_reps=5_srate=0.9_class=H	5	5	2016-04-15	2016-09-11	DC    	20	11	U	10	-1	-1	7	-1	-1	2	2	24	9	24	1	-1	-1
2b3	2282	0	14,8,2,6,5	2b3~rankms=34_rankdc=19_reps=5_srate=0.9_class=H	5	5	2016-04-15	2016-09-11	DC    	20	12	U	7	-1	-1	4	-1	-1	2	2	24	16	6	1	-1	-1
2b3	2283	0	14,8,2,6,5	2b3~rankms=34_rankdc=19_reps=5_srate=0.9_class=H	5	5	2016-04-15	2016-09-11	DC    	20	12	U	10	-1	-1	7	-1	-1	2	2	24	17	8	1	-1	-1
2b3	2284	0	14,8,2,6,5	2b3~rankms=34_rankdc=19_reps=5_srate=0.9_class=H	5	5	2016-04-15	2016-09-11	DC    	20	8	U	8	-1	-1	6	-1	-1	2	2	24	19	17	1	-1	-1
2b3	2285	0	14,8,2,6,5	2b3~rankms=34_rankdc=19_reps=5_srate=0.9_class=H	5	4	2016-04-15	2016-09-11	DC    	20	11	Y	15	-1	-1	16	-1	-1	2	2	24	19	19	1	-1	-1
2b4	2286	nice	14,8,2,5,2	2b4#rankms=50_rankdc=31_reps=3_srate=0.8_class=H	4	4	2016-04-15	2016-09-11	MS    	25	13	U	-1	14	14	25	-1	-1	2	2	24	1	29	4	-1	-1
2b4	2287	0	14,8,2,5,2	2b4#rankms=50_rankdc=31_reps=3_srate=0.8_class=H	5	5	2016-04-15	2016-09-11	DC    	20	13	Y	14	-1	-1	19	-1	-1	2	2	24	18	4	1	-1	-1
2b4	2288	Was mislabeled as 2b24	14,8,2,5,2	2b4#rankms=50_rankdc=31_reps=3_srate=0.8_class=H	5	3	2016-04-15	2016-09-11	DC    	20	12	U	12	-1	-1	9	-1	-1	2	2	24	19	6	1	-1	-1
2b4	2289	0	14,8,2,5,2	2b4#rankms=50_rankdc=31_reps=3_srate=0.8_class=H	5	4	2016-04-15	2016-09-11	DC    	20	11	U	6	-1	-1	5	-1	-1	2	2	24	19	15	1	-1	-1
2b50	2290	0	0	0	2	2	2016-04-15	2016-09-11	MS    	25	12	U	-1	15	15	6	-1	-1	2	2	24	5	26	4	-1	-1
2b50	2291	0	0	0	5	4	2016-04-15	2016-09-11	DC    	20	12	U	6	-1	-1	4	-1	-1	2	2	24	11	21	1	-1	-1
2b52	2292	nice	14,8,2,3,0	2b52~rankms=20_rankdc=15_reps=2_srate=1.0_class=H	3	3	2016-04-15	2016-09-11	MS    	25	12	Y	-1	19	19	22	-1	-1	2	2	24	3	21	4	-1	-1
2b52	2293	0	14,8,2,3,0	2b52~rankms=20_rankdc=15_reps=2_srate=1.0_class=H	5	5	2016-04-15	2016-09-11	DC    	20	12	Y	14	-1	-1	18	-1	-1	2	2	24	16	13	1	-1	-1
2b52	2294	0	14,8,2,3,0	2b52~rankms=20_rankdc=15_reps=2_srate=1.0_class=H	5	5	2016-04-15	2016-09-11	DC    	20	9	U	10	-1	-1	5	-1	-1	2	2	24	17	15	1	-1	-1
2b55	2295	0	0	2b55~rankms=36_rankdc=20_reps=2_srate=1.0_class=H	2	2	2016-04-15	2016-09-11	MS    	25	15	U	-1	17	17	12	-1	-1	2	2	24	5	19	4	-1	-1
2b55	2296	0	0	2b55~rankms=36_rankdc=20_reps=2_srate=1.0_class=H	5	5	2016-04-15	2016-09-11	DC    	20	12	U	9	-1	-1	8	-1	-1	2	2	24	7	10	1	-1	-1
2b55	2297	nice	0	2b55~rankms=36_rankdc=20_reps=2_srate=1.0_class=H	5	5	2016-04-15	2016-09-11	DC    	20	12	Y	14	-1	-1	9	-1	-1	2	2	24	9	19	1	-1	-1
2b6	2298	nice	14,8,2,12,8	2b6~rankms=52_rankdc=13_reps=6_srate=0.9_class=H	4	4	2016-04-15	2016-09-11	MS    	25	11	Y	-1	15	15	27	-1	-1	2	2	24	4	19	4	-1	-1
2b6	2299	0	14,8,2,12,8	2b6~rankms=52_rankdc=13_reps=6_srate=0.9_class=H	3	3	2016-04-15	2016-09-11	MS    	25	12	U	-1	11	11	6	-1	-1	2	2	24	4	27	4	-1	-1
2b6	2300	0	14,8,2,12,8	2b6~rankms=52_rankdc=13_reps=6_srate=0.9_class=H	5	4	2016-04-15	2016-09-11	DC    	20	11	U	11	-1	-1	6	-1	-1	2	2	24	8	23	1	-1	-1
2b6	2301	0	14,8,2,12,8	2b6~rankms=52_rankdc=13_reps=6_srate=0.9_class=H	5	5	2016-04-15	2016-09-11	DC    	20	11	Y	12	-1	-1	19	-1	-1	2	2	24	15	10	1	-1	-1
2b6	2302	0	14,8,2,12,8	2b6~rankms=52_rankdc=13_reps=6_srate=0.9_class=H	5	3	2016-04-15	2016-09-11	DC    	20	13	U	6	-1	-1	1	-1	-1	2	2	24	16	9	1	-1	-1
2b6	2303	0	14,8,2,12,8	2b6~rankms=52_rankdc=13_reps=6_srate=0.9_class=H	5	5	2016-04-15	2016-09-11	DC    	20	10	U	10	-1	-1	8	-1	-1	2	2	24	20	1	1	-1	-1
2b6	2304	0	14,8,2,12,8	2b6~rankms=52_rankdc=13_reps=6_srate=0.9_class=H	5	5	2016-04-15	2016-09-11	DC    	20	9	U	11	-1	-1	15	-1	-1	2	2	24	20	2	1	-1	-1
2b6	2305	0	14,8,2,12,8	2b6~rankms=52_rankdc=13_reps=6_srate=0.9_class=H	5	5	2016-04-15	2016-09-11	DC    	20	7	U	10	-1	-1	4	-1	-1	2	2	24	21	1	1	-1	-1
2b62	2306	nice	0	2b62#rankms=12_rankdc=35_reps=2_srate=0.8_class=H	4	4	2016-04-15	2016-09-11	MS    	25	13	Y	-1	20	20	24	-1	-1	2	2	24	2	19	4	-1	-1
2b62	2307	0	0	2b62#rankms=12_rankdc=35_reps=2_srate=0.8_class=H	5	4	2016-04-15	2016-09-11	DC    	20	12	U	7	-1	-1	0	-1	-1	2	2	24	18	3	1	-1	-1
2b62	2308	very tall - 12 foot 4 inches	0	2b62#rankms=12_rankdc=35_reps=2_srate=0.8_class=H	5	4	2016-04-15	2016-09-11	DC    	20	12	Y	17	-1	-1	17	-1	-1	2	2	24	19	4	1	-1	-1
2b63	2309	Nice - edge biased - Great stool but poor rooter	4,8,1,2,0	2b63#rankms=1_rankdc=92_reps=2_srate=0.5_class=H	3	3	2016-04-15	2016-09-11	MS    	25	12	Y	-1	27	27	28	-1	-1	2	2	24	5	36	4	-1	-1
2b63	2310	0	4,8,1,2,0	2b63#rankms=1_rankdc=92_reps=2_srate=0.5_class=H	5	3	2016-04-15	2016-09-11	DC    	20	12	U	5	-1	-1	6	-1	-1	2	2	24	13	3	1	-1	-1
2b63	2311	0	4,8,1,2,0	2b63#rankms=1_rankdc=92_reps=2_srate=0.5_class=H	5	2	2016-04-15	2016-09-11	DC    	20	12	U	10	-1	-1	1	-1	-1	2	2	24	14	15	1	-1	-1
2b64	2312	0	0	0	3	3	2016-04-15	2016-09-11	MS    	25	13	U	-1	13	13	8	-1	-1	2	2	24	2	20	4	-1	-1
2b64	2313	0	0	0	5	5	2016-04-15	2016-09-11	DC    	20	13	U	5	-1	-1	0	-1	-1	2	2	24	12	11	1	-1	-1
2b66	2314	0	0,0,1,0,0	2b66#rankms=113_rankdc=38_reps=1_srate=1.0_class=H	1	1	2016-04-15	2016-09-11	MS    	25	16	U	-1	10	10	0	-1	-1	2	2	24	3	5	4	-1	-1
2b66	2315	0	0,0,1,0,0	2b66#rankms=113_rankdc=38_reps=1_srate=1.0_class=H	5	5	2016-04-15	2016-09-11	DC    	20	13	U	10	-1	-1	6	-1	-1	2	2	24	11	1	1	-1	-1
2b67	2316	0	0	0	2	2	2016-04-15	2016-09-11	MS    	25	13	U	-1	17	17	13	-1	-1	2	2	24	5	30	4	-1	-1
2b67	2317	0	4,0,1,0,0	2b67#rankms=35_rankdc=74_reps=2_srate=0.6_class=H	5	2	2016-04-15	2016-09-11	DC    	20	12	U	14	-1	-1	5	-1	-1	2	2	24	10	20	1	-1	-1
2b67	2318	0	4,0,1,0,0	2b67#rankms=35_rankdc=74_reps=2_srate=0.6_class=H	5	4	2016-04-15	2016-09-11	DC    	20	12	U	8	-1	-1	2	-1	-1	2	2	24	13	2	1	-1	-1
2b68	2319	0	4,8,1,5,0	2b68#rankms=67_rankdc=34_reps=2_srate=0.9_class=H	3	3	2016-04-15	2016-09-11	MS    	25	13	U	-1	14	14	10	-1	-1	2	2	24	5	1	4	-1	-1
2b68	2320	0	4,8,1,5,0	2b68#rankms=67_rankdc=34_reps=2_srate=0.9_class=H	5	5	2016-04-15	2016-09-11	DC    	20	12	Y	10	-1	-1	5	-1	-1	2	2	24	16	7	1	-1	-1
2b68	2321	0	4,8,1,5,0	2b68#rankms=67_rankdc=34_reps=2_srate=0.9_class=H	5	4	2016-04-15	2016-09-11	DC    	20	12	U	12	-1	-1	11	-1	-1	2	2	24	17	10	1	-1	-1
2b7	2322	Small dia = slower?	4,4,1,2,0	2b7#rankms=110_rankdc=25_reps=2_srate=1.0_class=H	3	3	2016-04-15	2016-09-11	MS    	25	12	U	-1	10	10	3	-1	-1	2	2	24	2	18	4	-1	-1
2b7	2323	0	4,4,1,2,0	2b7#rankms=110_rankdc=25_reps=2_srate=1.0_class=H	5	5	2016-04-15	2016-09-11	DC    	20	10	U	8	-1	-1	5	-1	-1	2	2	24	13	11	1	-1	-1
2b7	2324	nice	4,4,1,2,0	2b7#rankms=110_rankdc=25_reps=2_srate=1.0_class=H	5	5	2016-04-15	2016-09-11	DC    	20	10	Y	13	-1	-1	17	-1	-1	2	2	24	14	10	1	-1	-1
2b71	2325	0	14,4,2,4,4	2b71~rankms=63_rankdc=12_reps=2_srate=0.9_class=H	3	3	2016-04-15	2016-09-11	MS    	25	13	U	-1	14	14	13	-1	-1	2	2	24	2	14	4	-1	-1
2b71	2326	0	14,4,2,4,4	2b71~rankms=63_rankdc=12_reps=2_srate=0.9_class=H	5	5	2016-04-15	2016-09-11	DC    	20	13	U	13	-1	-1	11	-1	-1	2	2	24	13	9	1	-1	-1
2b71	2327	0	14,4,2,4,4	2b71~rankms=63_rankdc=12_reps=2_srate=0.9_class=H	5	4	2016-04-15	2016-09-11	DC    	20	12	Y	15	-1	-1	10	-1	-1	2	2	24	13	19	1	-1	-1
2b80	2328	??? - Unknown clone. very similar to 2b71.  Will name it 2b80. 	4,8,1,2,0	2b80#rankms=28_rankdc=-1reps=1_srate=1.0_class=H	4	4	2016-04-15	2016-09-11	MS    	25	12	Y	-1	17	17	23	-1	-1	2	2	24	2	5	4	-1	-1
2rr11	2329	0	0	0	2	1	2016-04-15	2016-09-11	MS    	25	10	U	-1	5	5	0	-1	-1	2	2	24	3	11	4	-1	-1
2rr11	2330	0	0	0	5	3	2016-04-15	2016-09-11	DC    	20	9	U	7	-1	-1	0	-1	-1	2	2	24	16	1	1	-1	-1
2rr14	2331	weak	0	0	2	2	2016-04-15	2016-09-11	MS    	25	10	U	-1	8	8	0	-1	-1	2	2	24	3	25	4	-1	-1
2rr14	2332	0	0	0	5	3	2016-04-15	2016-09-11	DC    	20	9	U	5	-1	-1	0	-1	-1	2	2	24	17	13	1	-1	-1
2xarw	2333	Bell Lights - seedling	0	0	2	2	2016-04-15	2016-09-11	SEL   	15	2	U	4	-1	-1	0	-1	-1	2	2	24	24	2	6	-1	-1
3aa202	2334	0	2,0,0,0,0	3aa202@rankms=189_rankdc=96_reps=1_srate=0.6_class=A	1	0	2016-04-15	2016-09-11	MS    	25	10	U	-1	0	0	0	-1	-1	2	2	24	2	29	4	-1	-1
3aa202	2335	0	2,0,0,0,0	3aa202@rankms=189_rankdc=96_reps=1_srate=0.6_class=A	5	3	2016-04-15	2016-09-11	DC    	20	7	U	6	-1	-1	0	-1	-1	2	2	24	14	9	1	-1	-1
3bc1	2336	Renamed from 3cagc1 to 3bc1	14,4,2,0,1	3bc1~rankms=45_rankdc=18_reps=2_srate=1.0_class=H	2	2	2016-04-15	2016-09-11	MS    	25	9	U	-1	16	16	9	-1	-1	2	2	24	6	24	4	-1	-1
3bc1	2337	Renamed from 3cagc1 to 3bc1	14,4,2,0,1	3bc1~rankms=45_rankdc=18_reps=2_srate=1.0_class=H	5	5	2016-04-15	2016-09-11	DC    	20	13	Y	13	-1	-1	17	-1	-1	2	2	24	15	19	1	-1	-1
3bc1	2338	Renamed from 3cagc1 to 3bc1	14,4,2,0,1	3bc1~rankms=45_rankdc=18_reps=2_srate=1.0_class=H	5	5	2016-04-15	2016-09-11	DC    	20	12	U	10	-1	-1	4	-1	-1	2	2	24	16	17	1	-1	-1
3bc3	2339	Renamed from 3cagc3 to 3bc3	14,0,2,4,0	3bc3~rankms=74_rankdc=24_reps=2_srate=1.0_class=H	3	3	2016-04-15	2016-09-11	MS    	25	13	U	-1	13	13	13	-1	-1	2	2	24	6	15	4	-1	-1
3bc3	2340	Renamed from 3cagc3 to 3bc3	14,0,2,4,0	3bc3~rankms=74_rankdc=24_reps=2_srate=1.0_class=H	5	5	2016-04-15	2016-09-11	DC    	20	12	U	9	-1	-1	9	-1	-1	2	2	24	17	17	1	-1	-1
3bc3	2341	Renamed from 3cagc3 to 3bc3	14,0,2,4,0	3bc3~rankms=74_rankdc=24_reps=2_srate=1.0_class=H	5	5	2016-04-15	2016-09-11	DC    	20	12	Y	12	-1	-1	14	-1	-1	2	2	24	17	20	1	-1	-1
3bc4	2342	Renamed from 3cagc4 to 3bc4	4,4,1,2,4	3bc4#rankms=39_rankdc=43_reps=2_srate=0.9_class=H	2	2	2016-04-15	2016-09-11	MS    	25	13	U	-1	17	17	8	-1	-1	2	2	24	6	11	4	-1	-1
3bc4	2343	Renamed from 3cagc4 to 3bc4	4,4,1,2,4	3bc4#rankms=39_rankdc=43_reps=2_srate=0.9_class=H	5	4	2016-04-15	2016-09-11	DC    	20	12	U	9	-1	-1	5	-1	-1	2	2	24	16	20	1	-1	-1
3bc4	2344	Renamed from 3cagc4 to 3bc4	4,4,1,2,4	3bc4#rankms=39_rankdc=43_reps=2_srate=0.9_class=H	5	5	2016-04-15	2016-09-11	DC    	20	12	Y	10	-1	-1	12	-1	-1	2	2	24	17	21	1	-1	-1
3bc5	2345	Renamed from 3cagc5 to 3bc5	4,4,1,3,5	3bc5#rankms=90_rankdc=26_reps=2_srate=1.0_class=H	3	3	2016-04-15	2016-09-11	MS    	25	14	U	-1	12	12	6	-1	-1	2	2	24	6	14	4	-1	-1
3bc5	2346	Renamed from 3cagc5 to 3bc5.  Stems have pronounced leaf flanges.	4,4,1,3,5	3bc5#rankms=90_rankdc=26_reps=2_srate=1.0_class=H	5	5	2016-04-15	2016-09-11	DC    	20	12	Y	12	-1	-1	16	-1	-1	2	2	24	11	20	1	-1	-1
3bc5	2347	Renamed from 3cagc5 to 3bc5	4,4,1,3,5	3bc5#rankms=90_rankdc=26_reps=2_srate=1.0_class=H	5	5	2016-04-15	2016-09-11	DC    	20	12	Y	9	-1	-1	5	-1	-1	2	2	24	15	16	1	-1	-1
4ab4	2348	Renamed from 4acag4 to 4ab4	14,8,2,9,0	4ab4~rankms=23_rankdc=14_reps=2_srate=1.0_class=AH	3	3	2016-04-15	2016-09-11	MS    	25	11	Y	-1	18	18	24	-1	-1	2	2	24	5	32	4	-1	-1
4ab4	2349	Renamed from 4acag4 to 4ab4	14,8,2,9,0	4ab4~rankms=23_rankdc=14_reps=2_srate=1.0_class=AH	5	5	2016-04-15	2016-09-11	DC    	20	10	Y	11	-1	-1	20	-1	-1	2	2	24	10	23	1	-1	-1
4ab4	2350	Renamed from 4acag4 to 4ab4	14,8,2,9,0	4ab4~rankms=23_rankdc=14_reps=2_srate=1.0_class=AH	5	5	2016-04-15	2016-09-11	DC    	20	11	Y	11	-1	-1	14	-1	-1	2	2	24	13	1	1	-1	-1
4acag7	2351	0	0	0	2	2	2016-04-15	2016-09-11	MS    	25	11	Y	-1	17	17	12	-1	-1	2	2	24	5	35	4	-1	-1
4acag7	2352	0	0	0	5	5	2016-04-15	2016-09-11	DC    	20	10	U	6	-1	-1	4	-1	-1	2	2	24	11	22	1	-1	-1
4acag7	2353	0	0	0	5	5	2016-04-15	2016-09-11	DC    	20	9	U	7	-1	-1	2	-1	-1	2	2	24	12	2	1	-1	-1
4ab9	2354	Renamed from 4acag9 to 4ab9	4,8,1,4,3	4ab9#rankms=36_rankdc=54_reps=2_srate=0.9_class=AH	3	3	2016-04-15	2016-09-11	MS    	25	12	Y	-1	16	16	22	-1	-1	2	2	24	6	16	4	-1	-1
4ab9	2355	Renamed from 4acag9 to 4ab9	4,8,1,4,3	4ab9#rankms=36_rankdc=54_reps=2_srate=0.9_class=AH	5	5	2016-04-15	2016-09-11	DC    	20	13	U	9	-1	-1	8	-1	-1	2	2	24	14	16	1	-1	-1
4ab9	2356	Renamed from 4acag9 to 4ab9	4,8,1,4,3	4ab9#rankms=36_rankdc=54_reps=2_srate=0.9_class=AH	5	4	2016-04-15	2016-09-11	DC    	20	11	U	7	-1	-1	7	-1	-1	2	2	24	17	19	1	-1	-1
4gw11	2357	0	4,0,1,0,0	4gw11#rankms=14_rankdc=114_reps=1_srate=0.2_class=H	2	2	2016-04-15	2016-09-11	MS    	25	9	Y	-1	21	21	12	-1	-1	2	2	24	1	9	4	-1	-1
4gw11	2358	0	4,0,1,0,0	4gw11#rankms=14_rankdc=114_reps=1_srate=0.2_class=H	5	1	2016-04-15	2016-09-11	DC    	20	12	U	7	-1	-1	0	-1	-1	2	2	24	10	16	1	-1	-1
4gw13	2359	0	0	0	2	2	2016-04-15	2016-09-11	MS    	25	11	U	-1	16	16	6	-1	-1	2	2	24	1	27	4	-1	-1
4gw13	2360	0	0	0	5	3	2016-04-15	2016-09-11	DC    	20	10	U	11	-1	-1	3	-1	-1	2	2	24	11	17	1	-1	-1
5br3	2361	Renamed from 5cagr3 to 5br3	14,8,2,4,0	5br3~rankms=35_rankdc=40_reps=2_srate=1.0_class=H	3	3	2016-04-15	2016-09-11	MS    	25	12	Y	-1	17	17	13	-1	-1	2	2	24	4	29	4	-1	-1
5br3	2362	Renamed from 5cagr3 to 5br3	14,8,2,4,0	5br3~rankms=35_rankdc=40_reps=2_srate=1.0_class=H	5	5	2016-04-15	2016-09-11	DC    	20	12	U	9	-1	-1	5	-1	-1	2	2	24	16	5	1	-1	-1
5br3	2363	Renamed from 5cagr3 to 5br3	14,8,2,4,0	5br3~rankms=35_rankdc=40_reps=2_srate=1.0_class=H	5	5	2016-04-15	2016-09-11	DC    	20	12	U	10	-1	-1	5	-1	-1	2	2	24	16	8	1	-1	-1
6ba2	2364	0	4,4,1,2,0	6ba2#rankms=101_rankdc=37_reps=1_srate=1.0_class=AH	2	2	2016-04-15	2016-09-11	MS    	25	13	U	-1	11	11	4	-1	-1	2	2	24	1	17	4	-1	-1
6ba2	2365	0	4,4,1,2,0	6ba2#rankms=101_rankdc=37_reps=1_srate=1.0_class=AH	5	5	2016-04-15	2016-09-11	DC    	20	12	U	10	-1	-1	7	-1	-1	2	2	24	11	14	1	-1	-1
6xgg	2366	Rakers seedlngs 6/18/16 leaf issues	57,8,0,0,0	6xgg?0_0_0_0_class=N	102	56	2016-04-15	2016-09-11	SEL   	15	2	U	5	-1	-1	0	-1	-1	2	2	24	24	4	6	-1	-1
6xgg	2367	Rakers seedlngs 6/18/16 leaf issues	57,8,0,0,0	6xgg?0_0_0_0_class=N	102	61	2016-04-15	2016-09-11	SEL   	15	2	U	7	-1	-1	0	-1	-1	2	2	24	25	1	6	-1	-1
7bt1	2368	0	14,4,2,3,4	7bt1~rankms=44_rankdc=25_reps=2_srate=0.9_class=ASH	3	3	2016-04-15	2016-09-11	MS    	25	12	U	-1	16	16	12	-1	-1	2	2	24	4	22	4	-1	-1
7bt1	2369	0	14,4,2,3,4	7bt1~rankms=44_rankdc=25_reps=2_srate=0.9_class=ASH	5	4	2016-04-15	2016-09-11	DC    	20	12	Y	15	-1	-1	15	-1	-1	2	2	24	13	21	1	-1	-1
7bt1	2370	0	14,4,2,3,4	7bt1~rankms=44_rankdc=25_reps=2_srate=0.9_class=ASH	5	5	2016-04-15	2016-09-11	DC    	20	11	Y	8	-1	-1	12	-1	-1	2	2	24	15	3	1	-1	-1
7bt10	2371	0	0	0	2	2	2016-04-15	2016-09-11	MS    	25	12	U	-1	14	14	4	-1	-1	2	2	24	2	28	4	-1	-1
7bt10	2372	0	0	0	5	2	2016-04-15	2016-09-11	DC    	20	11	U	15	-1	-1	5	-1	-1	2	2	24	12	20	1	-1	-1
7bt7	2373	0	4,4,1,0,0	7bt7#rankms=31_rankdc=45_reps=1_srate=0.6_class=ASH	2	2	2016-04-15	2016-09-11	MS    	25	14	U	-1	18	18	9	-1	-1	2	2	24	3	4	4	-1	-1
7bt7	2374	0	4,4,1,0,0	7bt7#rankms=31_rankdc=45_reps=1_srate=0.6_class=ASH	5	3	2016-04-15	2016-09-11	DC    	20	12	U	15	-1	-1	11	-1	-1	2	2	24	13	23	1	-1	-1
7bt9	2375	edge biased	0	0	2	2	2016-04-15	2016-09-11	MS    	25	12	U	-1	16	16	8	-1	-1	2	2	24	6	7	4	-1	-1
7bt9	2376	0	0	0	4	4	2016-04-15	2016-09-11	DC    	20	12	U	7	-1	-1	2	-1	-1	2	2	24	10	5	1	-1	-1
7xbt	2377	0	0	7xbt?0_0_0_0_class=ASH	5	2	2016-04-15	2016-09-11	FDC   	20	10	U	12	-1	-1	2	-1	-1	2	2	24	20	11	3	-1	-1
80aa3mf	2379	Curvy	0	80aa3mf@rankms=147_rankdc=82_reps=1_srate=0.8_class=A	2	1	2016-04-15	2016-09-11	MS    	25	11	U	-1	12	12	2	-1	-1	2	2	24	1	6	4	-1	-1
80aa3mf	2380	0	0	80aa3mf@rankms=147_rankdc=82_reps=1_srate=0.8_class=A	5	4	2016-04-15	2016-09-11	DC    	20	9	U	7	-1	-1	0	-1	-1	2	2	24	10	17	1	-1	-1
83aa66	2381	0	0	0	1	1	2016-04-15	2016-09-11	MS    	25	12	U	-1	12	12	3	-1	-1	2	2	24	2	2	4	-1	-1
83aa66	2382	Best AA clone at FBIC	0	0	5	3	2016-04-15	2016-09-11	DC    	20	9	U	7	-1	-1	7	-1	-1	2	2	24	12	1	1	-1	-1
83aa70	2383	0	4,4,1,0,0	83aa70#rankms=42_rankdc=70_reps=1_srate=0.8_class=A	1	1	2016-04-15	2016-09-11	MS    	25	15	U	-1	17	17	5	-1	-1	2	2	24	2	3	4	-1	-1
83aa70	2384	0	4,4,1,0,0	83aa70#rankms=42_rankdc=70_reps=1_srate=0.8_class=A	5	4	2016-04-15	2016-09-11	DC    	20	15	U	8	-1	-1	7	-1	-1	2	2	24	11	18	1	-1	-1
83aa74	2385	0	0	0	1	1	2016-04-15	2016-09-11	MS    	25	17	U	-1	17	17	5	-1	-1	2	2	24	2	4	4	-1	-1
83aa74	2386	0	0	0	5	1	2016-04-15	2016-09-11	DC    	20	11	U	7	-1	-1	0	-1	-1	2	2	24	10	18	1	-1	-1
89aa1	2387	0	0	89aa1#rankms=83_rankdc=84_reps=1_srate=0.4_class=A	1	1	2016-04-15	2016-09-11	MS    	25	13	U	-1	13	13	4	-1	-1	2	2	24	3	10	4	-1	-1
89aa1	2388	0	0	89aa1#rankms=83_rankdc=84_reps=1_srate=0.4_class=A	5	2	2016-04-15	2016-09-11	DC    	20	10	U	12	-1	-1	4	-1	-1	2	2	24	8	26	1	-1	-1
8bg10	2389	0	0	0	2	2	2016-04-15	2016-09-11	MS    	25	13	U	-1	13	13	5	-1	-1	2	2	24	2	22	4	-1	-1
8bg10	2390	0	0	0	5	1	2016-04-15	2016-09-11	DC    	20	13	U	7	-1	-1	0	-1	-1	2	2	24	9	22	1	-1	-1
8bg10	2391	0	0	0	4	2	2016-04-15	2016-09-11	DC    	20	12	U	5	-1	-1	0	-1	-1	2	2	24	9	26	1	-1	-1
8bg2	2392	0	14,4,2,0,0	8bg2~rankms=155_rankdc=60_reps=2_srate=0.9_class=ASH	2	2	2016-04-15	2016-09-11	MS    	25	13	U	-1	6	6	0	-1	-1	2	2	24	3	6	4	-1	-1
8bg2	2393	0	14,4,2,0,0	8bg2~rankms=155_rankdc=60_reps=2_srate=0.9_class=ASH	5	5	2016-04-15	2016-09-11	DC    	20	10	U	9	-1	-1	9	-1	-1	2	2	24	8	25	1	-1	-1
8bg2	2394	0	14,4,2,0,0	8bg2~rankms=155_rankdc=60_reps=2_srate=0.9_class=ASH	5	4	2016-04-15	2016-09-11	DC    	20	12	U	7	-1	-1	0	-1	-1	2	2	24	14	11	1	-1	-1
8bg20	2395	0	0	0	1	1	2016-04-15	2016-09-11	MS    	25	15	U	-1	11	11	1	-1	-1	2	2	24	1	26	4	-1	-1
8bg20	2396	0	0	0	5	4	2016-04-15	2016-09-11	DC    	20	14	U	6	-1	-1	0	-1	-1	2	2	24	10	11	1	-1	-1
8bg21	2397	0	0,0,1,0,0	8bg21#rankms=133_rankdc=80_reps=1_srate=0.8_class=ASH	1	1	2016-04-15	2016-09-11	MS    	25	16	U	-1	8	8	0	-1	-1	2	2	24	1	7	4	-1	-1
8bg21	2398	0	0,0,1,0,0	8bg21#rankms=133_rankdc=80_reps=1_srate=0.8_class=ASH	5	4	2016-04-15	2016-09-11	DC    	20	14	U	7	-1	-1	4	-1	-1	2	2	24	10	12	1	-1	-1
8bg3	2399	ok	14,8,2,3,2	8bg3~rankms=42_rankdc=16_reps=2_srate=0.8_class=ASH	3	3	2016-04-15	2016-09-11	MS    	25	12	U	-1	16	16	15	-1	-1	2	2	24	2	23	4	-1	-1
8bg3	2400	0	14,8,2,3,2	8bg3~rankms=42_rankdc=16_reps=2_srate=0.8_class=ASH	5	4	2016-04-15	2016-09-11	DC    	20	12	U	10	-1	-1	5	-1	-1	2	2	24	14	13	1	-1	-1
8bg3	2401	nice - good/big leaves	14,8,2,3,2	8bg3~rankms=42_rankdc=16_reps=2_srate=0.8_class=ASH	5	4	2016-04-15	2016-09-11	DC    	20	11	Y	19	-1	-1	21	-1	-1	2	2	24	15	4	1	-1	-1
8bg4	2402	0	0	0	3	3	2016-04-15	2016-09-11	MS    	25	11	U	-1	6	6	0	-1	-1	2	2	24	2	24	4	-1	-1
8bg4	2403	0	0	0	5	2	2016-04-15	2016-09-11	DC    	20	14	U	10	-1	-1	1	-1	-1	2	2	24	13	6	1	-1	-1
8bg4	2404	0	0	0	5	2	2016-04-15	2016-09-11	DC    	20	13	U	9	-1	-1	0	-1	-1	2	2	24	14	4	1	-1	-1
8bg5	2405	0	0	0	2	2	2016-04-15	2016-09-11	MS    	25	15	Y	-1	20	20	18	-1	-1	2	2	24	4	21	4	-1	-1
8bg5	2406	0	0	0	5	2	2016-04-15	2016-09-11	DC    	20	13	U	7	-1	-1	0	-1	-1	2	2	24	12	21	1	-1	-1
8bg5	2407	0	0	0	5	4	2016-04-15	2016-09-11	DC    	20	14	U	8	-1	-1	4	-1	-1	2	2	24	15	13	1	-1	-1
8bg7	2408	0	0	0	3	3	2016-04-15	2016-09-11	MS    	25	11	U	-1	8	8	4	-1	-1	2	2	24	3	8	4	-1	-1
8bg7	2409	0	0	0	5	3	2016-04-15	2016-09-11	DC    	20	11	U	5	-1	-1	0	-1	-1	2	2	24	8	22	1	-1	-1
8bg7	2410	0	0	0	5	4	2016-04-15	2016-09-11	DC    	20	9	U	6	-1	-1	0	-1	-1	2	2	24	15	9	1	-1	-1
8bg8	2411	0	4,0,1,0,0	8bg8#rankms=60_rankdc=76_reps=2_srate=0.7_class=ASH	2	2	2016-04-15	2016-09-11	MS    	25	13	U	-1	15	15	5	-1	-1	2	2	24	4	25	4	-1	-1
8bg8	2412	0	4,0,1,0,0	8bg8#rankms=60_rankdc=76_reps=2_srate=0.7_class=ASH	5	4	2016-04-15	2016-09-11	DC    	20	14	U	6	-1	-1	0	-1	-1	2	2	24	12	14	1	-1	-1
8bg8	2413	0	4,0,1,0,0	8bg8#rankms=60_rankdc=76_reps=2_srate=0.7_class=ASH	5	3	2016-04-15	2016-09-11	DC    	20	13	U	11	-1	-1	8	-1	-1	2	2	24	13	22	1	-1	-1
8bg9	2414	ok - Has same yield as cuttings	14,8,2,4,0	8bg9~rankms=79_rankdc=50_reps=2_srate=0.7_class=ASH	3	3	2016-04-15	2016-09-11	MS    	25	13	U	-1	12	12	16	-1	-1	2	2	24	2	25	4	-1	-1
8bg9	2415	nice - good leaves	14,8,2,4,0	8bg9~rankms=79_rankdc=50_reps=2_srate=0.7_class=ASH	5	5	2016-04-15	2016-09-11	DC    	20	12	Y	12	-1	-1	16	-1	-1	2	2	24	13	7	1	-1	-1
8bg9	2416	0	14,8,2,4,0	8bg9~rankms=79_rankdc=50_reps=2_srate=0.7_class=ASH	5	2	2016-04-15	2016-09-11	DC    	20	10	U	9	-1	-1	0	-1	-1	2	2	24	13	13	1	-1	-1
8xbg	2417	2=ok	5,0,0,0,0	8xbg?0_0_0_0_class=ASH	5	5	2016-04-15	2016-09-11	FDC   	20	9	U	5	-1	-1	3	-1	-1	2	2	24	20	13	3	-1	-1
8xbg	2418	4=nice	5,0,0,0,0	8xbg?0_0_0_0_class=ASH	6	6	2016-04-15	2016-09-11	FDC   	20	9	U	11	-1	-1	8	-1	-1	2	2	24	21	12	3	-1	-1
92aa11	2419	0	4,8,1,4,0	92aa11#rankms=19_rankdc=6_reps=2_srate=0.8_class=A	3	3	2016-04-15	2016-09-11	MS    	25	13	Y	-1	20	20	15	-1	-1	2	2	24	4	28	4	-1	-1
92aa11	2420	Why is this different than nearby 92aa11	4,8,1,4,0	92aa11#rankms=19_rankdc=6_reps=2_srate=0.8_class=A	5	3	2016-04-15	2016-09-11	DC    	20	12	U	15	-1	-1	15	-1	-1	2	2	24	17	7	1	-1	-1
92aa11	2421	Why is this different than nearby 92aa11	4,8,1,4,0	92aa11#rankms=19_rankdc=6_reps=2_srate=0.8_class=A	5	5	2016-04-15	2016-09-11	DC    	20	12	Y	15	-1	-1	25	-1	-1	2	2	24	17	9	1	-1	-1
93aa11	2422	0	4,0,2,0,4	93aa11#rankms=74_rankdc=66_reps=3_srate=1.0_class=A	3	3	2016-04-15	2016-09-11	MS    	25	11	U	-1	13	13	13	-1	-1	2	2	24	2	8	4	-1	-1
93aa11	2423	0	4,0,2,0,4	93aa11#rankms=74_rankdc=66_reps=3_srate=1.0_class=A	5	5	2016-04-15	2016-09-11	DC    	20	8	U	8	-1	-1	2	-1	-1	2	2	24	12	8	1	-1	-1
93aa11	2424	0	4,0,2,0,4	93aa11#rankms=74_rankdc=66_reps=3_srate=1.0_class=A	5	5	2016-04-15	2016-09-11	DC    	20	9	U	8	-1	-1	5	-1	-1	2	2	24	12	18	1	-1	-1
93aa11	2425	0	4,0,2,0,4	93aa11#rankms=74_rankdc=66_reps=3_srate=1.0_class=A	5	5	2016-04-15	2016-09-11	DC    	20	6	U	4	-1	-1	0	-1	-1	2	2	24	19	18	1	-1	-1
95aa11	2426	0	0	0	3	3	2016-04-15	2016-09-11	MS    	25	11	U	-1	6	6	2	-1	-1	2	2	24	3	3	4	-1	-1
95aa11	2427	0	0	0	5	5	2016-04-15	2016-09-11	DC    	20	9	U	7	-1	-1	4	-1	-1	2	2	24	8	24	1	-1	-1
97aa11	2428	0	0	0	2	2	2016-04-15	2016-09-11	MS    	25	12	U	-1	13	13	5	-1	-1	2	2	24	2	16	4	-1	-1
97aa11	2429	0	0	0	1	1	2016-04-15	2016-09-11	MS    	25	10	U	-1	17	17	6	-1	-1	2	2	24	5	29	4	-1	-1
97aa11	2430	0	0	0	5	5	2016-04-15	2016-09-11	DC    	20	10	U	9	-1	-1	4	-1	-1	2	2	24	15	15	1	-1	-1
97aa11	2431	0	0	0	5	5	2016-04-15	2016-09-11	DC    	20	8	Y	13	-1	-1	17	-1	-1	2	2	24	19	3	1	-1	-1
97aa12	2432	0	0	0	2	2	2016-04-15	2016-09-11	MS    	25	12	Y	-1	21	21	16	-1	-1	2	2	24	5	27	4	-1	-1
97aa12	2433	0	0	0	5	4	2016-04-15	2016-09-11	DC    	20	10	U	8	-1	-1	7	-1	-1	2	2	24	10	22	1	-1	-1
98aa11	2434	0	4,8,1,2,5	98aa11#rankms=52_rankdc=56_reps=3_srate=0.9_class=A	3	3	2016-04-15	2016-09-11	MS    	25	11	U	-1	11	11	11	-1	-1	2	2	24	2	10	4	-1	-1
98aa11	2435	0	4,8,1,2,5	98aa11#rankms=52_rankdc=56_reps=3_srate=0.9_class=A	2	2	2016-04-15	2016-09-11	MS    	25	13	U	-1	17	17	12	-1	-1	2	2	24	5	34	4	-1	-1
98aa11	2436	0	4,8,1,2,5	98aa11#rankms=52_rankdc=56_reps=3_srate=0.9_class=A	5	4	2016-04-15	2016-09-11	DC    	20	10	U	10	-1	-1	3	-1	-1	2	2	24	12	4	1	-1	-1
98aa11	2437	0	4,8,1,2,5	98aa11#rankms=52_rankdc=56_reps=3_srate=0.9_class=A	5	5	2016-04-15	2016-09-11	DC    	20	8	U	9	-1	-1	2	-1	-1	2	2	24	12	9	1	-1	-1
98aa11	2438	0	4,8,1,2,5	98aa11#rankms=52_rankdc=56_reps=3_srate=0.9_class=A	5	5	2016-04-15	2016-09-11	DC    	20	13	U	7	-1	-1	1	-1	-1	2	2	24	14	19	1	-1	-1
a502	2439	0	10,0,1,0,0	a502@rankms=72_rankdc=93_reps=1_srate=0.4_class=A	3	3	2016-04-15	2016-09-11	MS    	25	9	U	-1	14	14	5	-1	-1	2	2	24	2	17	4	-1	-1
a502	2440	0	10,0,1,0,0	a502@rankms=72_rankdc=93_reps=1_srate=0.4_class=A	5	2	2016-04-15	2016-09-11	DC    	20	8	U	10	-1	-1	1	-1	-1	2	2	24	19	2	1	-1	-1
aa4102	2441	0	12,0,2,0,0	aa4102@rankms=128_rankdc=108_reps=1_srate=0.4_class=A	3	3	2016-04-15	2016-09-11	MS    	25	9	U	-1	8	8	5	-1	-1	2	2	24	1	2	4	-1	-1
aa4102	2442	0	12,0,2,0,0	aa4102@rankms=128_rankdc=108_reps=1_srate=0.4_class=A	5	2	2016-04-15	2016-09-11	DC    	20	8	U	5	-1	-1	0	-1	-1	2	2	24	10	7	1	-1	-1
aag2001	2443	Planting started on 4/15/16. Measuring started on 9/11/16.	4,0,2,0,0	aag2001#0_0_0_0_class=AH	3	2	2016-04-15	2016-09-11	MS    	25	8	U	-1	15	15	6	-1	-1	2	2	24	1	1	4	-1	-1
aesg3	2444	edge biased	0	0	3	3	2016-04-15	2016-09-11	MS    	25	10	U	-1	14	14	11	-1	-1	2	2	24	6	2	4	-1	-1
aesg3	2445	0	0	0	5	1	2016-04-15	2016-09-11	DC    	20	8	U	6	-1	-1	0	-1	-1	2	2	24	19	8	1	-1	-1
aesg3	2446	0	0	0	5	2	2016-04-15	2016-09-11	DC    	20	8	U	6	-1	-1	0	-1	-1	2	2	24	19	9	1	-1	-1
agrr1	2447	double stemmed	12,0,0,0,0	agrr1@rankms=155_rankdc=79_reps=1_srate=0.8_class=H	1	1	2016-04-15	2016-09-11	MS    	25	18	U	-1	6	6	0	-1	-1	2	2	24	4	24	4	-1	-1
agrr1	2448	was row 12 (TEMP) 	12,0,0,0,0	agrr1@rankms=155_rankdc=79_reps=1_srate=0.8_class=H	5	4	2016-04-15	2016-09-11	DC    	20	12	U	7	-1	-1	5	-1	-1	2	2	24	15	1	1	-1	-1
c173	2449	0	30,4,0,0,7	c173@rankms=102_rankdc=79_reps=2_srate=0.9_class=H	3	2	2016-04-15	2016-09-11	MS    	25	12	U	-1	15	15	10	-1	-1	2	2	24	1	36	4	-1	-1
c173	2450	0	30,4,0,0,7	c173@rankms=102_rankdc=79_reps=2_srate=0.9_class=H	5	5	2016-04-15	2016-09-11	DC    	20	11	U	5	-1	-1	0	-1	-1	2	2	24	18	16	1	-1	-1
c173	2451	0	30,4,0,0,7	c173@rankms=102_rankdc=79_reps=2_srate=0.9_class=H	5	4	2016-04-15	2016-09-11	DC    	20	9	U	9	-1	-1	0	-1	-1	2	2	24	19	12	1	-1	-1
cag204	2452	0	26,0,0,0,0	cag204@rankms=129_rankdc=91_reps=4_srate=0.7_class=H	3	3	2016-04-15	2016-09-11	MS    	25	9	Y	-1	8	8	4	-1	-1	2	2	24	1	30	4	-1	-1
cag204	2453	0	26,0,0,0,0	cag204@rankms=129_rankdc=91_reps=4_srate=0.7_class=H	5	4	2016-04-15	2016-09-11	DC    	20	12	U	6	-1	-1	0	-1	-1	2	2	24	16	22	1	-1	-1
cag204	2454	0	26,0,0,0,0	cag204@rankms=129_rankdc=91_reps=4_srate=0.7_class=H	5	5	2016-04-15	2016-09-11	DC    	20	12	U	7	-1	-1	0	-1	-1	2	2	24	17	22	1	-1	-1
cag204	2455	poor	26,0,0,0,0	cag204@rankms=129_rankdc=91_reps=4_srate=0.7_class=H	5	4	2016-04-15	2016-09-11	DC    	20	8	U	5	-1	-1	0	-1	-1	2	2	24	18	7	1	-1	-1
cag204	2456	0	26,0,0,0,0	cag204@rankms=129_rankdc=91_reps=4_srate=0.7_class=H	5	2	2016-04-15	2016-09-11	DC    	20	5	U	5	-1	-1	0	-1	-1	2	2	24	18	12	1	-1	-1
dn34	2457	0	70,16,6,4,16	dn34~rankms=5_rankdc=11_reps=7_srate=0.9_class=C	8	8	2016-04-15	2016-09-11	MS    	25	9	Y	-1	20	20	45	-1	-1	2	2	24	2	1	4	-1	-1
dn34	2458	0	70,16,6,4,16	dn34~rankms=5_rankdc=11_reps=7_srate=0.9_class=C	5	5	2016-04-15	2016-09-11	DC    	20	8	U	6	-1	-1	1	-1	-1	2	2	24	12	13	1	-1	-1
dn34	2459	0	70,16,6,4,16	dn34~rankms=5_rankdc=11_reps=7_srate=0.9_class=C	5	5	2016-04-15	2016-09-11	DC    	20	9	U	8	-1	-1	2	-1	-1	2	2	24	13	12	1	-1	-1
dn34	2460	0	70,16,6,4,16	dn34~rankms=5_rankdc=11_reps=7_srate=0.9_class=C	5	5	2016-04-15	2016-09-11	DC    	20	8	Y	12	-1	-1	17	-1	-1	2	2	24	18	8	1	-1	-1
dn34	2461	0	70,16,6,4,16	dn34~rankms=5_rankdc=11_reps=7_srate=0.9_class=C	5	5	2016-04-15	2016-09-11	DC    	20	8	Y	15	-1	-1	21	-1	-1	2	2	24	18	10	1	-1	-1
dn34	2462	0	70,16,6,4,16	dn34~rankms=5_rankdc=11_reps=7_srate=0.9_class=C	5	4	2016-04-15	2016-09-11	DC    	20	6	U	11	-1	-1	7	-1	-1	2	2	24	18	13	1	-1	-1
dn34	2463	0	70,16,6,4,16	dn34~rankms=5_rankdc=11_reps=7_srate=0.9_class=C	5	5	2016-04-15	2016-09-11	DC    	20	8	U	9	-1	-1	9	-1	-1	2	2	24	19	11	1	-1	-1
dn34	2464	0	70,16,6,4,16	dn34~rankms=5_rankdc=11_reps=7_srate=0.9_class=C	5	5	2016-04-15	2016-09-11	DC    	20	6	U	4	-1	-1	0	-1	-1	2	2	24	19	21	1	-1	-1
gg10	2465	aka e5	0	gg10#0_0_0_0_class=N	2	2	2016-04-15	2016-09-11	1-1   	50	12	U	-1	7	7	0	-1	-1	2	2	24	28	3	7	-1	-1
gg12	2466	Bell Lights - from root sucker	0	gg12#0_0_0_0_class=N	1	1	2016-04-15	2016-09-11	WASP  	15	2	U	11	-1	-1	1	-1	-1	2	2	24	24	1	6	-1	-1
gg12	2467	FW - best 2016 gg growth	0	gg12#0_0_0_0_class=N	6	4	2016-04-15	2016-09-11	1-1   	50	12	Y	-1	9	9	2	-1	-1	2	2	24	28	4	7	-1	-1
gg7	2468	aka e2	0	gg7#0_0_0_0_class=N	3	3	2016-04-15	2016-09-11	1-1   	50	12	U	-1	6	6	0	-1	-1	2	2	24	28	1	7	-1	-1
gg9	2469	aka e3	0	gg9#0_0_0_0_class=N	1	1	2016-04-15	2016-09-11	1-1   	50	12	U	-1	6	6	0	-1	-1	2	2	24	28	2	7	-1	-1
nfa	2470	0	3,0,0,0,0	nfa@rankms=143_rankdc=112_reps=1_srate=0.4_class=A	3	3	2016-04-15	2016-09-11	MS    	25	9	U	-1	7	7	0	-1	-1	2	2	24	5	31	4	-1	-1
nfa	2471	0	3,0,0,0,0	nfa@rankms=143_rankdc=112_reps=1_srate=0.4_class=A	5	2	2016-04-15	2016-09-11	DC    	20	5	U	4	-1	-1	0	-1	-1	2	2	24	15	14	1	-1	-1
plaza	2472	2-1 stock - weak	2,0,0,0,0	plaza@rankms=165_rankdc=103_reps=1_srate=0.6_class=H	2	2	2016-04-15	2016-09-11	MS    	25	11	U	-1	5	5	0	-1	-1	2	2	24	3	13	4	-1	-1
plaza	2473	0	2,0,0,0,0	plaza@rankms=165_rankdc=103_reps=1_srate=0.6_class=H	5	3	2016-04-15	2016-09-11	DC    	20	8	U	5	-1	-1	0	-1	-1	2	2	24	17	14	1	-1	-1
tc72	2474	0	4,0,2,0,0	tc72#rankms=51_rankdc=90_reps=2_srate=0.7_class=A	2	2	2016-04-15	2016-09-11	MS    	25	12	Y	-1	16	16	4	-1	-1	2	2	24	5	28	4	-1	-1
tc72	2475	4=nice	4,0,2,0,0	tc72#rankms=51_rankdc=90_reps=2_srate=0.7_class=A	5	4	2016-04-15	2016-09-11	DC    	20	10	U	5	-1	-1	4	-1	-1	2	2	24	15	17	1	-1	-1
tc72	2476	0	4,0,2,0,0	tc72#rankms=51_rankdc=90_reps=2_srate=0.7_class=A	5	3	2016-04-15	2016-09-11	DC    	20	12	U	7	-1	-1	1	-1	-1	2	2	24	16	4	1	-1	-1
zoss	2477	0	0,0,1,0,0	zoss#rankms=59_rankdc=94_reps=1_srate=0.8_class=H	3	3	2016-04-15	2016-09-11	MS    	25	11	U	-1	14	14	16	-1	-1	2	2	24	3	12	4	-1	-1
zoss	2478	0	0,0,1,0,0	zoss#rankms=59_rankdc=94_reps=1_srate=0.8_class=H	5	4	2016-04-15	2016-09-11	DC    	20	9	U	5	-1	-1	0	-1	-1	2	2	24	17	11	1	-1	-1
\.


--
-- Name: test_detail_id_seq; Type: SEQUENCE SET; Schema: public; Owner: dad
--

SELECT pg_catalog.setval('test_detail_id_seq', 1, false);


--
-- Data for Name: test_spec; Type: TABLE DATA; Schema: public; Owner: dad
--

COPY test_spec (test_spec_key, id, notes, activity_type, test_type, stock_type, stock_length_cm, stock_collar_dia_mm, research_hypothesis, web_protocol, web_url, web_photos, test_start_date, id_site) FROM stdin;
TBD	1	To Be Determined	0	0	U     	-1	-1	0	0	0	0	1111-11-11	1
NA	2	Does Not Apply	0	0	U     	-1	-1	0	0	0	0	1111-11-11	2
2008-bell-nursery	3	2008-bell-nursery results	EVENT	nursery	MIX   	-1	-1	The control clones indicate that the nursery results are consistent.	0	0	0	2008-04-04	3
2008-costa-nursery	4	2008-costa-nursery results	EVENT	nursery	MIX   	-1	-1	The control clones indicate that the nursery results are consistent.	0	0	0	2008-04-04	4
2009-bell-nursery	5	2009-bell-nursery results	EVENT	nursery	MIX   	-1	-1	The control clones indicate that the nursery results are consistent.	0	0	0	2009-04-04	3
2009-costa-nursery	6	2009-costa-nursery results	EVENT	nursery	MIX   	-1	-1	The control clones indicate that the nursery results are consistent.	0	0	0	2009-04-04	4
2010-bell-nursery	7	2010-bell-nursery results	EVENT	nursery	MIX   	-1	-1	The control clones indicate that the nursery results are consistent.	0	0	0	2010-03-25	3
2010-dykema-nursery	8	2010-dykema-nursery results	EVENT	nursery	MIX   	-1	-1	The control clones indicate that the nursery results are consistent.	0	0	0	2010-03-25	5
2011-bell-nursery	13	2011 Bell nursery results. Planted 14 E to W rows, with rows 2 foot on centered double rows 4 inches apart.  Rows planted from N to S, The NE 3 rows grew slower. 2011 was a very wet spring & moderate Summer.  The wet Spring seemed to help cutting survival.	EVENT	nursery	MIX   	-1	-1	The control clones indicate that the nursery results are consistent.	0	0	0	2011-04-08	3
2012-bell-nursery	14	2012 Bell nursery results. Planted 8 E to W rows with cuttings planted about 2 on centered doubled rows 4 apart.  Each row is counted separate.  Columns represented by each clone ID.  All clones are labeled with clone name and 2011 database ID.	EVENT	nursery	MIX   	-1	-1	The control clones indicate that the nursery results are consistent.	0	0	0	2012-04-06	3
2012-2xCAG12-Cross	15	C173 x AG15 - planted about 350 seedlings on 6/16/12 that were grown indoors under flourescent lights.  Leaves were in tough shape...  This cross will be tested for cutting propagation.	EVENT	breeding	MIX   	-1	-1	The 2xCAG12 cross will have selections that yield more biomass than CAG204, root from cuttings, have straighter form and be fertile or infertile.	0	0	0	2012-02-12	3
2011-1xCAGW-Cross	16	CAG204 x Wind Pollinated at Cedar Springs, Michigan, most pollen may be from AE42.  CAG204 is quite fertile and had very good seed set and flower productivity.  The progeny had aspen and alba like seedlings.  One 2011 seedling propagated via cuttings in 2012 rooted 100%.	EVENT	breeding	MIX   	-1	-1	The 1xCAGW cross will have similar aspen to alba like seedling ratios as the CAG204 x AE42 cross.	0	0	0	2012-03-14	3
2011-RNE-AlbaPolePlanting	17	Planted 3 clones at RNE as pole stock in early November 2011.	TRIAL	archive-planting	WHIP  	213	-1	The rootable aspen materials may have similar survival rates as poles planted on good field sites as the same stock in nursery as with 6 cuttings.	0	0	0	2011-11-05	7
WASP-2013-A	18	A 2013 WASP rooting test involving 93AA12 that rooted 60% (24/40) in 2012 and 15AG4MF (aka AG15) that did not root at all.  See Journal entry and URL for details...	TRIAL	propagation	WASP  	-1	-1	The Willow and Water Soak treatments will show an increase in rooting compared to the No Soak control.	0	https://docs.google.com/spreadsheet/ccc?key=0Ar-SwoTVeWFadEFfYW11X21iamFKX0tKNHRsWWlrR3c#gid=13	0	2013-01-12	6
2013-breeding	19	Six crosses are planned for 2013 as a Proof Of Concept (POC) for aspen hybrids with good vigor and rooting characteristics.  	EVENT	breeding	SEL   	8	-1	The 2013 aspen crosses will meet the expectations set within the POC breeding strategy.	0	https://docs.google.com/spreadsheet/ccc?key=0Ar-SwoTVeWFadDhTNGtibW51amt0Z1JHYmw5SGdjRXc#gid=3	0	2013-03-19	6
2013-bell-nursery	20	2013 Bell nursery results. Planted 7 E to W rows with cuttings planted about 1.3 inches on centered doubled rows 30 inches apart.  Each row is counted separate (14 actual rows).  Columns represented by each clone ID.  All clones are labeled with clone/family name.	EVENT	nursery	MIX   	-1	-1	The control clones indicate that the nursery results are consistent.	0	0	https://drive.google.com/folderview?id=0B7-SwoTVeWFadVF2LVA0c3d0MWc&usp=sharing	2013-04-20	3
2014-breeding	21	Produced 24 crosses for 2014 for a Proof Of Concept (POC) testing for aspen hybrids with good vigor and rooting characteristics.  	EVENT	breeding	SEL   	8	-1	The 2014 aspen crosses will meet the expectations set within the POC breeding strategy.	0	0	0	2014-03-19	6
2014-bell-nursery	22	2014 Bell nursery results. Planted 12 (6 long 6 short) E to W double rows with cuttings planted about 2.5 to 3 inches on centered doubled rows 30 to 36 inches apart.  Each row is counted separate.  Columns represented by each clone ID.  All clones are labeled with clone/family name.	EVENT	nursery	MIX   	-1	-1	The control clones indicate that the nursery results are consistent.	0	0	0	2014-04-20	3
2015-bell-nursery	23	2015 Bell nursery results. Planted 12 (6 long 8 short) E to W double rows with cuttings planted about 2 inches on centered doubled rows 30 inches apart.  Each row is counted separate.  Columns represented by each clone ID.  All clones are labeled with clone/family name.	EVENT	nursery	MIX   	-1	-1	The control clones indicate that the nursery results are consistent.	0	0	0	2015-05-08	3
2016-bell-nursery	24	2016 Bell nursery results. Planted 15 (6 long 8 short) E to W single/double rows with 10 inch ministools or 8 inch cuttings planted about 2 inches on centered doubled rows 30 inches apart.  Each row is counted separate.  Columns represented by each clone ID.  All clones are labeled with clone/family name.	EVENT	nursery	MIX   	-1	-1	The control clones indicate that the nursery results are consistent.	0	0	0	2016-04-15	3
2016-PostNE-West-Planted	25	Establish the 2016 clonal archive planting at Post NE site.   Planted S to N rows planted 5 x 6 foot spacing.  Stock was 5-7 foot 1-1 trees wrapped with textile fabric.  Applied Glysophate mid May, June and July.	TRIAL	archive-planting	1-0   	213	20	NA	0	0	0	2016-03-15	9
2016-PostNE-West-Measured	26	Measure trees for first year field growth. Overall - an excellent site and 2016 growth. Trees are planted too close but these not all primary selections so they can be thinned later.   	TRIAL	archive-planting	1-0   	213	-1	NA	0	0	0	2016-12-26	9
2017-PostNE-West-Planting	27	Planted secondary level trees on Noth end of rows 1, 2, 3 and 4. Rows 1 and 2 have only secondary level trees.  Rows 3 and 4 start with Primary level trees.  	TRIAL	archive-planting	1-0   	213	-1	NA	0	0	0	2017-03-25	9
\.


--
-- Name: test_spec_id_seq; Type: SEQUENCE SET; Schema: public; Owner: dad
--

SELECT pg_catalog.setval('test_spec_id_seq', 1, false);


--
-- Data for Name: u07m_2013; Type: TABLE DATA; Schema: public; Owner: dad
--

COPY u07m_2013 (id, dbh, dbh_rank, name, area_index, sum_dbh_ratio2_cd, sdbh_x_cavg) FROM stdin;
1	5.6	131	17XGA24	221.36	3.17	13.58
2	3.2	186	17XGA04	122.51	2.28	14.48
3	8	44	17XGA04	200.73	9.59	23.4
4	4	167	17XGA5	138.35	3.65	15.6
5	5.8	123	82XAA04	172.79	6.24	18.85
6	5	145	82XAA04	141.89	3.54	22.63
7	8.7	22	82XAA04	215.4	6.17	25.45
8	0	208	82XAA04	0	0	0
9	0	208	2XT4E04	0	0	0
10	0	208	2XT4E04	0	0	0
11	0	208	2XT4E04	0	0	0
12	0	208	2XT4E04	0	0	0
13	8.7	23	83XAA04	220	3.6	25.01
14	9.8	5	83XAA04	206.49	7.33	32.46
15	9.4	7	83XAA04	205.42	6.97	31.84
16	8.9	17	83XAA04	207.91	6.89	27.48
17	6.3	101	81XAA04	170.58	3.49	23.78
18	9.3	9	81XAA04	180.84	6.84	40.45
19	7.9	48	81XAA04	171.23	6.07	35.35
20	4	168	81XAA04	171.41	2.52	14.15
21	0	208	NM6	0	0	0
22	9.4	8	80XAA04	187.05	8.17	38.66
23	6.8	83	80XAA04	81.66	8.58	48.03
24	6.4	97	80XAA04	89.87	9.91	39.28
25	3	189	80XAA04	32.15	3.77	20.21
26	8	45	84XAA04	121.35	13.62	42.2
27	6	115	84XAA04	81.98	8.47	37.13
28	7.7	53	84XAA04	130.97	10.55	37.06
29	4.7	155	84XAA04	110.43	4.48	23.97
30	4.4	161	18XAG04	146.12	3.8	16.83
31	6	116	18XAG04	178.91	3.97	20.02
32	8.2	38	18XAG04	192.77	4.92	29.42
33	7.7	54	18XAG04	165.46	3.67	32.82
34	0	208	81XAA04	0	0	0
35	5.5	133	81XAA04	82.41	6.09	35.34
36	2.9	192	81XAA04	42.34	2.79	19.32
37	0	208	81XAA04	0	0	0
38	6.1	109	80XAA04	88.47	6.08	38.58
39	5.9	119	80XAA04	67.6	6.85	42.19
40	8.6	25	80XAA04	103.72	10.9	58.05
41	8	46	80XAA04	125.91	9.64	45.5
42	3.8	174	NM6	168.37	2.37	13.4
43	8.9	18	83XAA04	205.22	5.34	32.26
44	8.4	28	83XAA04	140.92	7.57	44.62
45	6.6	89	83XAA04	137.26	7.21	31.43
46	9.1	15	83XAA04	163.19	9.93	41.29
47	6	117	1XTE04	103.63	8.25	30.97
48	3.3	184	1XTE04	42.52	4.63	19.88
49	5	146	1XTE04	77.07	7.96	27.06
50	5.8	124	1XTE04	92.1	10.81	31.18
51	9.2	12	80XAA04	147.96	18.96	42.43
52	4.9	151	80XAA04	134.97	7.6	19.78
53	0	208	80XAA04	0	0	0
54	10.1	3	80XAA04	205.51	5.95	35.48
55	7.1	76	82XAA04	145.35	5.28	31.68
56	7.3	68	82XAA04	143.4	8.51	30.93
57	6.2	104	82XAA04	127.26	6.79	28.44
58	6.2	105	82XAA04	112.17	8.43	31.78
59	7.5	60	83XAA04	116.97	8.87	41.53
60	6.5	94	83XAA04	84.27	8.79	41.52
61	5	147	83XAA04	56.45	5.79	35.38
62	7.4	65	83XAA04	91.33	9.53	49.67
63	8.8	21	NM6	183.69	7.29	35.86
64	0	208	85XAA04	0	0	0
65	4.4	162	85XAA04	101.56	4.87	21.07
66	0	208	85XAA04	0	0	0
67	0	208	85XAA04	0	0	0
68	6.3	102	18XAG04	145.61	5.39	26.93
69	5.6	132	18XAG04	172.7	6.19	16.94
70	3.6	178	18XAG04	140.22	3.62	11.84
71	6.6	90	18XAG04	158.05	10.05	24.91
72	1.8	205	85XAA04	37.52	2.61	8.62
73	2.7	195	85XAA04	90.26	3.81	11.71
74	0	208	85XAA04	0	0	0
75	0	208	85XAA04	0	0	0
76	5.1	141	84XAA04	101.29	5.29	26.01
77	0	208	84XAA04	0	0	0
78	7.1	77	84XAA04	111.87	8.06	39.23
79	7.7	55	84XAA04	126.37	9.48	40.62
80	3.5	181	82XAA04	65.26	4.09	19.69
81	8.4	29	82XAA04	154.95	14.56	35.91
82	6.1	110	82XAA04	120.19	9.64	29.43
83	5.7	126	82XAA04	104.67	8.06	31.21
84	7.7	56	NM6	187.4	4.38	27.72
85	2.7	196	81XAA04	156.33	1.7	9.18
86	6.9	80	81XAA04	145.03	8.26	30.45
87	4.8	152	81XAA04	125.56	3.61	21.42
88	10.2	2	81XAA04	209.28	6.89	30.98
89	0	208	2XT4E04	0	0	0
90	0	208	2XT4E04	0	0	0
91	0	208	2XT4E04	0	0	0
92	0	208	2XT4E04	0	0	0
93	4.8	153	84XAA04	110.74	9.66	18.72
94	4.3	164	84XAA04	111.2	10.95	16.13
95	9.7	6	84XAA04	188.8	17.53	35.77
96	8.3	33	84XAA04	193.78	13.19	25.63
97	2.9	193	17XGA04	126.9	2	8.77
98	5.1	142	17XGA04	181.73	4.24	13.9
99	6.7	86	17XGA04	170.55	6.78	23.28
100	5	148	17XGA04	125.44	6.42	20.12
101	0	208	85XAA04	0	0	0
102	3.7	176	85XAA04	82.78	6.06	17.16
103	1.9	204	85XAA04	32.64	2.25	10.4
104	0	208	85XAA04	0	0	0
105	6.9	81	NM6	181.94	4.01	24.06
106	9.2	13	81XAA04	188.3	8.33	37.84
107	6.7	87	81XAA04	82.54	8.99	46.15
108	7.5	61	81XAA04	100.8	7.36	49.03
109	0	208	81XAA04	0	0	0
110	5.7	127	82XAA04	177.2	1.98	18.74
111	7.9	49	82XAA04	231.76	4.56	16.29
112	6.9	82	82XAA04	199.15	6.07	18.03
113	6.1	111	82XAA04	157.96	9.49	19.67
114	2.5	198	18XAG04	55.89	3.87	10.63
115	7.2	73	18XAG04	126.05	16.93	33.39
116	1.3	207	18XAG04	22.43	1.56	7.31
117	5.7	128	18XAG04	123.81	9.23	26.36
118	0	208	1XTE04	0	0	0
119	0	208	1XTE04	0	0	0
120	0	208	1XTE04	0	0	0
121	2.9	194	1XTE04	86.37	2.33	12.36
122	4.3	165	82XAA04	105.68	5.43	17.9
123	6.8	84	82XAA04	163.27	10.98	21.67
124	6.1	112	82XAA04	122.46	9.97	28.14
125	7	79	82XAA04	129.93	11.33	33.43
126	7.5	62	NM6	196.01	5.37	23.63
127	8.5	27	83XAA04	206.83	6.78	28.05
128	8.1	42	83XAA04	140.65	13.99	43.74
129	7.4	66	83XAA04	152.97	11.92	31.82
130	8.2	39	83XAA04	166.02	13.89	31.26
131	0	208	2XT4E04	0	0	0
132	0	208	2XT4E04	0	0	0
133	3.9	171	2XT4E04	93.37	7.01	16.57
134	3	190	2XT4E04	52.74	5.87	14.59
135	4.7	156	17XGA04	77.69	8.43	24.09
136	3.9	172	17XGA04	66.3	8.36	20.33
137	5.9	120	17XGA04	114.6	10.77	27.14
138	0	208	17XGA04	0	0	0
139	8.9	19	83XAA04	177.95	7.19	34.82
140	7.5	63	83XAA04	183.48	4.23	27.47
141	8.2	40	83XAA04	182.74	8.53	30.24
142	9.9	4	83XAA04	199.2	11.37	30.94
143	0	208	81XAA04	0	0	0
144	5	149	81XAA04	113.21	5.41	21.5
145	4.5	159	81XAA04	78.66	5.19	24.75
146	8	47	81XAA04	144.09	12.08	36
147	3.3	185	85XAA04	135.85	3.12	12.42
148	2.4	199	1XTE04	222.71	0.58	4.98
149	0	208	1XTE04	0	0	0
150	1.5	206	1XTE04	147.94	1.2	4.89
151	2.4	200	1XTE04	105.87	2.9	9.51
152	6	118	18XAG04	161.99	6.93	22.88
153	2.6	197	18XAG04	90.77	3.23	11.99
154	2.2	201	18XAG04	54.01	3.34	11.08
155	5.3	138	18XAG04	88.39	9.72	28.42
156	7.3	69	82XAA04	109.41	11.78	40.24
157	5.7	129	82XAA04	85.09	8.83	31.71
158	7.1	78	82XAA04	129.43	10.32	31.95
159	5.9	121	82XAA04	99.79	7.43	31.71
160	6.5	95	81XAA04	101.25	7.32	37.38
161	5.7	130	81XAA04	81.84	5.47	36.84
162	0	208	81XAA04	0	0	0
163	3.5	182	81XAA04	71.27	3.2	18.86
164	6.1	113	84XAA04	104.16	7.99	32.33
165	6.6	91	84XAA04	130.22	6.79	30.44
166	0	208	84XAA04	0	0	0
167	4.5	160	84XAA04	93.23	7.42	22.22
168	3.1	188	85XAA04	143.5	3.72	11.08
169	0	208	85XAA04	0	0	0
170	0	208	85XAA04	0	0	0
171	0	208	85XAA04	0	0	0
172	0	208	85XAA04	0	0	0
173	8.6	26	80XAA04	148.83	14.38	39.99
174	8.7	24	80XAA04	137.01	16.98	43.5
175	7.5	64	80XAA04	126.33	15.53	36.94
176	9.3	10	80XAA04	144.76	18.06	44.76
177	5	150	84XAA04	94.03	6.79	25.88
178	7.2	74	84XAA04	134.98	10.62	32.49
179	3.4	183	84XAA04	90.17	3.82	14.41
180	4	169	84XAA04	93.37	6.59	18.05
181	7.2	75	80XAA04	159.77	10.05	27.81
182	6.8	85	80XAA04	171.45	7.61	23.8
183	6.6	92	80XAA04	201.94	5.71	16.42
184	3.9	173	80XAA04	122.89	3.3	15.84
185	8.4	30	83XAA04	157.94	9.91	34.76
186	5.1	143	83XAA04	97	4.39	27.16
187	7.8	51	83XAA04	146.65	8.58	35.49
188	10.6	1	83XAA04	197.41	16.57	36.04
189	2.2	202	85XAA04	163.52	1.99	6.05
190	9.3	11	84XAA04	264.08	2.91	15.35
191	0	208	84XAA04	0	0	0
192	5.4	136	84XAA04	176.53	3.04	19.91
193	9	16	84XAA04	158.05	8.89	42.75
194	4.8	154	17XGA04	74.4	5.37	28.74
195	3.7	177	17XGA04	42.7	4.65	24.74
196	4.6	157	17XGA04	56.7	6.35	31.16
197	3	191	17XGA04	54.39	3.58	17.21
198	3.6	179	2XT4E04	73.69	3.67	18.59
199	0	208	2XT4E04	0	0	0
200	4	170	2XT4E04	89.89	4.26	19.1
201	0	208	2XT4E04	0	0	0
202	2	203	85XAA04	56.95	2.32	8.57
203	0	208	85XAA04	0	0	0
204	0	208	85XAA04	0	0	0
205	0	208	85XAA04	0	0	0
206	7.9	50	80XAA04	145.28	8.11	36.83
207	0	208	80XAA04	0	0	0
208	5.8	125	80XAA04	95.9	6.78	33.2
209	3.8	175	80XAA04	73.89	5.06	21.42
210	0	208	85XAA04	0	0	0
211	5.4	137	NM6	156.2	2.58	22.68
212	7.8	52	NM6	109.02	7.89	49.14
213	7.4	67	NM6	108.3	7.75	44.86
214	5.3	139	NM6	64.21	6.56	35.44
215	6.5	96	NM6	85.31	8.78	41.6
216	6.1	114	NM6	82.16	8.36	38.58
217	6.7	88	NM6	90.54	9.73	43.3
218	9.2	14	NM6	144.75	12.45	48.3
219	0	208	NM6	0	0	0
220	7.6	58	NM6	150.73	8.76	33.34
221	7.7	57	NM6	143.38	8.3	35.61
222	8.3	34	NM6	156.92	14.59	35.48
223	4.4	163	NM6	127.51	6.89	15.95
224	3.6	180	NM6	121.8	5.47	12.87
225	5.5	134	NM6	162.25	5.06	19.8
226	6.2	106	NM6	131.39	6.1	29.06
227	7.3	70	NM6	132.85	7.16	34.13
228	6.4	98	NM6	102.94	7.3	35.12
229	6.2	107	NM6	104.89	7.57	32.86
230	5.9	122	NM6	99.9	6.92	32.97
231	6.6	93	NM6	195.8	4.41	22.03
232	8.3	35	NM6	230.06	3.61	22.2
233	8.2	41	NM6	171.39	5.95	36.18
234	6.4	99	NM6	156.82	4.67	28.08
235	6.4	100	NM6	159.61	4.9	26.56
236	7.6	59	NM6	171.01	5.95	30.97
237	8.3	36	NM6	171.27	5.96	36.62
238	8.4	31	NM6	166.89	5.56	40.64
239	8.4	32	NM6	185.93	4.32	33.18
240	7.3	71	NM6	184.23	4.36	26.83
241	4.2	166	NM6	148.5	2.18	16.22
242	8.3	37	NM6	182.49	6.95	33.62
243	4.6	158	NM6	149.72	4.19	18.34
244	3.2	187	NM6	133.16	3.14	11.28
245	7.3	72	NM6	193.51	8.47	20.9
246	6.2	108	NM6	167.87	5.83	21.78
247	5.5	135	NM6	157.3	4.61	20.83
248	5.1	144	NM6	150.34	4.05	20.21
249	6.3	103	NM6	166.26	5.29	23.86
250	5.3	140	NM6	147.44	4.02	22.33
251	8.9	20	NM6	183.06	7.07	35.71
252	8.1	43	NM6	227.69	3.51	21.67
\.


--
-- Name: u07m_2013_id_seq; Type: SEQUENCE SET; Schema: public; Owner: dad
--

SELECT pg_catalog.setval('u07m_2013_id_seq', 1, false);


--
-- Name: family_family_key_key; Type: CONSTRAINT; Schema: public; Owner: dad; Tablespace: 
--

ALTER TABLE ONLY family
    ADD CONSTRAINT family_family_key_key UNIQUE (family_key);


--
-- Name: family_pk; Type: CONSTRAINT; Schema: public; Owner: dad; Tablespace: 
--

ALTER TABLE ONLY family
    ADD CONSTRAINT family_pk PRIMARY KEY (id);


--
-- Name: field_trial_pk; Type: CONSTRAINT; Schema: public; Owner: dad; Tablespace: 
--

ALTER TABLE ONLY field_trial
    ADD CONSTRAINT field_trial_pk PRIMARY KEY (id);


--
-- Name: journal_pk; Type: CONSTRAINT; Schema: public; Owner: dad; Tablespace: 
--

ALTER TABLE ONLY journal
    ADD CONSTRAINT journal_pk PRIMARY KEY (id);


--
-- Name: pedigree_path_key; Type: CONSTRAINT; Schema: public; Owner: dad; Tablespace: 
--

ALTER TABLE ONLY pedigree
    ADD CONSTRAINT pedigree_path_key UNIQUE (path);


--
-- Name: plant_pk; Type: CONSTRAINT; Schema: public; Owner: dad; Tablespace: 
--

ALTER TABLE ONLY plant
    ADD CONSTRAINT plant_pk PRIMARY KEY (id);


--
-- Name: plant_plant_key_key; Type: CONSTRAINT; Schema: public; Owner: dad; Tablespace: 
--

ALTER TABLE ONLY plant
    ADD CONSTRAINT plant_plant_key_key UNIQUE (plant_key);


--
-- Name: site_location_code_key; Type: CONSTRAINT; Schema: public; Owner: dad; Tablespace: 
--

ALTER TABLE ONLY site
    ADD CONSTRAINT site_location_code_key UNIQUE (location_code);


--
-- Name: site_pk; Type: CONSTRAINT; Schema: public; Owner: dad; Tablespace: 
--

ALTER TABLE ONLY site
    ADD CONSTRAINT site_pk PRIMARY KEY (id);


--
-- Name: site_site_key_key; Type: CONSTRAINT; Schema: public; Owner: dad; Tablespace: 
--

ALTER TABLE ONLY site
    ADD CONSTRAINT site_site_key_key UNIQUE (site_key);


--
-- Name: taxa_pk; Type: CONSTRAINT; Schema: public; Owner: dad; Tablespace: 
--

ALTER TABLE ONLY taxa
    ADD CONSTRAINT taxa_pk PRIMARY KEY (id);


--
-- Name: taxa_taxa_key_key; Type: CONSTRAINT; Schema: public; Owner: dad; Tablespace: 
--

ALTER TABLE ONLY taxa
    ADD CONSTRAINT taxa_taxa_key_key UNIQUE (taxa_key);


--
-- Name: test_detail_pk; Type: CONSTRAINT; Schema: public; Owner: dad; Tablespace: 
--

ALTER TABLE ONLY test_detail
    ADD CONSTRAINT test_detail_pk PRIMARY KEY (id);


--
-- Name: test_spec_pk; Type: CONSTRAINT; Schema: public; Owner: dad; Tablespace: 
--

ALTER TABLE ONLY test_spec
    ADD CONSTRAINT test_spec_pk PRIMARY KEY (id);


--
-- Name: test_spec_test_spec_key_key; Type: CONSTRAINT; Schema: public; Owner: dad; Tablespace: 
--

ALTER TABLE ONLY test_spec
    ADD CONSTRAINT test_spec_test_spec_key_key UNIQUE (test_spec_key);


--
-- Name: u07m_2013_pk; Type: CONSTRAINT; Schema: public; Owner: dad; Tablespace: 
--

ALTER TABLE ONLY u07m_2013
    ADD CONSTRAINT u07m_2013_pk PRIMARY KEY (id);


--
-- Name: family_id_taxa_fk; Type: FK CONSTRAINT; Schema: public; Owner: dad
--

ALTER TABLE ONLY family
    ADD CONSTRAINT family_id_taxa_fk FOREIGN KEY (id_taxa) REFERENCES taxa(id);


--
-- Name: field_trial_id_test_spec_fk; Type: FK CONSTRAINT; Schema: public; Owner: dad
--

ALTER TABLE ONLY field_trial
    ADD CONSTRAINT field_trial_id_test_spec_fk FOREIGN KEY (id_test_spec) REFERENCES test_spec(id);


--
-- Name: journal_id_family_fk; Type: FK CONSTRAINT; Schema: public; Owner: dad
--

ALTER TABLE ONLY journal
    ADD CONSTRAINT journal_id_family_fk FOREIGN KEY (id_plant) REFERENCES plant(id);


--
-- Name: journal_id_plant_fk; Type: FK CONSTRAINT; Schema: public; Owner: dad
--

ALTER TABLE ONLY journal
    ADD CONSTRAINT journal_id_plant_fk FOREIGN KEY (id_family) REFERENCES family(id);


--
-- Name: journal_id_site_fk; Type: FK CONSTRAINT; Schema: public; Owner: dad
--

ALTER TABLE ONLY journal
    ADD CONSTRAINT journal_id_site_fk FOREIGN KEY (id_site) REFERENCES site(id);


--
-- Name: journal_id_test_spec_fk; Type: FK CONSTRAINT; Schema: public; Owner: dad
--

ALTER TABLE ONLY journal
    ADD CONSTRAINT journal_id_test_spec_fk FOREIGN KEY (id_test_spec) REFERENCES test_spec(id);


--
-- Name: plant_id_family_fk; Type: FK CONSTRAINT; Schema: public; Owner: dad
--

ALTER TABLE ONLY plant
    ADD CONSTRAINT plant_id_family_fk FOREIGN KEY (id_family) REFERENCES family(id);


--
-- Name: plant_id_taxa_fk; Type: FK CONSTRAINT; Schema: public; Owner: dad
--

ALTER TABLE ONLY plant
    ADD CONSTRAINT plant_id_taxa_fk FOREIGN KEY (id_taxa) REFERENCES taxa(id);


--
-- Name: test_detail_id_family_fk; Type: FK CONSTRAINT; Schema: public; Owner: dad
--

ALTER TABLE ONLY test_detail
    ADD CONSTRAINT test_detail_id_family_fk FOREIGN KEY (id_plant) REFERENCES plant(id);


--
-- Name: test_detail_id_plant_fk; Type: FK CONSTRAINT; Schema: public; Owner: dad
--

ALTER TABLE ONLY test_detail
    ADD CONSTRAINT test_detail_id_plant_fk FOREIGN KEY (id_family) REFERENCES family(id);


--
-- Name: test_detail_id_test_spec_fk; Type: FK CONSTRAINT; Schema: public; Owner: dad
--

ALTER TABLE ONLY test_detail
    ADD CONSTRAINT test_detail_id_test_spec_fk FOREIGN KEY (id_test_spec) REFERENCES test_spec(id);


--
-- Name: test_spec_id_site_fk; Type: FK CONSTRAINT; Schema: public; Owner: dad
--

ALTER TABLE ONLY test_spec
    ADD CONSTRAINT test_spec_id_site_fk FOREIGN KEY (id_site) REFERENCES site(id);


--
-- Name: public; Type: ACL; Schema: -; Owner: postgres
--

REVOKE ALL ON SCHEMA public FROM PUBLIC;
REVOKE ALL ON SCHEMA public FROM postgres;
GRANT ALL ON SCHEMA public TO postgres;
GRANT ALL ON SCHEMA public TO PUBLIC;


--
-- Name: family; Type: ACL; Schema: public; Owner: dad
--

REVOKE ALL ON TABLE family FROM PUBLIC;
REVOKE ALL ON TABLE family FROM dad;
GRANT ALL ON TABLE family TO dad;
GRANT SELECT ON TABLE family TO pmcgover_s;


--
-- Name: plant; Type: ACL; Schema: public; Owner: dad
--

REVOKE ALL ON TABLE plant FROM PUBLIC;
REVOKE ALL ON TABLE plant FROM dad;
GRANT ALL ON TABLE plant TO dad;
GRANT SELECT ON TABLE plant TO pmcgover_s;


--
-- Name: taxa; Type: ACL; Schema: public; Owner: dad
--

REVOKE ALL ON TABLE taxa FROM PUBLIC;
REVOKE ALL ON TABLE taxa FROM dad;
GRANT ALL ON TABLE taxa TO dad;
GRANT SELECT ON TABLE taxa TO pmcgover_s;


--
-- Name: avw_family; Type: ACL; Schema: public; Owner: dad
--

REVOKE ALL ON TABLE avw_family FROM PUBLIC;
REVOKE ALL ON TABLE avw_family FROM dad;
GRANT ALL ON TABLE avw_family TO dad;
GRANT SELECT ON TABLE avw_family TO pmcgover_s;


--
-- Name: field_trial; Type: ACL; Schema: public; Owner: dad
--

REVOKE ALL ON TABLE field_trial FROM PUBLIC;
REVOKE ALL ON TABLE field_trial FROM dad;
GRANT ALL ON TABLE field_trial TO dad;
GRANT SELECT ON TABLE field_trial TO pmcgover_s;


--
-- Name: test_spec; Type: ACL; Schema: public; Owner: dad
--

REVOKE ALL ON TABLE test_spec FROM PUBLIC;
REVOKE ALL ON TABLE test_spec FROM dad;
GRANT ALL ON TABLE test_spec TO dad;
GRANT SELECT ON TABLE test_spec TO pmcgover_s;


--
-- Name: avw_field_trial; Type: ACL; Schema: public; Owner: dad
--

REVOKE ALL ON TABLE avw_field_trial FROM PUBLIC;
REVOKE ALL ON TABLE avw_field_trial FROM dad;
GRANT ALL ON TABLE avw_field_trial TO dad;
GRANT SELECT ON TABLE avw_field_trial TO pmcgover_s;


--
-- Name: journal; Type: ACL; Schema: public; Owner: dad
--

REVOKE ALL ON TABLE journal FROM PUBLIC;
REVOKE ALL ON TABLE journal FROM dad;
GRANT ALL ON TABLE journal TO dad;
GRANT SELECT ON TABLE journal TO pmcgover_s;


--
-- Name: site; Type: ACL; Schema: public; Owner: dad
--

REVOKE ALL ON TABLE site FROM PUBLIC;
REVOKE ALL ON TABLE site FROM dad;
GRANT ALL ON TABLE site TO dad;
GRANT SELECT ON TABLE site TO pmcgover_s;


--
-- Name: avw_journal; Type: ACL; Schema: public; Owner: dad
--

REVOKE ALL ON TABLE avw_journal FROM PUBLIC;
REVOKE ALL ON TABLE avw_journal FROM dad;
GRANT ALL ON TABLE avw_journal TO dad;
GRANT SELECT ON TABLE avw_journal TO pmcgover_s;


--
-- Name: avw_plant; Type: ACL; Schema: public; Owner: dad
--

REVOKE ALL ON TABLE avw_plant FROM PUBLIC;
REVOKE ALL ON TABLE avw_plant FROM dad;
GRANT ALL ON TABLE avw_plant TO dad;
GRANT SELECT ON TABLE avw_plant TO pmcgover_s;


--
-- Name: avw_site; Type: ACL; Schema: public; Owner: dad
--

REVOKE ALL ON TABLE avw_site FROM PUBLIC;
REVOKE ALL ON TABLE avw_site FROM dad;
GRANT ALL ON TABLE avw_site TO dad;
GRANT SELECT ON TABLE avw_site TO pmcgover_s;


--
-- Name: avw_taxa; Type: ACL; Schema: public; Owner: dad
--

REVOKE ALL ON TABLE avw_taxa FROM PUBLIC;
REVOKE ALL ON TABLE avw_taxa FROM dad;
GRANT ALL ON TABLE avw_taxa TO dad;
GRANT SELECT ON TABLE avw_taxa TO pmcgover_s;


--
-- Name: test_detail; Type: ACL; Schema: public; Owner: dad
--

REVOKE ALL ON TABLE test_detail FROM PUBLIC;
REVOKE ALL ON TABLE test_detail FROM dad;
GRANT ALL ON TABLE test_detail TO dad;
GRANT SELECT ON TABLE test_detail TO pmcgover_s;


--
-- Name: avw_test_detail; Type: ACL; Schema: public; Owner: dad
--

REVOKE ALL ON TABLE avw_test_detail FROM PUBLIC;
REVOKE ALL ON TABLE avw_test_detail FROM dad;
GRANT ALL ON TABLE avw_test_detail TO dad;
GRANT SELECT ON TABLE avw_test_detail TO pmcgover_s;


--
-- Name: avw_test_spec; Type: ACL; Schema: public; Owner: dad
--

REVOKE ALL ON TABLE avw_test_spec FROM PUBLIC;
REVOKE ALL ON TABLE avw_test_spec FROM dad;
GRANT ALL ON TABLE avw_test_spec TO dad;
GRANT SELECT ON TABLE avw_test_spec TO pmcgover_s;


--
-- Name: pedigree; Type: ACL; Schema: public; Owner: dad
--

REVOKE ALL ON TABLE pedigree FROM PUBLIC;
REVOKE ALL ON TABLE pedigree FROM dad;
GRANT ALL ON TABLE pedigree TO dad;
GRANT SELECT ON TABLE pedigree TO pmcgover_s;


--
-- Name: u07m_2013; Type: ACL; Schema: public; Owner: dad
--

REVOKE ALL ON TABLE u07m_2013 FROM PUBLIC;
REVOKE ALL ON TABLE u07m_2013 FROM dad;
GRANT ALL ON TABLE u07m_2013 TO dad;
GRANT SELECT ON TABLE u07m_2013 TO pmcgover_s;


--
-- Name: va1_master_test_detail; Type: ACL; Schema: public; Owner: dad
--

REVOKE ALL ON TABLE va1_master_test_detail FROM PUBLIC;
REVOKE ALL ON TABLE va1_master_test_detail FROM dad;
GRANT ALL ON TABLE va1_master_test_detail TO dad;
GRANT SELECT ON TABLE va1_master_test_detail TO pmcgover_s;


--
-- Name: va2_nursery_stocktype_test_detail; Type: ACL; Schema: public; Owner: dad
--

REVOKE ALL ON TABLE va2_nursery_stocktype_test_detail FROM PUBLIC;
REVOKE ALL ON TABLE va2_nursery_stocktype_test_detail FROM dad;
GRANT ALL ON TABLE va2_nursery_stocktype_test_detail TO dad;
GRANT SELECT ON TABLE va2_nursery_stocktype_test_detail TO pmcgover_s;


--
-- Name: va3_nursery_summary_test_detail; Type: ACL; Schema: public; Owner: dad
--

REVOKE ALL ON TABLE va3_nursery_summary_test_detail FROM PUBLIC;
REVOKE ALL ON TABLE va3_nursery_summary_test_detail FROM dad;
GRANT ALL ON TABLE va3_nursery_summary_test_detail TO dad;
GRANT SELECT ON TABLE va3_nursery_summary_test_detail TO pmcgover_s;


--
-- Name: vw_2016_1_nursery; Type: ACL; Schema: public; Owner: dad
--

REVOKE ALL ON TABLE vw_2016_1_nursery FROM PUBLIC;
REVOKE ALL ON TABLE vw_2016_1_nursery FROM dad;
GRANT ALL ON TABLE vw_2016_1_nursery TO dad;
GRANT SELECT ON TABLE vw_2016_1_nursery TO pmcgover_s;


--
-- Name: vw_2016_2_nursery_key_stock_summary; Type: ACL; Schema: public; Owner: dad
--

REVOKE ALL ON TABLE vw_2016_2_nursery_key_stock_summary FROM PUBLIC;
REVOKE ALL ON TABLE vw_2016_2_nursery_key_stock_summary FROM dad;
GRANT ALL ON TABLE vw_2016_2_nursery_key_stock_summary TO dad;
GRANT SELECT ON TABLE vw_2016_2_nursery_key_stock_summary TO pmcgover_s;


--
-- Name: vw_2016_3_nursery_stock_summary; Type: ACL; Schema: public; Owner: dad
--

REVOKE ALL ON TABLE vw_2016_3_nursery_stock_summary FROM PUBLIC;
REVOKE ALL ON TABLE vw_2016_3_nursery_stock_summary FROM dad;
GRANT ALL ON TABLE vw_2016_3_nursery_stock_summary TO dad;
GRANT SELECT ON TABLE vw_2016_3_nursery_stock_summary TO pmcgover_s;


--
-- Name: vw_2016_4_nursery_action_stock_summary; Type: ACL; Schema: public; Owner: dad
--

REVOKE ALL ON TABLE vw_2016_4_nursery_action_stock_summary FROM PUBLIC;
REVOKE ALL ON TABLE vw_2016_4_nursery_action_stock_summary FROM dad;
GRANT ALL ON TABLE vw_2016_4_nursery_action_stock_summary TO dad;
GRANT SELECT ON TABLE vw_2016_4_nursery_action_stock_summary TO pmcgover_s;


--
-- Name: vw_2016_5_field_trial_summary; Type: ACL; Schema: public; Owner: dad
--

REVOKE ALL ON TABLE vw_2016_5_field_trial_summary FROM PUBLIC;
REVOKE ALL ON TABLE vw_2016_5_field_trial_summary FROM dad;
GRANT ALL ON TABLE vw_2016_5_field_trial_summary TO dad;
GRANT SELECT ON TABLE vw_2016_5_field_trial_summary TO pmcgover_s;


--
-- Name: vw_2016_6_nursery_field_summary; Type: ACL; Schema: public; Owner: dad
--

REVOKE ALL ON TABLE vw_2016_6_nursery_field_summary FROM PUBLIC;
REVOKE ALL ON TABLE vw_2016_6_nursery_field_summary FROM dad;
GRANT ALL ON TABLE vw_2016_6_nursery_field_summary TO dad;
GRANT SELECT ON TABLE vw_2016_6_nursery_field_summary TO pmcgover_s;


--
-- Name: vw_2017_stock; Type: ACL; Schema: public; Owner: dad
--

REVOKE ALL ON TABLE vw_2017_stock FROM PUBLIC;
REVOKE ALL ON TABLE vw_2017_stock FROM dad;
GRANT ALL ON TABLE vw_2017_stock TO dad;
GRANT SELECT ON TABLE vw_2017_stock TO pmcgover_s;


--
-- Name: vw_2017_stock_summary; Type: ACL; Schema: public; Owner: dad
--

REVOKE ALL ON TABLE vw_2017_stock_summary FROM PUBLIC;
REVOKE ALL ON TABLE vw_2017_stock_summary FROM dad;
GRANT ALL ON TABLE vw_2017_stock_summary TO dad;
GRANT SELECT ON TABLE vw_2017_stock_summary TO pmcgover_s;


--
-- Name: vw_u07m_2013; Type: ACL; Schema: public; Owner: dad
--

REVOKE ALL ON TABLE vw_u07m_2013 FROM PUBLIC;
REVOKE ALL ON TABLE vw_u07m_2013 FROM dad;
GRANT ALL ON TABLE vw_u07m_2013 TO dad;
GRANT SELECT ON TABLE vw_u07m_2013 TO pmcgover_s;


--
-- PostgreSQL database dump complete
--

